---
triple:          'arm64-apple-darwin'
binary-path:     '/Users/haolong/Documents/GitHub/demos_v_matrix/src/fertility'
relocations:
  - { offsetInCU: 0x44, offset: 0x44, size: 0x8, addend: 0x0, symName: __ZN5EigenL4lastE, symObjAddr: 0xC47E8, symBinAddr: 0x100010000, symSize: 0x0 }
  - { offsetInCU: 0x2329, offset: 0x2329, size: 0x8, addend: 0x0, symName: __ZN5Eigen8internal31conditional_aligned_delete_autoIiLb1EEEvPT_m, symObjAddr: 0x1198, symBinAddr: 0x100001970, symSize: 0x28 }
  - { offsetInCU: 0x2375, offset: 0x2375, size: 0x8, addend: 0x0, symName: __ZN5Eigen8internal24conditional_aligned_freeILb1EEEvPv, symObjAddr: 0x11C0, symBinAddr: 0x100001998, symSize: 0x24 }
  - { offsetInCU: 0x23A9, offset: 0x23A9, size: 0x8, addend: 0x0, symName: __ZN5Eigen8internal12aligned_freeEPv, symObjAddr: 0x11E4, symBinAddr: 0x1000019BC, symSize: 0x24 }
  - { offsetInCU: 0x23D8, offset: 0x23D8, size: 0x8, addend: 0x0, symName: __ZN5Eigen8internal31conditional_aligned_delete_autoIfLb1EEEvPT_m, symObjAddr: 0x1398, symBinAddr: 0x100001B70, symSize: 0x28 }
  - { offsetInCU: 0x2481, offset: 0x2481, size: 0x8, addend: 0x0, symName: __ZN5Eigen8internal19throw_std_bad_allocEv, symObjAddr: 0x1874, symBinAddr: 0x10000204C, symSize: 0x34 }
  - { offsetInCU: 0x24BD, offset: 0x24BD, size: 0x8, addend: 0x0, symName: __ZN5Eigen8internal28conditional_aligned_new_autoIfLb1EEEPT_m, symObjAddr: 0x18A8, symBinAddr: 0x100002080, symSize: 0x84 }
  - { offsetInCU: 0x252B, offset: 0x252B, size: 0x8, addend: 0x0, symName: __ZN5Eigen8internal26conditional_aligned_mallocILb1EEEPvm, symObjAddr: 0x192C, symBinAddr: 0x100002104, symSize: 0x24 }
  - { offsetInCU: 0x2561, offset: 0x2561, size: 0x8, addend: 0x0, symName: __ZN5Eigen8internal14aligned_mallocEm, symObjAddr: 0x1950, symBinAddr: 0x100002128, symSize: 0xDC }
  - { offsetInCU: 0x25A2, offset: 0x25A2, size: 0x8, addend: 0x0, symName: __ZN5Eigen8internal28check_that_malloc_is_allowedEv, symObjAddr: 0x1A2C, symBinAddr: 0x100002204, symSize: 0x4 }
  - { offsetInCU: 0x25BB, offset: 0x25BB, size: 0x8, addend: 0x0, symName: __ZN5Eigen8internal13convert_indexIilEET_RKT0_, symObjAddr: 0x1FF4, symBinAddr: 0x1000027CC, symSize: 0x1C }
  - { offsetInCU: 0x261C, offset: 0x261C, size: 0x8, addend: 0x0, symName: __ZN5Eigen8internal28conditional_aligned_new_autoIiLb1EEEPT_m, symObjAddr: 0x25B4, symBinAddr: 0x100002D8C, symSize: 0x84 }
  - { offsetInCU: 0x268A, offset: 0x268A, size: 0x8, addend: 0x0, symName: __ZN5Eigen8internal24call_assignment_no_aliasINS_5ArrayIiLin1ELi1ELi0ELin1ELi1EEENS_14CwiseNullaryOpINS0_12linspaced_opIiEES3_EENS0_9assign_opIiiEEEEvRT_RKT0_RKT1_, symObjAddr: 0x2638, symBinAddr: 0x100002E10, symSize: 0x3C }
  - { offsetInCU: 0x27B8, offset: 0x27B8, size: 0x8, addend: 0x0, symName: __ZN5Eigen8internal18check_for_aliasingINS_5ArrayIiLin1ELi1ELi0ELin1ELi1EEENS_14CwiseNullaryOpINS0_12linspaced_opIiEES3_EEEEvRKT_RKT0_, symObjAddr: 0x26F4, symBinAddr: 0x100002ECC, symSize: 0x14 }
  - { offsetInCU: 0x2803, offset: 0x2803, size: 0x8, addend: 0x0, symName: __ZN5Eigen8internal26call_dense_assignment_loopINS_5ArrayIiLin1ELi1ELi0ELin1ELi1EEENS_14CwiseNullaryOpINS0_12linspaced_opIiEES3_EENS0_9assign_opIiiEEEEvRT_RKT0_RKT1_, symObjAddr: 0x2708, symBinAddr: 0x100002EE0, symSize: 0xE0 }
  - { offsetInCU: 0x2A06, offset: 0x2A06, size: 0x8, addend: 0x0, symName: __ZN5Eigen8internal17resize_if_allowedINS_5ArrayIiLin1ELi1ELi0ELin1ELi1EEENS_14CwiseNullaryOpINS0_12linspaced_opIiEES3_EEiiEEvRT_RKT0_RKNS0_9assign_opIT1_T2_EE, symObjAddr: 0x281C, symBinAddr: 0x100002FF4, symSize: 0xF8 }
  - { offsetInCU: 0x2D30, offset: 0x2D30, size: 0x8, addend: 0x0, symName: __ZN5Eigen8internal22ignore_unused_variableIlEEvRKT_, symObjAddr: 0x2CE8, symBinAddr: 0x1000034C0, symSize: 0x10 }
  - { offsetInCU: 0x2D5F, offset: 0x2D5F, size: 0x8, addend: 0x0, symName: __ZN5Eigen8internal24call_assignment_no_aliasINS_5ArrayIiLin1ELin1ELi0ELin1ELin1EEENS_9TransposeIKNS_9ReplicateINS2_IiLin1ELi1ELi0ELin1ELi1EEELin1ELin1EEEEENS0_9assign_opIiiEEEEvRT_RKT0_RKT1_, symObjAddr: 0x3848, symBinAddr: 0x100004020, symSize: 0x3C }
  - { offsetInCU: 0x2E2D, offset: 0x2E2D, size: 0x8, addend: 0x0, symName: __ZN5Eigen8internal18check_for_aliasingINS_5ArrayIiLin1ELin1ELi0ELin1ELin1EEENS_9TransposeIKNS_9ReplicateINS2_IiLin1ELi1ELi0ELin1ELi1EEELin1ELin1EEEEEEEvRKT_RKT0_, symObjAddr: 0x38D8, symBinAddr: 0x1000040B0, symSize: 0x60 }
  - { offsetInCU: 0x2E78, offset: 0x2E78, size: 0x8, addend: 0x0, symName: __ZN5Eigen8internal26call_dense_assignment_loopINS_5ArrayIiLin1ELin1ELi0ELin1ELin1EEENS_9TransposeIKNS_9ReplicateINS2_IiLin1ELi1ELi0ELin1ELi1EEELin1ELin1EEEEENS0_9assign_opIiiEEEEvRT_RKT0_RKT1_, symObjAddr: 0x3938, symBinAddr: 0x100004110, symSize: 0xE0 }
  - { offsetInCU: 0x3453, offset: 0x3453, size: 0x8, addend: 0x0, symName: __ZN5Eigen8internal17resize_if_allowedINS_5ArrayIiLin1ELin1ELi0ELin1ELin1EEENS_9TransposeIKNS_9ReplicateINS2_IiLin1ELi1ELi0ELin1ELi1EEELin1ELin1EEEEEiiEEvRT_RKT0_RKNS0_9assign_opIT1_T2_EE, symObjAddr: 0x3C28, symBinAddr: 0x100004400, symSize: 0xF8 }
  - { offsetInCU: 0x377D, offset: 0x377D, size: 0x8, addend: 0x0, symName: __ZN5Eigen8internal12print_matrixINS_5ArrayIiLin1ELin1ELi0ELin1ELin1EEEEERNSt3__113basic_ostreamIcNS4_11char_traitsIcEEEES9_RKT_RKNS_8IOFormatE, symObjAddr: 0x5374, symBinAddr: 0x100005B4C, symSize: 0x574 }
  - { offsetInCU: 0x38AE, offset: 0x38AE, size: 0x8, addend: 0x0, symName: __ZN5Eigen8internal24call_assignment_no_aliasINS_5ArrayIiLin1ELin1ELi0ELin1ELin1EEENS_9ReplicateINS_6MatrixIiLin1ELi1ELi0ELin1ELi1EEELin1ELin1EEENS0_9assign_opIiiEEEEvRT_RKT0_RKT1_, symObjAddr: 0x6B50, symBinAddr: 0x100007328, symSize: 0x3C }
  - { offsetInCU: 0x397C, offset: 0x397C, size: 0x8, addend: 0x0, symName: __ZN5Eigen8internal18check_for_aliasingINS_5ArrayIiLin1ELin1ELi0ELin1ELin1EEENS_9ReplicateINS_6MatrixIiLin1ELi1ELi0ELin1ELi1EEELin1ELin1EEEEEvRKT_RKT0_, symObjAddr: 0x6BCC, symBinAddr: 0x1000073A4, symSize: 0x60 }
  - { offsetInCU: 0x39C7, offset: 0x39C7, size: 0x8, addend: 0x0, symName: __ZN5Eigen8internal26call_dense_assignment_loopINS_5ArrayIiLin1ELin1ELi0ELin1ELin1EEENS_9ReplicateINS_6MatrixIiLin1ELi1ELi0ELin1ELi1EEELin1ELin1EEENS0_9assign_opIiiEEEEvRT_RKT0_RKT1_, symObjAddr: 0x6C2C, symBinAddr: 0x100007404, symSize: 0xD8 }
  - { offsetInCU: 0x3E20, offset: 0x3E20, size: 0x8, addend: 0x0, symName: __ZN5Eigen8internal17resize_if_allowedINS_5ArrayIiLin1ELin1ELi0ELin1ELin1EEENS_9ReplicateINS_6MatrixIiLin1ELi1ELi0ELin1ELi1EEELin1ELin1EEEiiEEvRT_RKT0_RKNS0_9assign_opIT1_T2_EE, symObjAddr: 0x6D4C, symBinAddr: 0x100007524, symSize: 0xF8 }
  - { offsetInCU: 0x40F8, offset: 0x40F8, size: 0x8, addend: 0x0, symName: __ZN5Eigen8internal15call_assignmentINS_6MatrixIfLin1ELin1ELi0ELin1ELin1EEENS_12CwiseUnaryOpINS0_14scalar_cast_opIifEEKNS_13CwiseBinaryOpINS0_13scalar_sum_opIiiEEKNS_5ArrayIiLin1ELin1ELi0ELin1ELin1EEESC_EEEEEEvRT_RKT0_, symObjAddr: 0x7A00, symBinAddr: 0x1000081D8, symSize: 0x50 }
  - { offsetInCU: 0x4143, offset: 0x4143, size: 0x8, addend: 0x0, symName: __ZN5Eigen8internal15call_assignmentINS_6MatrixIfLin1ELin1ELi0ELin1ELin1EEENS_12CwiseUnaryOpINS0_14scalar_cast_opIifEEKNS_13CwiseBinaryOpINS0_13scalar_sum_opIiiEEKNS_5ArrayIiLin1ELin1ELi0ELin1ELin1EEESC_EEEENS0_9assign_opIffEEEEvRT_RKT0_RKT1_NS0_9enable_ifIXntsr25evaluator_assume_aliasingISK_EE5valueEPvE4typeE, symObjAddr: 0x7A78, symBinAddr: 0x100008250, symSize: 0x38 }
  - { offsetInCU: 0x4207, offset: 0x4207, size: 0x8, addend: 0x0, symName: __ZN5Eigen8internal24call_assignment_no_aliasINS_6MatrixIfLin1ELin1ELi0ELin1ELin1EEENS_12CwiseUnaryOpINS0_14scalar_cast_opIifEEKNS_13CwiseBinaryOpINS0_13scalar_sum_opIiiEEKNS_5ArrayIiLin1ELin1ELi0ELin1ELin1EEESC_EEEENS0_9assign_opIffEEEEvRT_RKT0_RKT1_, symObjAddr: 0x7ADC, symBinAddr: 0x1000082B4, symSize: 0x3C }
  - { offsetInCU: 0x42D5, offset: 0x42D5, size: 0x8, addend: 0x0, symName: __ZN5Eigen8internal18check_for_aliasingINS_6MatrixIfLin1ELin1ELi0ELin1ELin1EEENS_12CwiseUnaryOpINS0_14scalar_cast_opIifEEKNS_13CwiseBinaryOpINS0_13scalar_sum_opIiiEEKNS_5ArrayIiLin1ELin1ELi0ELin1ELin1EEESC_EEEEEEvRKT_RKT0_, symObjAddr: 0x7B58, symBinAddr: 0x100008330, symSize: 0x60 }
  - { offsetInCU: 0x4320, offset: 0x4320, size: 0x8, addend: 0x0, symName: __ZN5Eigen8internal26call_dense_assignment_loopINS_6MatrixIfLin1ELin1ELi0ELin1ELin1EEENS_12CwiseUnaryOpINS0_14scalar_cast_opIifEEKNS_13CwiseBinaryOpINS0_13scalar_sum_opIiiEEKNS_5ArrayIiLin1ELin1ELi0ELin1ELin1EEESC_EEEENS0_9assign_opIffEEEEvRT_RKT0_RKT1_, symObjAddr: 0x7BB8, symBinAddr: 0x100008390, symSize: 0xE0 }
  - { offsetInCU: 0x47D8, offset: 0x47D8, size: 0x8, addend: 0x0, symName: __ZN5Eigen8internal17resize_if_allowedINS_6MatrixIfLin1ELin1ELi0ELin1ELin1EEENS_12CwiseUnaryOpINS0_14scalar_cast_opIifEEKNS_13CwiseBinaryOpINS0_13scalar_sum_opIiiEEKNS_5ArrayIiLin1ELin1ELi0ELin1ELin1EEESC_EEEEffEEvRT_RKT0_RKNS0_9assign_opIT1_T2_EE, symObjAddr: 0x7D58, symBinAddr: 0x100008530, symSize: 0xF8 }
  - { offsetInCU: 0x4B02, offset: 0x4B02, size: 0x8, addend: 0x0, symName: __ZN5Eigen8internal4castIifEET0_RKT_, symObjAddr: 0x8994, symBinAddr: 0x10000916C, symSize: 0x24 }
  - { offsetInCU: 0x4B7A, offset: 0x4B7A, size: 0x8, addend: 0x0, symName: __ZN5Eigen8internal22ignore_unused_variableIbEEvRKT_, symObjAddr: 0x8DB4, symBinAddr: 0x10000958C, symSize: 0x10 }
  - { offsetInCU: 0x4BA9, offset: 0x4BA9, size: 0x8, addend: 0x0, symName: __ZN5Eigen8internal12print_matrixINS_6MatrixIfLin1ELin1ELi0ELin1ELin1EEEEERNSt3__113basic_ostreamIcNS4_11char_traitsIcEEEES9_RKT_RKNS_8IOFormatE, symObjAddr: 0x910C, symBinAddr: 0x1000098E4, symSize: 0x580 }
  - { offsetInCU: 0x4E78, offset: 0x4E78, size: 0x8, addend: 0x0, symName: __ZN5EigenL6lastp1E, symObjAddr: 0xC47E9, symBinAddr: 0x100010001, symSize: 0x0 }
  - { offsetInCU: 0x4E91, offset: 0x4E91, size: 0x8, addend: 0x0, symName: __ZN5EigenL3allE, symObjAddr: 0xC47EC, symBinAddr: 0x100010004, symSize: 0x0 }
  - { offsetInCU: 0x4EAA, offset: 0x4EAA, size: 0x8, addend: 0x0, symName: __ZN5EigenL3fixILi1EEE, symObjAddr: 0xC47EB, symBinAddr: 0x100010003, symSize: 0x0 }
  - { offsetInCU: 0x183F8, offset: 0x183F8, size: 0x8, addend: 0x0, symName: __ZN5EigenlsINS_5ArrayIiLin1ELin1ELi0ELin1ELin1EEEEERNSt3__113basic_ostreamIcNS3_11char_traitsIcEEEES8_RKNS_9DenseBaseIT_EE, symObjAddr: 0x510, symBinAddr: 0x100000CE8, symSize: 0x208 }
  - { offsetInCU: 0x1843B, offset: 0x1843B, size: 0x8, addend: 0x0, symName: __ZN5EigenlsINS_6MatrixIfLin1ELin1ELi0ELin1ELin1EEEEERNSt3__113basic_ostreamIcNS3_11char_traitsIcEEEES8_RKNS_9DenseBaseIT_EE, symObjAddr: 0xD68, symBinAddr: 0x100001540, symSize: 0x208 }
  - { offsetInCU: 0x1BC6A, offset: 0x1BC6A, size: 0x8, addend: 0x0, symName: __ZNSt3__124__put_character_sequenceB8ue170006IcNS_11char_traitsIcEEEERNS_13basic_ostreamIT_T0_EES7_PKS4_m, symObjAddr: 0x4894, symBinAddr: 0x10000506C, symSize: 0x1EC }
  - { offsetInCU: 0x1DA02, offset: 0x1DA02, size: 0x8, addend: 0x0, symName: __ZNSt3__1lsB8ue170006INS_11char_traitsIcEEEERNS_13basic_ostreamIcT_EES6_PKc, symObjAddr: 0x718, symBinAddr: 0x100000EF0, symSize: 0x48 }
  - { offsetInCU: 0x1DA48, offset: 0x1DA48, size: 0x8, addend: 0x0, symName: __ZNSt3__14endlB8ue170006IcNS_11char_traitsIcEEEERNS_13basic_ostreamIT_T0_EES7_, symObjAddr: 0x78C, symBinAddr: 0x100000F64, symSize: 0x58 }
  - { offsetInCU: 0x1DA88, offset: 0x1DA88, size: 0x8, addend: 0x0, symName: __ZNSt3__116__pad_and_outputB8ue170006IcNS_11char_traitsIcEEEENS_19ostreambuf_iteratorIT_T0_EES6_PKS4_S8_S8_RNS_8ios_baseES4_, symObjAddr: 0x4AD0, symBinAddr: 0x1000052A8, symSize: 0x240 }
  - { offsetInCU: 0x1DB57, offset: 0x1DB57, size: 0x8, addend: 0x0, symName: __ZNSt3__112__to_addressB8ue170006IKcEEPT_S3_, symObjAddr: 0x5038, symBinAddr: 0x100005810, symSize: 0x14 }
  - { offsetInCU: 0x1DBBF, offset: 0x1DBBF, size: 0x8, addend: 0x0, symName: __ZNSt3__19use_facetB8ue170006INS_5ctypeIcEEEERKT_RKNS_6localeE, symObjAddr: 0x52B8, symBinAddr: 0x100005A90, symSize: 0x2C }
  - { offsetInCU: 0x1E08C, offset: 0x1E08C, size: 0x8, addend: 0x0, symName: __ZNSt3__118__constexpr_strlenB8ue170006EPKc, symObjAddr: 0x5350, symBinAddr: 0x100005B28, symSize: 0x24 }
  - { offsetInCU: 0x1E0B8, offset: 0x1E0B8, size: 0x8, addend: 0x0, symName: __ZNSt3__1lsB8ue170006IcNS_11char_traitsIcEENS_9allocatorIcEEEERNS_13basic_ostreamIT_T0_EES9_RKNS_12basic_stringIS6_S7_T1_EE, symObjAddr: 0x5A38, symBinAddr: 0x100006210, symSize: 0x4C }
  - { offsetInCU: 0x1EA4C, offset: 0x1EA4C, size: 0x8, addend: 0x0, symName: __ZNSt3__13maxB8ue170006IlEERKT_S3_S3_, symObjAddr: 0x5C20, symBinAddr: 0x1000063F8, symSize: 0x2C }
  - { offsetInCU: 0x1EA9A, offset: 0x1EA9A, size: 0x8, addend: 0x0, symName: __ZNSt3__13maxB8ue170006IlNS_6__lessIvvEEEERKT_S5_S5_T0_, symObjAddr: 0x6174, symBinAddr: 0x10000694C, symSize: 0x54 }
  - { offsetInCU: 0x22D32, offset: 0x22D32, size: 0x8, addend: 0x0, symName: __ZN5Eigen8symbolic10SymbolExprINS_8internal17symbolic_last_tagEEC1Ev, symObjAddr: 0x0, symBinAddr: 0x1000007D8, symSize: 0x2C }
  - { offsetInCU: 0x22D5C, offset: 0x22D5C, size: 0x8, addend: 0x0, symName: __ZNK5Eigen8symbolic8BaseExprINS0_10SymbolExprINS_8internal17symbolic_last_tagEEEEplILi1EEENS0_7AddExprIS5_NS0_9ValueExprINS3_8FixedIntIXT_EEEEEEESB_, symObjAddr: 0x2C, symBinAddr: 0x100000804, symSize: 0x48 }
  - { offsetInCU: 0x22D97, offset: 0x22D97, size: 0x8, addend: 0x0, symName: __ZNK5Eigen8internal8FixedIntILi1EEclEv, symObjAddr: 0x74, symBinAddr: 0x10000084C, symSize: 0x10 }
  - { offsetInCU: 0x22DBD, offset: 0x22DBD, size: 0x8, addend: 0x0, symName: __ZN5Eigen8internal5all_tC1Ev, symObjAddr: 0x84, symBinAddr: 0x10000085C, symSize: 0x2C }
  - { offsetInCU: 0x22DE6, offset: 0x22DE6, size: 0x8, addend: 0x0, symName: __Z17generateAgeMatrixRKN5Eigen6MatrixIiLin1ELi1ELi0ELin1ELi1EEEi, symObjAddr: 0xB0, symBinAddr: 0x100000888, symSize: 0x2A8 }
  - { offsetInCU: 0x22E6F, offset: 0x22E6F, size: 0x8, addend: 0x0, symName: __ZNK5Eigen9EigenBaseINS_6MatrixIiLin1ELi1ELi0ELin1ELi1EEEE4sizeEv, symObjAddr: 0x358, symBinAddr: 0x100000B30, symSize: 0x44 }
  - { offsetInCU: 0x22E95, offset: 0x22E95, size: 0x8, addend: 0x0, symName: __ZN5Eigen6MatrixIfLin1ELin1ELi0ELin1ELin1EEC1IiiEERKT_RKT0_, symObjAddr: 0x39C, symBinAddr: 0x100000B74, symSize: 0x3C }
  - { offsetInCU: 0x22EEF, offset: 0x22EEF, size: 0x8, addend: 0x0, symName: __ZN5Eigen9DenseBaseINS_5ArrayIiLin1ELi1ELi0ELin1ELi1EEEE9LinSpacedElRKiS5_, symObjAddr: 0x3D8, symBinAddr: 0x100000BB0, symSize: 0x58 }
  - { offsetInCU: 0x22F39, offset: 0x22F39, size: 0x8, addend: 0x0, symName: __ZN5Eigen5ArrayIiLin1ELi1ELi0ELin1ELi1EEC1INS_14CwiseNullaryOpINS_8internal12linspaced_opIiEES1_EEEERKNS_9EigenBaseIT_EENS4_9enable_ifIXsr8internal14is_convertibleINS9_6ScalarEiEE5valueENS1_11PrivateTypeEE4typeE, symObjAddr: 0x430, symBinAddr: 0x100000C08, symSize: 0x34 }
  - { offsetInCU: 0x22F86, offset: 0x22F86, size: 0x8, addend: 0x0, symName: __ZNK5Eigen9DenseBaseINS_5ArrayIiLin1ELi1ELi0ELin1ELi1EEEE9replicateEll, symObjAddr: 0x464, symBinAddr: 0x100000C3C, symSize: 0x44 }
  - { offsetInCU: 0x22FCA, offset: 0x22FCA, size: 0x8, addend: 0x0, symName: __ZNK5Eigen9DenseBaseINS_9ReplicateINS_5ArrayIiLin1ELi1ELi0ELin1ELi1EEELin1ELin1EEEE9transposeEv, symObjAddr: 0x4A8, symBinAddr: 0x100000C80, symSize: 0x34 }
  - { offsetInCU: 0x22FF7, offset: 0x22FF7, size: 0x8, addend: 0x0, symName: __ZN5Eigen5ArrayIiLin1ELin1ELi0ELin1ELin1EEC1INS_9TransposeIKNS_9ReplicateINS0_IiLin1ELi1ELi0ELin1ELi1EEELin1ELin1EEEEEEERKNS_9EigenBaseIT_EENS_8internal9enable_ifIXsr8internal14is_convertibleINSA_6ScalarEiEE5valueENS1_11PrivateTypeEE4typeE, symObjAddr: 0x4DC, symBinAddr: 0x100000CB4, symSize: 0x34 }
  - { offsetInCU: 0x23044, offset: 0x23044, size: 0x8, addend: 0x0, symName: __ZNSt3__113basic_ostreamIcNS_11char_traitsIcEEElsB8ue170006EPFRS3_S4_E, symObjAddr: 0x760, symBinAddr: 0x100000F38, symSize: 0x2C }
  - { offsetInCU: 0x23078, offset: 0x23078, size: 0x8, addend: 0x0, symName: __ZNK5Eigen9DenseBaseINS_6MatrixIiLin1ELi1ELi0ELin1ELi1EEEE9replicateEll, symObjAddr: 0x7E4, symBinAddr: 0x100000FBC, symSize: 0x44 }
  - { offsetInCU: 0x230C1, offset: 0x230C1, size: 0x8, addend: 0x0, symName: __ZN5Eigen5ArrayIiLin1ELin1ELi0ELin1ELin1EEC1INS_9ReplicateINS_6MatrixIiLin1ELi1ELi0ELin1ELi1EEELin1ELin1EEEEERKNS_9EigenBaseIT_EENS_8internal9enable_ifIXsr8internal14is_convertibleINS8_6ScalarEiEE5valueENS1_11PrivateTypeEE4typeE, symObjAddr: 0x828, symBinAddr: 0x100001000, symSize: 0x34 }
  - { offsetInCU: 0x2310E, offset: 0x2310E, size: 0x8, addend: 0x0, symName: __ZNK5Eigen9ArrayBaseINS_5ArrayIiLin1ELin1ELi0ELin1ELin1EEEEplIS2_EEKNS_13CwiseBinaryOpINS_8internal13scalar_sum_opIiNS6_6traitsIT_E6ScalarEEEKS2_KS9_EERKNS0_IS9_EE, symObjAddr: 0x85C, symBinAddr: 0x100001034, symSize: 0x60 }
  - { offsetInCU: 0x2314B, offset: 0x2314B, size: 0x8, addend: 0x0, symName: __ZNK5Eigen9DenseBaseINS_13CwiseBinaryOpINS_8internal13scalar_sum_opIiiEEKNS_5ArrayIiLin1ELin1ELi0ELin1ELin1EEES7_EEE4castIfEENS9_7CastXprIT_E4TypeEv, symObjAddr: 0x8BC, symBinAddr: 0x100001094, symSize: 0x4C }
  - { offsetInCU: 0x2317A, offset: 0x2317A, size: 0x8, addend: 0x0, symName: __ZN5Eigen6MatrixIfLin1ELin1ELi0ELin1ELin1EEaSINS_12CwiseUnaryOpINS_8internal14scalar_cast_opIifEEKNS_13CwiseBinaryOpINS4_13scalar_sum_opIiiEEKNS_5ArrayIiLin1ELin1ELi0ELin1ELin1EEESC_EEEEEERS1_RKNS_9DenseBaseIT_EE, symObjAddr: 0x908, symBinAddr: 0x1000010E0, symSize: 0x2C }
  - { offsetInCU: 0x231B7, offset: 0x231B7, size: 0x8, addend: 0x0, symName: __ZN5Eigen5ArrayIiLin1ELin1ELi0ELin1ELin1EED1Ev, symObjAddr: 0x934, symBinAddr: 0x10000110C, symSize: 0x2C }
  - { offsetInCU: 0x231E3, offset: 0x231E3, size: 0x8, addend: 0x0, symName: __ZN5Eigen5ArrayIiLin1ELi1ELi0ELin1ELi1EED1Ev, symObjAddr: 0x960, symBinAddr: 0x100001138, symSize: 0x2C }
  - { offsetInCU: 0x2320F, offset: 0x2320F, size: 0x8, addend: 0x0, symName: __ZN5Eigen6MatrixIfLin1ELin1ELi0ELin1ELin1EED1Ev, symObjAddr: 0x98C, symBinAddr: 0x100001164, symSize: 0x2C }
  - { offsetInCU: 0x2323B, offset: 0x2323B, size: 0x8, addend: 0x0, symName: _main, symObjAddr: 0x9B8, symBinAddr: 0x100001190, symSize: 0x158 }
  - { offsetInCU: 0x23281, offset: 0x23281, size: 0x8, addend: 0x0, symName: __ZN5Eigen6MatrixIiLin1ELi1ELi0ELin1ELi1EEC1IiEERKT_, symObjAddr: 0xB10, symBinAddr: 0x1000012E8, symSize: 0x34 }
  - { offsetInCU: 0x232C3, offset: 0x232C3, size: 0x8, addend: 0x0, symName: __ZN5Eigen9DenseBaseINS_6MatrixIiLin1ELi1ELi0ELin1ELi1EEEElsERKi, symObjAddr: 0xB44, symBinAddr: 0x10000131C, symSize: 0x40 }
  - { offsetInCU: 0x232FA, offset: 0x232FA, size: 0x8, addend: 0x0, symName: __ZN5Eigen16CommaInitializerINS_6MatrixIiLin1ELi1ELi0ELin1ELi1EEEEcmERKi, symObjAddr: 0xB84, symBinAddr: 0x10000135C, symSize: 0x1B8 }
  - { offsetInCU: 0x2332E, offset: 0x2332E, size: 0x8, addend: 0x0, symName: __ZN5Eigen16CommaInitializerINS_6MatrixIiLin1ELi1ELi0ELin1ELi1EEEED1Ev, symObjAddr: 0xD3C, symBinAddr: 0x100001514, symSize: 0x2C }
  - { offsetInCU: 0x23358, offset: 0x23358, size: 0x8, addend: 0x0, symName: __ZN5Eigen6MatrixIiLin1ELi1ELi0ELin1ELi1EED1Ev, symObjAddr: 0xF70, symBinAddr: 0x100001748, symSize: 0x2C }
  - { offsetInCU: 0x23384, offset: 0x23384, size: 0x8, addend: 0x0, symName: __ZN5Eigen8internal8FixedIntILi1EEC1Ev, symObjAddr: 0xF9C, symBinAddr: 0x100001774, symSize: 0x2C }
  - { offsetInCU: 0x233AE, offset: 0x233AE, size: 0x8, addend: 0x0, symName: __ZN5Eigen8internal5all_tC2Ev, symObjAddr: 0xFC8, symBinAddr: 0x1000017A0, symSize: 0x14 }
  - { offsetInCU: 0x233D8, offset: 0x233D8, size: 0x8, addend: 0x0, symName: __ZNK5Eigen9EigenBaseINS_6MatrixIiLin1ELi1ELi0ELin1ELi1EEEE4rowsEv, symObjAddr: 0xFDC, symBinAddr: 0x1000017B4, symSize: 0x38 }
  - { offsetInCU: 0x233FE, offset: 0x233FE, size: 0x8, addend: 0x0, symName: __ZNK5Eigen9EigenBaseINS_6MatrixIiLin1ELi1ELi0ELin1ELi1EEEE4colsEv, symObjAddr: 0x1014, symBinAddr: 0x1000017EC, symSize: 0x28 }
  - { offsetInCU: 0x23424, offset: 0x23424, size: 0x8, addend: 0x0, symName: __ZNK5Eigen9EigenBaseINS_6MatrixIiLin1ELi1ELi0ELin1ELi1EEEE7derivedEv, symObjAddr: 0x103C, symBinAddr: 0x100001814, symSize: 0x14 }
  - { offsetInCU: 0x2344A, offset: 0x2344A, size: 0x8, addend: 0x0, symName: __ZNK5Eigen15PlainObjectBaseINS_6MatrixIiLin1ELi1ELi0ELin1ELi1EEEE4rowsEv, symObjAddr: 0x105C, symBinAddr: 0x100001834, symSize: 0x24 }
  - { offsetInCU: 0x23470, offset: 0x23470, size: 0x8, addend: 0x0, symName: __ZNK5Eigen12DenseStorageIiLin1ELin1ELi1ELi0EE4rowsEv, symObjAddr: 0x1080, symBinAddr: 0x100001858, symSize: 0x18 }
  - { offsetInCU: 0x23496, offset: 0x23496, size: 0x8, addend: 0x0, symName: __ZNK5Eigen15PlainObjectBaseINS_6MatrixIiLin1ELi1ELi0ELin1ELi1EEEE4colsEv, symObjAddr: 0x1098, symBinAddr: 0x100001870, symSize: 0x30 }
  - { offsetInCU: 0x234BC, offset: 0x234BC, size: 0x8, addend: 0x0, symName: __ZN5Eigen12DenseStorageIiLin1ELin1ELi1ELi0EE4colsEv, symObjAddr: 0x10C8, symBinAddr: 0x1000018A0, symSize: 0x8 }
  - { offsetInCU: 0x234D0, offset: 0x234D0, size: 0x8, addend: 0x0, symName: __ZN5Eigen5ArrayIiLin1ELin1ELi0ELin1ELin1EED2Ev, symObjAddr: 0x10D0, symBinAddr: 0x1000018A8, symSize: 0x2C }
  - { offsetInCU: 0x234FC, offset: 0x234FC, size: 0x8, addend: 0x0, symName: __ZN5Eigen15PlainObjectBaseINS_5ArrayIiLin1ELin1ELi0ELin1ELin1EEEED2Ev, symObjAddr: 0x10FC, symBinAddr: 0x1000018D4, symSize: 0x2C }
  - { offsetInCU: 0x23528, offset: 0x23528, size: 0x8, addend: 0x0, symName: __ZN5Eigen12DenseStorageIiLin1ELin1ELin1ELi0EED1Ev, symObjAddr: 0x1128, symBinAddr: 0x100001900, symSize: 0x2C }
  - { offsetInCU: 0x23552, offset: 0x23552, size: 0x8, addend: 0x0, symName: __ZN5Eigen12DenseStorageIiLin1ELin1ELin1ELi0EED2Ev, symObjAddr: 0x1154, symBinAddr: 0x10000192C, symSize: 0x44 }
  - { offsetInCU: 0x2357C, offset: 0x2357C, size: 0x8, addend: 0x0, symName: __ZN5Eigen5ArrayIiLin1ELi1ELi0ELin1ELi1EED2Ev, symObjAddr: 0x1208, symBinAddr: 0x1000019E0, symSize: 0x2C }
  - { offsetInCU: 0x235A8, offset: 0x235A8, size: 0x8, addend: 0x0, symName: __ZN5Eigen15PlainObjectBaseINS_5ArrayIiLin1ELi1ELi0ELin1ELi1EEEED2Ev, symObjAddr: 0x1234, symBinAddr: 0x100001A0C, symSize: 0x2C }
  - { offsetInCU: 0x235D4, offset: 0x235D4, size: 0x8, addend: 0x0, symName: __ZN5Eigen12DenseStorageIiLin1ELin1ELi1ELi0EED1Ev, symObjAddr: 0x1260, symBinAddr: 0x100001A38, symSize: 0x2C }
  - { offsetInCU: 0x235FE, offset: 0x235FE, size: 0x8, addend: 0x0, symName: __ZN5Eigen12DenseStorageIiLin1ELin1ELi1ELi0EED2Ev, symObjAddr: 0x128C, symBinAddr: 0x100001A64, symSize: 0x44 }
  - { offsetInCU: 0x23628, offset: 0x23628, size: 0x8, addend: 0x0, symName: __ZN5Eigen6MatrixIfLin1ELin1ELi0ELin1ELin1EED2Ev, symObjAddr: 0x12D0, symBinAddr: 0x100001AA8, symSize: 0x2C }
  - { offsetInCU: 0x23654, offset: 0x23654, size: 0x8, addend: 0x0, symName: __ZN5Eigen15PlainObjectBaseINS_6MatrixIfLin1ELin1ELi0ELin1ELin1EEEED2Ev, symObjAddr: 0x12FC, symBinAddr: 0x100001AD4, symSize: 0x2C }
  - { offsetInCU: 0x23680, offset: 0x23680, size: 0x8, addend: 0x0, symName: __ZN5Eigen12DenseStorageIfLin1ELin1ELin1ELi0EED1Ev, symObjAddr: 0x1328, symBinAddr: 0x100001B00, symSize: 0x2C }
  - { offsetInCU: 0x236AA, offset: 0x236AA, size: 0x8, addend: 0x0, symName: __ZN5Eigen12DenseStorageIfLin1ELin1ELin1ELi0EED2Ev, symObjAddr: 0x1354, symBinAddr: 0x100001B2C, symSize: 0x44 }
  - { offsetInCU: 0x236D4, offset: 0x236D4, size: 0x8, addend: 0x0, symName: __ZN5Eigen6MatrixIiLin1ELi1ELi0ELin1ELi1EED2Ev, symObjAddr: 0x13C0, symBinAddr: 0x100001B98, symSize: 0x2C }
  - { offsetInCU: 0x23700, offset: 0x23700, size: 0x8, addend: 0x0, symName: __ZN5Eigen15PlainObjectBaseINS_6MatrixIiLin1ELi1ELi0ELin1ELi1EEEED2Ev, symObjAddr: 0x13EC, symBinAddr: 0x100001BC4, symSize: 0x2C }
  - { offsetInCU: 0x2372C, offset: 0x2372C, size: 0x8, addend: 0x0, symName: __ZN5Eigen8symbolic10SymbolExprINS_8internal17symbolic_last_tagEEC2Ev, symObjAddr: 0x1418, symBinAddr: 0x100001BF0, symSize: 0x14 }
  - { offsetInCU: 0x23756, offset: 0x23756, size: 0x8, addend: 0x0, symName: __ZN5Eigen8internal8FixedIntILi1EEC2Ev, symObjAddr: 0x142C, symBinAddr: 0x100001C04, symSize: 0x14 }
  - { offsetInCU: 0x23780, offset: 0x23780, size: 0x8, addend: 0x0, symName: __ZNK5Eigen8symbolic8BaseExprINS0_10SymbolExprINS_8internal17symbolic_last_tagEEEE7derivedEv, symObjAddr: 0x1440, symBinAddr: 0x100001C18, symSize: 0x14 }
  - { offsetInCU: 0x237A6, offset: 0x237A6, size: 0x8, addend: 0x0, symName: __ZN5Eigen8symbolic9ValueExprINS_8internal8FixedIntILi1EEEEC1Ev, symObjAddr: 0x1454, symBinAddr: 0x100001C2C, symSize: 0x2C }
  - { offsetInCU: 0x237D0, offset: 0x237D0, size: 0x8, addend: 0x0, symName: __ZN5Eigen8symbolic7AddExprINS0_10SymbolExprINS_8internal17symbolic_last_tagEEENS0_9ValueExprINS3_8FixedIntILi1EEEEEEC1ERKS5_RKS9_, symObjAddr: 0x1480, symBinAddr: 0x100001C58, symSize: 0x3C }
  - { offsetInCU: 0x23816, offset: 0x23816, size: 0x8, addend: 0x0, symName: __ZN5Eigen8symbolic9ValueExprINS_8internal8FixedIntILi1EEEEC2Ev, symObjAddr: 0x14BC, symBinAddr: 0x100001C94, symSize: 0x14 }
  - { offsetInCU: 0x23840, offset: 0x23840, size: 0x8, addend: 0x0, symName: __ZN5Eigen8symbolic7AddExprINS0_10SymbolExprINS_8internal17symbolic_last_tagEEENS0_9ValueExprINS3_8FixedIntILi1EEEEEEC2ERKS5_RKS9_, symObjAddr: 0x14D0, symBinAddr: 0x100001CA8, symSize: 0x1C }
  - { offsetInCU: 0x23886, offset: 0x23886, size: 0x8, addend: 0x0, symName: __ZN5Eigen6MatrixIfLin1ELin1ELi0ELin1ELin1EEC2IiiEERKT_RKT0_, symObjAddr: 0x14EC, symBinAddr: 0x100001CC4, symSize: 0x80 }
  - { offsetInCU: 0x238E0, offset: 0x238E0, size: 0x8, addend: 0x0, symName: __ZN5Eigen15PlainObjectBaseINS_6MatrixIfLin1ELin1ELi0ELin1ELin1EEEEC2Ev, symObjAddr: 0x156C, symBinAddr: 0x100001D44, symSize: 0x34 }
  - { offsetInCU: 0x2390A, offset: 0x2390A, size: 0x8, addend: 0x0, symName: __ZN5Eigen15PlainObjectBaseINS_6MatrixIfLin1ELin1ELi0ELin1ELin1EEEE22_check_template_paramsEv, symObjAddr: 0x15A0, symBinAddr: 0x100001D78, symSize: 0x4 }
  - { offsetInCU: 0x23923, offset: 0x23923, size: 0x8, addend: 0x0, symName: __ZN5Eigen15PlainObjectBaseINS_6MatrixIfLin1ELin1ELi0ELin1ELin1EEEE6_init2IiiEEvllPNS_8internal9enable_ifILb1ET_E4typeE, symObjAddr: 0x15A4, symBinAddr: 0x100001D7C, symSize: 0x44 }
  - { offsetInCU: 0x239A2, offset: 0x239A2, size: 0x8, addend: 0x0, symName: __ZN5Eigen10MatrixBaseINS_6MatrixIfLin1ELin1ELi0ELin1ELin1EEEEC2Ev, symObjAddr: 0x15E8, symBinAddr: 0x100001DC0, symSize: 0x2C }
  - { offsetInCU: 0x239CC, offset: 0x239CC, size: 0x8, addend: 0x0, symName: __ZN5Eigen12DenseStorageIfLin1ELin1ELin1ELi0EEC1Ev, symObjAddr: 0x1614, symBinAddr: 0x100001DEC, symSize: 0x2C }
  - { offsetInCU: 0x239F6, offset: 0x239F6, size: 0x8, addend: 0x0, symName: __ZN5Eigen9DenseBaseINS_6MatrixIfLin1ELin1ELi0ELin1ELin1EEEEC2Ev, symObjAddr: 0x1640, symBinAddr: 0x100001E18, symSize: 0x14 }
  - { offsetInCU: 0x23A20, offset: 0x23A20, size: 0x8, addend: 0x0, symName: __ZN5Eigen12DenseStorageIfLin1ELin1ELin1ELi0EEC2Ev, symObjAddr: 0x1654, symBinAddr: 0x100001E2C, symSize: 0x20 }
  - { offsetInCU: 0x23A8B, offset: 0x23A8B, size: 0x8, addend: 0x0, symName: __ZN5Eigen15PlainObjectBaseINS_6MatrixIfLin1ELin1ELi0ELin1ELin1EEEE6resizeEll, symObjAddr: 0x1674, symBinAddr: 0x100001E4C, symSize: 0x14C }
  - { offsetInCU: 0x23B07, offset: 0x23B07, size: 0x8, addend: 0x0, symName: __ZN5Eigen12DenseStorageIfLin1ELin1ELin1ELi0EE6resizeElll, symObjAddr: 0x17C0, symBinAddr: 0x100001F98, symSize: 0xB4 }
  - { offsetInCU: 0x23B5A, offset: 0x23B5A, size: 0x8, addend: 0x0, symName: __ZN5Eigen9DenseBaseINS_5ArrayIiLin1ELi1ELi0ELin1ELi1EEEE11NullaryExprINS_8internal12linspaced_opIiEEEEKNS_14CwiseNullaryOpIT_S2_EElRKS9_, symObjAddr: 0x1A30, symBinAddr: 0x100002208, symSize: 0x3C }
  - { offsetInCU: 0x23B98, offset: 0x23B98, size: 0x8, addend: 0x0, symName: __ZN5Eigen8internal12linspaced_opIiEC1ERKiS4_l, symObjAddr: 0x1A6C, symBinAddr: 0x100002244, symSize: 0x44 }
  - { offsetInCU: 0x23BEC, offset: 0x23BEC, size: 0x8, addend: 0x0, symName: __ZN5Eigen14CwiseNullaryOpINS_8internal12linspaced_opIiEENS_5ArrayIiLin1ELi1ELi0ELin1ELi1EEEEC1EllRKS3_, symObjAddr: 0x1AB0, symBinAddr: 0x100002288, symSize: 0x44 }
  - { offsetInCU: 0x23C40, offset: 0x23C40, size: 0x8, addend: 0x0, symName: __ZN5Eigen14CwiseNullaryOpINS_8internal12linspaced_opIiEENS_5ArrayIiLin1ELi1ELi0ELin1ELi1EEEEC2EllRKS3_, symObjAddr: 0x1AF4, symBinAddr: 0x1000022CC, symSize: 0xEC }
  - { offsetInCU: 0x23C94, offset: 0x23C94, size: 0x8, addend: 0x0, symName: __ZN5Eigen9ArrayBaseINS_14CwiseNullaryOpINS_8internal12linspaced_opIiEENS_5ArrayIiLin1ELi1ELi0ELin1ELi1EEEEEEC2Ev, symObjAddr: 0x1BE0, symBinAddr: 0x1000023B8, symSize: 0x2C }
  - { offsetInCU: 0x23CBE, offset: 0x23CBE, size: 0x8, addend: 0x0, symName: __ZN5Eigen8internal19variable_if_dynamicIlLin1EEC1El, symObjAddr: 0x1C0C, symBinAddr: 0x1000023E4, symSize: 0x34 }
  - { offsetInCU: 0x23CF6, offset: 0x23CF6, size: 0x8, addend: 0x0, symName: __ZN5Eigen8internal19variable_if_dynamicIlLi1EEC1El, symObjAddr: 0x1C40, symBinAddr: 0x100002418, symSize: 0x34 }
  - { offsetInCU: 0x23D2E, offset: 0x23D2E, size: 0x8, addend: 0x0, symName: __ZN5Eigen9DenseBaseINS_14CwiseNullaryOpINS_8internal12linspaced_opIiEENS_5ArrayIiLin1ELi1ELi0ELin1ELi1EEEEEEC2Ev, symObjAddr: 0x1C74, symBinAddr: 0x10000244C, symSize: 0x14 }
  - { offsetInCU: 0x23D58, offset: 0x23D58, size: 0x8, addend: 0x0, symName: __ZN5Eigen8internal19variable_if_dynamicIlLin1EEC2El, symObjAddr: 0x1C88, symBinAddr: 0x100002460, symSize: 0x20 }
  - { offsetInCU: 0x23D90, offset: 0x23D90, size: 0x8, addend: 0x0, symName: __ZN5Eigen8internal19variable_if_dynamicIlLi1EEC2El, symObjAddr: 0x1CA8, symBinAddr: 0x100002480, symSize: 0x64 }
  - { offsetInCU: 0x23DC8, offset: 0x23DC8, size: 0x8, addend: 0x0, symName: __ZN5Eigen8internal12linspaced_opIiEC2ERKiS4_l, symObjAddr: 0x1D0C, symBinAddr: 0x1000024E4, symSize: 0x78 }
  - { offsetInCU: 0x23E1C, offset: 0x23E1C, size: 0x8, addend: 0x0, symName: __ZN5Eigen8internal17linspaced_op_implIiLb1EEC1ERKiS4_l, symObjAddr: 0x1D84, symBinAddr: 0x10000255C, symSize: 0x44 }
  - { offsetInCU: 0x23E82, offset: 0x23E82, size: 0x8, addend: 0x0, symName: __ZN5Eigen8internal17linspaced_op_implIiLb1EEC2ERKiS4_l, symObjAddr: 0x1DC8, symBinAddr: 0x1000025A0, symSize: 0x22C }
  - { offsetInCU: 0x23F48, offset: 0x23F48, size: 0x8, addend: 0x0, symName: __ZN5Eigen5ArrayIiLin1ELi1ELi0ELin1ELi1EEC2INS_14CwiseNullaryOpINS_8internal12linspaced_opIiEES1_EEEERKNS_9EigenBaseIT_EENS4_9enable_ifIXsr8internal14is_convertibleINS9_6ScalarEiEE5valueENS1_11PrivateTypeEE4typeE, symObjAddr: 0x2010, symBinAddr: 0x1000027E8, symSize: 0x40 }
  - { offsetInCU: 0x23F95, offset: 0x23F95, size: 0x8, addend: 0x0, symName: __ZNK5Eigen9EigenBaseINS_14CwiseNullaryOpINS_8internal12linspaced_opIiEENS_5ArrayIiLin1ELi1ELi0ELin1ELi1EEEEEE7derivedEv, symObjAddr: 0x2050, symBinAddr: 0x100002828, symSize: 0x14 }
  - { offsetInCU: 0x23FBB, offset: 0x23FBB, size: 0x8, addend: 0x0, symName: __ZN5Eigen15PlainObjectBaseINS_5ArrayIiLin1ELi1ELi0ELin1ELi1EEEEC2INS_14CwiseNullaryOpINS_8internal12linspaced_opIiEES2_EEEERKNS_9DenseBaseIT_EE, symObjAddr: 0x2064, symBinAddr: 0x10000283C, symSize: 0x84 }
  - { offsetInCU: 0x23FFD, offset: 0x23FFD, size: 0x8, addend: 0x0, symName: __ZN5Eigen9ArrayBaseINS_5ArrayIiLin1ELi1ELi0ELin1ELi1EEEEC2Ev, symObjAddr: 0x20E8, symBinAddr: 0x1000028C0, symSize: 0x2C }
  - { offsetInCU: 0x24027, offset: 0x24027, size: 0x8, addend: 0x0, symName: __ZN5Eigen12DenseStorageIiLin1ELin1ELi1ELi0EEC1Ev, symObjAddr: 0x2114, symBinAddr: 0x1000028EC, symSize: 0x2C }
  - { offsetInCU: 0x24051, offset: 0x24051, size: 0x8, addend: 0x0, symName: __ZN5Eigen15PlainObjectBaseINS_5ArrayIiLin1ELi1ELi0ELin1ELi1EEEE22_check_template_paramsEv, symObjAddr: 0x2140, symBinAddr: 0x100002918, symSize: 0x4 }
  - { offsetInCU: 0x24065, offset: 0x24065, size: 0x8, addend: 0x0, symName: __ZN5Eigen15PlainObjectBaseINS_5ArrayIiLin1ELi1ELi0ELin1ELi1EEEE10resizeLikeINS_14CwiseNullaryOpINS_8internal12linspaced_opIiEES2_EEEEvRKNS_9EigenBaseIT_EE, symObjAddr: 0x2144, symBinAddr: 0x10000291C, symSize: 0x170 }
  - { offsetInCU: 0x240F9, offset: 0x240F9, size: 0x8, addend: 0x0, symName: __ZN5Eigen15PlainObjectBaseINS_5ArrayIiLin1ELi1ELi0ELin1ELi1EEEE12_set_noaliasINS_14CwiseNullaryOpINS_8internal12linspaced_opIiEES2_EEEERS2_RKNS_9DenseBaseIT_EE, symObjAddr: 0x22B4, symBinAddr: 0x100002A8C, symSize: 0x60 }
  - { offsetInCU: 0x24137, offset: 0x24137, size: 0x8, addend: 0x0, symName: __ZN5Eigen9DenseBaseINS_5ArrayIiLin1ELi1ELi0ELin1ELi1EEEEC2Ev, symObjAddr: 0x2314, symBinAddr: 0x100002AEC, symSize: 0x14 }
  - { offsetInCU: 0x24161, offset: 0x24161, size: 0x8, addend: 0x0, symName: __ZN5Eigen12DenseStorageIiLin1ELin1ELi1ELi0EEC2Ev, symObjAddr: 0x2328, symBinAddr: 0x100002B00, symSize: 0x1C }
  - { offsetInCU: 0x2418B, offset: 0x2418B, size: 0x8, addend: 0x0, symName: __ZNK5Eigen14CwiseNullaryOpINS_8internal12linspaced_opIiEENS_5ArrayIiLin1ELi1ELi0ELin1ELi1EEEE4rowsEv, symObjAddr: 0x2344, symBinAddr: 0x100002B1C, symSize: 0x24 }
  - { offsetInCU: 0x241B1, offset: 0x241B1, size: 0x8, addend: 0x0, symName: __ZNK5Eigen14CwiseNullaryOpINS_8internal12linspaced_opIiEENS_5ArrayIiLin1ELi1ELi0ELin1ELi1EEEE4colsEv, symObjAddr: 0x2368, symBinAddr: 0x100002B40, symSize: 0x20 }
  - { offsetInCU: 0x241D7, offset: 0x241D7, size: 0x8, addend: 0x0, symName: __ZN5Eigen15PlainObjectBaseINS_5ArrayIiLin1ELi1ELi0ELin1ELi1EEEE6resizeEll, symObjAddr: 0x2388, symBinAddr: 0x100002B60, symSize: 0x168 }
  - { offsetInCU: 0x24253, offset: 0x24253, size: 0x8, addend: 0x0, symName: __ZNK5Eigen8internal19variable_if_dynamicIlLin1EE5valueEv, symObjAddr: 0x24F0, symBinAddr: 0x100002CC8, symSize: 0x18 }
  - { offsetInCU: 0x24279, offset: 0x24279, size: 0x8, addend: 0x0, symName: __ZN5Eigen8internal19variable_if_dynamicIlLi1EE5valueEv, symObjAddr: 0x2508, symBinAddr: 0x100002CE0, symSize: 0x8 }
  - { offsetInCU: 0x2428D, offset: 0x2428D, size: 0x8, addend: 0x0, symName: __ZN5Eigen12DenseStorageIiLin1ELin1ELi1ELi0EE6resizeElll, symObjAddr: 0x2510, symBinAddr: 0x100002CE8, symSize: 0xA4 }
  - { offsetInCU: 0x242DC, offset: 0x242DC, size: 0x8, addend: 0x0, symName: __ZN5Eigen9EigenBaseINS_5ArrayIiLin1ELi1ELi0ELin1ELi1EEEE7derivedEv, symObjAddr: 0x2674, symBinAddr: 0x100002E4C, symSize: 0x14 }
  - { offsetInCU: 0x24316, offset: 0x24316, size: 0x8, addend: 0x0, symName: __ZN5Eigen8internal9assign_opIiiEC1Ev, symObjAddr: 0x2688, symBinAddr: 0x100002E60, symSize: 0x2C }
  - { offsetInCU: 0x24340, offset: 0x24340, size: 0x8, addend: 0x0, symName: __ZN5Eigen8internal10AssignmentINS_5ArrayIiLin1ELi1ELi0ELin1ELi1EEENS_14CwiseNullaryOpINS0_12linspaced_opIiEES3_EENS0_9assign_opIiiEENS0_11Dense2DenseEvE3runERS3_RKS7_RKS9_, symObjAddr: 0x26B4, symBinAddr: 0x100002E8C, symSize: 0x40 }
  - { offsetInCU: 0x243A5, offset: 0x243A5, size: 0x8, addend: 0x0, symName: __ZN5Eigen8internal9evaluatorINS_14CwiseNullaryOpINS0_12linspaced_opIiEENS_5ArrayIiLin1ELi1ELi0ELin1ELi1EEEEEEC1ERKS7_, symObjAddr: 0x27E8, symBinAddr: 0x100002FC0, symSize: 0x34 }
  - { offsetInCU: 0x243ED, offset: 0x243ED, size: 0x8, addend: 0x0, symName: __ZN5Eigen8internal9evaluatorINS_5ArrayIiLin1ELi1ELi0ELin1ELi1EEEEC1ERKS3_, symObjAddr: 0x2914, symBinAddr: 0x1000030EC, symSize: 0x34 }
  - { offsetInCU: 0x24426, offset: 0x24426, size: 0x8, addend: 0x0, symName: __ZNK5Eigen9EigenBaseINS_5ArrayIiLin1ELi1ELi0ELin1ELi1EEEE18const_cast_derivedEv, symObjAddr: 0x2948, symBinAddr: 0x100003120, symSize: 0x14 }
  - { offsetInCU: 0x24479, offset: 0x24479, size: 0x8, addend: 0x0, symName: __ZN5Eigen8internal31generic_dense_assignment_kernelINS0_9evaluatorINS_5ArrayIiLin1ELi1ELi0ELin1ELi1EEEEENS2_INS_14CwiseNullaryOpINS0_12linspaced_opIiEES4_EEEENS0_9assign_opIiiEELi0EEC1ERS5_RKSA_RKSC_RS4_, symObjAddr: 0x295C, symBinAddr: 0x100003134, symSize: 0x4C }
  - { offsetInCU: 0x244E4, offset: 0x244E4, size: 0x8, addend: 0x0, symName: __ZN5Eigen8internal21dense_assignment_loopINS0_31generic_dense_assignment_kernelINS0_9evaluatorINS_5ArrayIiLin1ELi1ELi0ELin1ELi1EEEEENS3_INS_14CwiseNullaryOpINS0_12linspaced_opIiEES5_EEEENS0_9assign_opIiiEELi0EEELi1ELi0EE3runERSE_, symObjAddr: 0x29A8, symBinAddr: 0x100003180, symSize: 0x68 }
  - { offsetInCU: 0x24534, offset: 0x24534, size: 0x8, addend: 0x0, symName: __ZN5Eigen8internal9evaluatorINS_5ArrayIiLin1ELi1ELi0ELin1ELi1EEEED1Ev, symObjAddr: 0x2A10, symBinAddr: 0x1000031E8, symSize: 0x2C }
  - { offsetInCU: 0x24561, offset: 0x24561, size: 0x8, addend: 0x0, symName: __ZN5Eigen8internal9evaluatorINS_14CwiseNullaryOpINS0_12linspaced_opIiEENS_5ArrayIiLin1ELi1ELi0ELin1ELi1EEEEEED1Ev, symObjAddr: 0x2A3C, symBinAddr: 0x100003214, symSize: 0x2C }
  - { offsetInCU: 0x2458D, offset: 0x2458D, size: 0x8, addend: 0x0, symName: __ZN5Eigen8internal9evaluatorINS_14CwiseNullaryOpINS0_12linspaced_opIiEENS_5ArrayIiLin1ELi1ELi0ELin1ELi1EEEEEEC2ERKS7_, symObjAddr: 0x2A68, symBinAddr: 0x100003240, symSize: 0x70 }
  - { offsetInCU: 0x245C6, offset: 0x245C6, size: 0x8, addend: 0x0, symName: __ZN5Eigen8internal14evaluator_baseINS_14CwiseNullaryOpINS0_12linspaced_opIiEENS_5ArrayIiLin1ELi1ELi0ELin1ELi1EEEEEEC2Ev, symObjAddr: 0x2AD8, symBinAddr: 0x1000032B0, symSize: 0x14 }
  - { offsetInCU: 0x245F0, offset: 0x245F0, size: 0x8, addend: 0x0, symName: __ZNK5Eigen14CwiseNullaryOpINS_8internal12linspaced_opIiEENS_5ArrayIiLin1ELi1ELi0ELin1ELi1EEEE7functorEv, symObjAddr: 0x2AEC, symBinAddr: 0x1000032C4, symSize: 0x18 }
  - { offsetInCU: 0x24616, offset: 0x24616, size: 0x8, addend: 0x0, symName: __ZN5Eigen8internal14evaluator_baseINS_14CwiseNullaryOpINS0_12linspaced_opIiEENS_5ArrayIiLin1ELi1ELi0ELin1ELi1EEEEEED2Ev, symObjAddr: 0x2B04, symBinAddr: 0x1000032DC, symSize: 0x14 }
  - { offsetInCU: 0x24640, offset: 0x24640, size: 0x8, addend: 0x0, symName: __ZNK5Eigen15PlainObjectBaseINS_5ArrayIiLin1ELi1ELi0ELin1ELi1EEEE4rowsEv, symObjAddr: 0x2B18, symBinAddr: 0x1000032F0, symSize: 0x24 }
  - { offsetInCU: 0x24666, offset: 0x24666, size: 0x8, addend: 0x0, symName: __ZNK5Eigen15PlainObjectBaseINS_5ArrayIiLin1ELi1ELi0ELin1ELi1EEEE4colsEv, symObjAddr: 0x2B3C, symBinAddr: 0x100003314, symSize: 0x20 }
  - { offsetInCU: 0x2468C, offset: 0x2468C, size: 0x8, addend: 0x0, symName: __ZN5Eigen8internal9evaluatorINS_5ArrayIiLin1ELi1ELi0ELin1ELi1EEEEC2ERKS3_, symObjAddr: 0x2B5C, symBinAddr: 0x100003334, symSize: 0x34 }
  - { offsetInCU: 0x246C5, offset: 0x246C5, size: 0x8, addend: 0x0, symName: __ZN5Eigen8internal9evaluatorINS_15PlainObjectBaseINS_5ArrayIiLin1ELi1ELi0ELin1ELi1EEEEEEC2ERKS5_, symObjAddr: 0x2B90, symBinAddr: 0x100003368, symSize: 0x78 }
  - { offsetInCU: 0x246FD, offset: 0x246FD, size: 0x8, addend: 0x0, symName: __ZN5Eigen8internal14evaluator_baseINS_5ArrayIiLin1ELi1ELi0ELin1ELi1EEEEC2Ev, symObjAddr: 0x2C08, symBinAddr: 0x1000033E0, symSize: 0x14 }
  - { offsetInCU: 0x24727, offset: 0x24727, size: 0x8, addend: 0x0, symName: __ZNK5Eigen15PlainObjectBaseINS_5ArrayIiLin1ELi1ELi0ELin1ELi1EEEE4dataEv, symObjAddr: 0x2C1C, symBinAddr: 0x1000033F4, symSize: 0x24 }
  - { offsetInCU: 0x2474D, offset: 0x2474D, size: 0x8, addend: 0x0, symName: __ZN5Eigen8internal30plainobjectbase_evaluator_dataIiLi0EEC1EPKil, symObjAddr: 0x2C40, symBinAddr: 0x100003418, symSize: 0x3C }
  - { offsetInCU: 0x24793, offset: 0x24793, size: 0x8, addend: 0x0, symName: __ZN5Eigen8internal14evaluator_baseINS_5ArrayIiLin1ELi1ELi0ELin1ELi1EEEED2Ev, symObjAddr: 0x2C7C, symBinAddr: 0x100003454, symSize: 0x14 }
  - { offsetInCU: 0x247BD, offset: 0x247BD, size: 0x8, addend: 0x0, symName: __ZNK5Eigen12DenseStorageIiLin1ELin1ELi1ELi0EE4dataEv, symObjAddr: 0x2C90, symBinAddr: 0x100003468, symSize: 0x18 }
  - { offsetInCU: 0x247E3, offset: 0x247E3, size: 0x8, addend: 0x0, symName: __ZN5Eigen8internal30plainobjectbase_evaluator_dataIiLi0EEC2EPKil, symObjAddr: 0x2CA8, symBinAddr: 0x100003480, symSize: 0x40 }
  - { offsetInCU: 0x24829, offset: 0x24829, size: 0x8, addend: 0x0, symName: __ZN5Eigen8internal31generic_dense_assignment_kernelINS0_9evaluatorINS_5ArrayIiLin1ELi1ELi0ELin1ELi1EEEEENS2_INS_14CwiseNullaryOpINS0_12linspaced_opIiEES4_EEEENS0_9assign_opIiiEELi0EEC2ERS5_RKSA_RKSC_RS4_, symObjAddr: 0x2CF8, symBinAddr: 0x1000034D0, symSize: 0x44 }
  - { offsetInCU: 0x2488F, offset: 0x2488F, size: 0x8, addend: 0x0, symName: __ZNK5Eigen8internal31generic_dense_assignment_kernelINS0_9evaluatorINS_5ArrayIiLin1ELi1ELi0ELin1ELi1EEEEENS2_INS_14CwiseNullaryOpINS0_12linspaced_opIiEES4_EEEENS0_9assign_opIiiEELi0EE4sizeEv, symObjAddr: 0x2D3C, symBinAddr: 0x100003514, symSize: 0x28 }
  - { offsetInCU: 0x248B5, offset: 0x248B5, size: 0x8, addend: 0x0, symName: __ZN5Eigen8internal31generic_dense_assignment_kernelINS0_9evaluatorINS_5ArrayIiLin1ELi1ELi0ELin1ELi1EEEEENS2_INS_14CwiseNullaryOpINS0_12linspaced_opIiEES4_EEEENS0_9assign_opIiiEELi0EE11assignCoeffEl, symObjAddr: 0x2D64, symBinAddr: 0x10000353C, symSize: 0x68 }
  - { offsetInCU: 0x248EA, offset: 0x248EA, size: 0x8, addend: 0x0, symName: __ZNK5Eigen9EigenBaseINS_5ArrayIiLin1ELi1ELi0ELin1ELi1EEEE4sizeEv, symObjAddr: 0x2DCC, symBinAddr: 0x1000035A4, symSize: 0x44 }
  - { offsetInCU: 0x24910, offset: 0x24910, size: 0x8, addend: 0x0, symName: __ZNK5Eigen9EigenBaseINS_5ArrayIiLin1ELi1ELi0ELin1ELi1EEEE4rowsEv, symObjAddr: 0x2E10, symBinAddr: 0x1000035E8, symSize: 0x38 }
  - { offsetInCU: 0x24936, offset: 0x24936, size: 0x8, addend: 0x0, symName: __ZNK5Eigen9EigenBaseINS_5ArrayIiLin1ELi1ELi0ELin1ELi1EEEE4colsEv, symObjAddr: 0x2E48, symBinAddr: 0x100003620, symSize: 0x28 }
  - { offsetInCU: 0x2495C, offset: 0x2495C, size: 0x8, addend: 0x0, symName: __ZNK5Eigen9EigenBaseINS_5ArrayIiLin1ELi1ELi0ELin1ELi1EEEE7derivedEv, symObjAddr: 0x2E70, symBinAddr: 0x100003648, symSize: 0x14 }
  - { offsetInCU: 0x24982, offset: 0x24982, size: 0x8, addend: 0x0, symName: __ZNK5Eigen8internal9assign_opIiiE11assignCoeffERiRKi, symObjAddr: 0x2E84, symBinAddr: 0x10000365C, symSize: 0x28 }
  - { offsetInCU: 0x249C4, offset: 0x249C4, size: 0x8, addend: 0x0, symName: __ZN5Eigen8internal9evaluatorINS_15PlainObjectBaseINS_5ArrayIiLin1ELi1ELi0ELin1ELi1EEEEEE8coeffRefEl, symObjAddr: 0x2EAC, symBinAddr: 0x100003684, symSize: 0x24 }
  - { offsetInCU: 0x24A02, offset: 0x24A02, size: 0x8, addend: 0x0, symName: __ZNK5Eigen8internal9evaluatorINS_14CwiseNullaryOpINS0_12linspaced_opIiEENS_5ArrayIiLin1ELi1ELi0ELin1ELi1EEEEEE5coeffIlEEiT_, symObjAddr: 0x2ED0, symBinAddr: 0x1000036A8, symSize: 0x34 }
  - { offsetInCU: 0x24A45, offset: 0x24A45, size: 0x8, addend: 0x0, symName: __ZNK5Eigen8internal15nullary_wrapperIiNS0_12linspaced_opIiEELb0ELb1ELb0EEclIlEEiRKS3_T_, symObjAddr: 0x2F04, symBinAddr: 0x1000036DC, symSize: 0x30 }
  - { offsetInCU: 0x24A97, offset: 0x24A97, size: 0x8, addend: 0x0, symName: __ZNK5Eigen8internal12linspaced_opIiEclIlEEKiT_, symObjAddr: 0x2F34, symBinAddr: 0x10000370C, symSize: 0x2C }
  - { offsetInCU: 0x24AD9, offset: 0x24AD9, size: 0x8, addend: 0x0, symName: __ZNK5Eigen8internal17linspaced_op_implIiLb1EEclIlEEKiT_, symObjAddr: 0x2F60, symBinAddr: 0x100003738, symSize: 0x98 }
  - { offsetInCU: 0x24B16, offset: 0x24B16, size: 0x8, addend: 0x0, symName: __ZN5Eigen8internal9evaluatorINS_5ArrayIiLin1ELi1ELi0ELin1ELi1EEEED2Ev, symObjAddr: 0x2FF8, symBinAddr: 0x1000037D0, symSize: 0x2C }
  - { offsetInCU: 0x24B43, offset: 0x24B43, size: 0x8, addend: 0x0, symName: __ZN5Eigen8internal9evaluatorINS_15PlainObjectBaseINS_5ArrayIiLin1ELi1ELi0ELin1ELi1EEEEEED2Ev, symObjAddr: 0x3024, symBinAddr: 0x1000037FC, symSize: 0x2C }
  - { offsetInCU: 0x24B6F, offset: 0x24B6F, size: 0x8, addend: 0x0, symName: __ZN5Eigen8internal9evaluatorINS_14CwiseNullaryOpINS0_12linspaced_opIiEENS_5ArrayIiLin1ELi1ELi0ELin1ELi1EEEEEED2Ev, symObjAddr: 0x3050, symBinAddr: 0x100003828, symSize: 0x2C }
  - { offsetInCU: 0x24B9B, offset: 0x24B9B, size: 0x8, addend: 0x0, symName: __ZN5Eigen8internal9assign_opIiiEC2Ev, symObjAddr: 0x307C, symBinAddr: 0x100003854, symSize: 0x14 }
  - { offsetInCU: 0x24BCA, offset: 0x24BCA, size: 0x8, addend: 0x0, symName: __ZN5Eigen9ReplicateINS_5ArrayIiLin1ELi1ELi0ELin1ELi1EEELin1ELin1EEC1IS2_EERKT_ll, symObjAddr: 0x3090, symBinAddr: 0x100003868, symSize: 0x44 }
  - { offsetInCU: 0x24C27, offset: 0x24C27, size: 0x8, addend: 0x0, symName: __ZN5Eigen9ReplicateINS_5ArrayIiLin1ELi1ELi0ELin1ELi1EEELin1ELin1EEC2IS2_EERKT_ll, symObjAddr: 0x30D4, symBinAddr: 0x1000038AC, symSize: 0x60 }
  - { offsetInCU: 0x24C84, offset: 0x24C84, size: 0x8, addend: 0x0, symName: __ZN5Eigen9ArrayBaseINS_9ReplicateINS_5ArrayIiLin1ELi1ELi0ELin1ELi1EEELin1ELin1EEEEC2Ev, symObjAddr: 0x3134, symBinAddr: 0x10000390C, symSize: 0x2C }
  - { offsetInCU: 0x24CAE, offset: 0x24CAE, size: 0x8, addend: 0x0, symName: __ZN5Eigen9DenseBaseINS_9ReplicateINS_5ArrayIiLin1ELi1ELi0ELin1ELi1EEELin1ELin1EEEEC2Ev, symObjAddr: 0x3160, symBinAddr: 0x100003938, symSize: 0x14 }
  - { offsetInCU: 0x24CD8, offset: 0x24CD8, size: 0x8, addend: 0x0, symName: __ZNK5Eigen9EigenBaseINS_9ReplicateINS_5ArrayIiLin1ELi1ELi0ELin1ELi1EEELin1ELin1EEEE7derivedEv, symObjAddr: 0x3174, symBinAddr: 0x10000394C, symSize: 0x14 }
  - { offsetInCU: 0x24CFE, offset: 0x24CFE, size: 0x8, addend: 0x0, symName: __ZN5Eigen9TransposeIKNS_9ReplicateINS_5ArrayIiLin1ELi1ELi0ELin1ELi1EEELin1ELin1EEEEC1ERS5_, symObjAddr: 0x3188, symBinAddr: 0x100003960, symSize: 0x34 }
  - { offsetInCU: 0x24D36, offset: 0x24D36, size: 0x8, addend: 0x0, symName: __ZN5Eigen9TransposeIKNS_9ReplicateINS_5ArrayIiLin1ELi1ELi0ELin1ELi1EEELin1ELin1EEEEC2ERS5_, symObjAddr: 0x31BC, symBinAddr: 0x100003994, symSize: 0x44 }
  - { offsetInCU: 0x24D6E, offset: 0x24D6E, size: 0x8, addend: 0x0, symName: __ZN5Eigen13TransposeImplIKNS_9ReplicateINS_5ArrayIiLin1ELi1ELi0ELin1ELi1EEELin1ELin1EEENS_5DenseEEC2Ev, symObjAddr: 0x3200, symBinAddr: 0x1000039D8, symSize: 0x2C }
  - { offsetInCU: 0x24D98, offset: 0x24D98, size: 0x8, addend: 0x0, symName: __ZN5Eigen9ArrayBaseINS_9TransposeIKNS_9ReplicateINS_5ArrayIiLin1ELi1ELi0ELin1ELi1EEELin1ELin1EEEEEEC2Ev, symObjAddr: 0x322C, symBinAddr: 0x100003A04, symSize: 0x2C }
  - { offsetInCU: 0x24DC2, offset: 0x24DC2, size: 0x8, addend: 0x0, symName: __ZN5Eigen9DenseBaseINS_9TransposeIKNS_9ReplicateINS_5ArrayIiLin1ELi1ELi0ELin1ELi1EEELin1ELin1EEEEEEC2Ev, symObjAddr: 0x3258, symBinAddr: 0x100003A30, symSize: 0x14 }
  - { offsetInCU: 0x24DEC, offset: 0x24DEC, size: 0x8, addend: 0x0, symName: __ZN5Eigen5ArrayIiLin1ELin1ELi0ELin1ELin1EEC2INS_9TransposeIKNS_9ReplicateINS0_IiLin1ELi1ELi0ELin1ELi1EEELin1ELin1EEEEEEERKNS_9EigenBaseIT_EENS_8internal9enable_ifIXsr8internal14is_convertibleINSA_6ScalarEiEE5valueENS1_11PrivateTypeEE4typeE, symObjAddr: 0x326C, symBinAddr: 0x100003A44, symSize: 0x40 }
  - { offsetInCU: 0x24E39, offset: 0x24E39, size: 0x8, addend: 0x0, symName: __ZNK5Eigen9EigenBaseINS_9TransposeIKNS_9ReplicateINS_5ArrayIiLin1ELi1ELi0ELin1ELi1EEELin1ELin1EEEEEE7derivedEv, symObjAddr: 0x32AC, symBinAddr: 0x100003A84, symSize: 0x14 }
  - { offsetInCU: 0x24E5F, offset: 0x24E5F, size: 0x8, addend: 0x0, symName: __ZN5Eigen15PlainObjectBaseINS_5ArrayIiLin1ELin1ELi0ELin1ELin1EEEEC2INS_9TransposeIKNS_9ReplicateINS1_IiLin1ELi1ELi0ELin1ELi1EEELin1ELin1EEEEEEERKNS_9DenseBaseIT_EE, symObjAddr: 0x32C0, symBinAddr: 0x100003A98, symSize: 0x84 }
  - { offsetInCU: 0x24EA1, offset: 0x24EA1, size: 0x8, addend: 0x0, symName: __ZN5Eigen9ArrayBaseINS_5ArrayIiLin1ELin1ELi0ELin1ELin1EEEEC2Ev, symObjAddr: 0x3344, symBinAddr: 0x100003B1C, symSize: 0x2C }
  - { offsetInCU: 0x24ECB, offset: 0x24ECB, size: 0x8, addend: 0x0, symName: __ZN5Eigen12DenseStorageIiLin1ELin1ELin1ELi0EEC1Ev, symObjAddr: 0x3370, symBinAddr: 0x100003B48, symSize: 0x2C }
  - { offsetInCU: 0x24EF5, offset: 0x24EF5, size: 0x8, addend: 0x0, symName: __ZN5Eigen15PlainObjectBaseINS_5ArrayIiLin1ELin1ELi0ELin1ELin1EEEE22_check_template_paramsEv, symObjAddr: 0x339C, symBinAddr: 0x100003B74, symSize: 0x4 }
  - { offsetInCU: 0x24F09, offset: 0x24F09, size: 0x8, addend: 0x0, symName: __ZN5Eigen15PlainObjectBaseINS_5ArrayIiLin1ELin1ELi0ELin1ELin1EEEE10resizeLikeINS_9TransposeIKNS_9ReplicateINS1_IiLin1ELi1ELi0ELin1ELi1EEELin1ELin1EEEEEEEvRKNS_9EigenBaseIT_EE, symObjAddr: 0x33A0, symBinAddr: 0x100003B78, symSize: 0x11C }
  - { offsetInCU: 0x24F9D, offset: 0x24F9D, size: 0x8, addend: 0x0, symName: __ZN5Eigen15PlainObjectBaseINS_5ArrayIiLin1ELin1ELi0ELin1ELin1EEEE12_set_noaliasINS_9TransposeIKNS_9ReplicateINS1_IiLin1ELi1ELi0ELin1ELi1EEELin1ELin1EEEEEEERS2_RKNS_9DenseBaseIT_EE, symObjAddr: 0x34BC, symBinAddr: 0x100003C94, symSize: 0x60 }
  - { offsetInCU: 0x24FDB, offset: 0x24FDB, size: 0x8, addend: 0x0, symName: __ZN5Eigen9DenseBaseINS_5ArrayIiLin1ELin1ELi0ELin1ELin1EEEEC2Ev, symObjAddr: 0x351C, symBinAddr: 0x100003CF4, symSize: 0x14 }
  - { offsetInCU: 0x25005, offset: 0x25005, size: 0x8, addend: 0x0, symName: __ZN5Eigen12DenseStorageIiLin1ELin1ELin1ELi0EEC2Ev, symObjAddr: 0x3530, symBinAddr: 0x100003D08, symSize: 0x20 }
  - { offsetInCU: 0x2502F, offset: 0x2502F, size: 0x8, addend: 0x0, symName: __ZNK5Eigen9TransposeIKNS_9ReplicateINS_5ArrayIiLin1ELi1ELi0ELin1ELi1EEELin1ELin1EEEE4rowsEv, symObjAddr: 0x3550, symBinAddr: 0x100003D28, symSize: 0x34 }
  - { offsetInCU: 0x25055, offset: 0x25055, size: 0x8, addend: 0x0, symName: __ZNK5Eigen9TransposeIKNS_9ReplicateINS_5ArrayIiLin1ELi1ELi0ELin1ELi1EEELin1ELin1EEEE4colsEv, symObjAddr: 0x3584, symBinAddr: 0x100003D5C, symSize: 0x34 }
  - { offsetInCU: 0x2507B, offset: 0x2507B, size: 0x8, addend: 0x0, symName: __ZN5Eigen15PlainObjectBaseINS_5ArrayIiLin1ELin1ELi0ELin1ELin1EEEE6resizeEll, symObjAddr: 0x35B8, symBinAddr: 0x100003D90, symSize: 0x14C }
  - { offsetInCU: 0x250F7, offset: 0x250F7, size: 0x8, addend: 0x0, symName: __ZNK5Eigen9ReplicateINS_5ArrayIiLin1ELi1ELi0ELin1ELi1EEELin1ELin1EE4colsEv, symObjAddr: 0x3704, symBinAddr: 0x100003EDC, symSize: 0x48 }
  - { offsetInCU: 0x2511D, offset: 0x2511D, size: 0x8, addend: 0x0, symName: __ZNK5Eigen9ReplicateINS_5ArrayIiLin1ELi1ELi0ELin1ELi1EEELin1ELin1EE4rowsEv, symObjAddr: 0x374C, symBinAddr: 0x100003F24, symSize: 0x48 }
  - { offsetInCU: 0x25143, offset: 0x25143, size: 0x8, addend: 0x0, symName: __ZN5Eigen12DenseStorageIiLin1ELin1ELin1ELi0EE6resizeElll, symObjAddr: 0x3794, symBinAddr: 0x100003F6C, symSize: 0xB4 }
  - { offsetInCU: 0x25196, offset: 0x25196, size: 0x8, addend: 0x0, symName: __ZN5Eigen9EigenBaseINS_5ArrayIiLin1ELin1ELi0ELin1ELin1EEEE7derivedEv, symObjAddr: 0x3884, symBinAddr: 0x10000405C, symSize: 0x14 }
  - { offsetInCU: 0x251BC, offset: 0x251BC, size: 0x8, addend: 0x0, symName: __ZN5Eigen8internal10AssignmentINS_5ArrayIiLin1ELin1ELi0ELin1ELin1EEENS_9TransposeIKNS_9ReplicateINS2_IiLin1ELi1ELi0ELin1ELi1EEELin1ELin1EEEEENS0_9assign_opIiiEENS0_11Dense2DenseEvE3runERS3_RKS9_RKSB_, symObjAddr: 0x3898, symBinAddr: 0x100004070, symSize: 0x40 }
  - { offsetInCU: 0x251FE, offset: 0x251FE, size: 0x8, addend: 0x0, symName: __ZNK5Eigen15PlainObjectBaseINS_5ArrayIiLin1ELin1ELi0ELin1ELin1EEEE4rowsEv, symObjAddr: 0x3A18, symBinAddr: 0x1000041F0, symSize: 0x24 }
  - { offsetInCU: 0x25224, offset: 0x25224, size: 0x8, addend: 0x0, symName: __ZNK5Eigen15PlainObjectBaseINS_5ArrayIiLin1ELin1ELi0ELin1ELin1EEEE4colsEv, symObjAddr: 0x3A3C, symBinAddr: 0x100004214, symSize: 0x24 }
  - { offsetInCU: 0x25263, offset: 0x25263, size: 0x8, addend: 0x0, symName: __ZN5Eigen8internal27checkTransposeAliasing_implINS_5ArrayIiLin1ELin1ELi0ELin1ELin1EEENS_9TransposeIKNS_9ReplicateINS2_IiLin1ELi1ELi0ELin1ELi1EEELin1ELin1EEEEELb1EE3runERKS3_RKS9_, symObjAddr: 0x3A60, symBinAddr: 0x100004238, symSize: 0x90 }
  - { offsetInCU: 0x252D2, offset: 0x252D2, size: 0x8, addend: 0x0, symName: __ZNK5Eigen12DenseStorageIiLin1ELin1ELin1ELi0EE4rowsEv, symObjAddr: 0x3AF0, symBinAddr: 0x1000042C8, symSize: 0x18 }
  - { offsetInCU: 0x252F8, offset: 0x252F8, size: 0x8, addend: 0x0, symName: __ZNK5Eigen12DenseStorageIiLin1ELin1ELin1ELi0EE4colsEv, symObjAddr: 0x3B08, symBinAddr: 0x1000042E0, symSize: 0x18 }
  - { offsetInCU: 0x25328, offset: 0x25328, size: 0x8, addend: 0x0, symName: __ZN5Eigen8internal42check_transpose_aliasing_run_time_selectorIiLb0ENS_9TransposeIKNS_9ReplicateINS_5ArrayIiLin1ELi1ELi0ELin1ELi1EEELin1ELin1EEEEEE3runEPKiRKS8_, symObjAddr: 0x3B20, symBinAddr: 0x1000042F8, symSize: 0x70 }
  - { offsetInCU: 0x2537E, offset: 0x2537E, size: 0x8, addend: 0x0, symName: __ZN5Eigen8internal21extract_data_selectorINS_9TransposeIKNS_9ReplicateINS_5ArrayIiLin1ELi1ELi0ELin1ELi1EEELin1ELin1EEEEELb0EE3runERKS8_, symObjAddr: 0x3B90, symBinAddr: 0x100004368, symSize: 0x14 }
  - { offsetInCU: 0x253A3, offset: 0x253A3, size: 0x8, addend: 0x0, symName: __ZN5Eigen8internal11blas_traitsINS_5ArrayIiLin1ELin1ELi0ELin1ELin1EEEE7extractERKS3_, symObjAddr: 0x3BA4, symBinAddr: 0x10000437C, symSize: 0x14 }
  - { offsetInCU: 0x253C7, offset: 0x253C7, size: 0x8, addend: 0x0, symName: __ZNK5Eigen15PlainObjectBaseINS_5ArrayIiLin1ELin1ELi0ELin1ELin1EEEE4dataEv, symObjAddr: 0x3BB8, symBinAddr: 0x100004390, symSize: 0x24 }
  - { offsetInCU: 0x253ED, offset: 0x253ED, size: 0x8, addend: 0x0, symName: __ZNK5Eigen12DenseStorageIiLin1ELin1ELin1ELi0EE4dataEv, symObjAddr: 0x3BDC, symBinAddr: 0x1000043B4, symSize: 0x18 }
  - { offsetInCU: 0x2547C, offset: 0x2547C, size: 0x8, addend: 0x0, symName: __ZN5Eigen8internal9evaluatorINS_9TransposeIKNS_9ReplicateINS_5ArrayIiLin1ELi1ELi0ELin1ELi1EEELin1ELin1EEEEEEC1ERKS8_, symObjAddr: 0x3BF4, symBinAddr: 0x1000043CC, symSize: 0x34 }
  - { offsetInCU: 0x254C3, offset: 0x254C3, size: 0x8, addend: 0x0, symName: __ZN5Eigen8internal9evaluatorINS_5ArrayIiLin1ELin1ELi0ELin1ELin1EEEEC1ERKS3_, symObjAddr: 0x3D20, symBinAddr: 0x1000044F8, symSize: 0x34 }
  - { offsetInCU: 0x254FC, offset: 0x254FC, size: 0x8, addend: 0x0, symName: __ZNK5Eigen9EigenBaseINS_5ArrayIiLin1ELin1ELi0ELin1ELin1EEEE18const_cast_derivedEv, symObjAddr: 0x3D54, symBinAddr: 0x10000452C, symSize: 0x14 }
  - { offsetInCU: 0x2554F, offset: 0x2554F, size: 0x8, addend: 0x0, symName: __ZN5Eigen8internal31generic_dense_assignment_kernelINS0_9evaluatorINS_5ArrayIiLin1ELin1ELi0ELin1ELin1EEEEENS2_INS_9TransposeIKNS_9ReplicateINS3_IiLin1ELi1ELi0ELin1ELi1EEELin1ELin1EEEEEEENS0_9assign_opIiiEELi0EEC1ERS5_RKSC_RKSE_RS4_, symObjAddr: 0x3D68, symBinAddr: 0x100004540, symSize: 0x4C }
  - { offsetInCU: 0x255BA, offset: 0x255BA, size: 0x8, addend: 0x0, symName: __ZN5Eigen8internal21dense_assignment_loopINS0_31generic_dense_assignment_kernelINS0_9evaluatorINS_5ArrayIiLin1ELin1ELi0ELin1ELin1EEEEENS3_INS_9TransposeIKNS_9ReplicateINS4_IiLin1ELi1ELi0ELin1ELi1EEELin1ELin1EEEEEEENS0_9assign_opIiiEELi0EEELi0ELi0EE3runERSG_, symObjAddr: 0x3DB4, symBinAddr: 0x10000458C, symSize: 0xAC }
  - { offsetInCU: 0x25618, offset: 0x25618, size: 0x8, addend: 0x0, symName: __ZN5Eigen8internal9evaluatorINS_5ArrayIiLin1ELin1ELi0ELin1ELin1EEEED1Ev, symObjAddr: 0x3E60, symBinAddr: 0x100004638, symSize: 0x2C }
  - { offsetInCU: 0x25645, offset: 0x25645, size: 0x8, addend: 0x0, symName: __ZN5Eigen8internal9evaluatorINS_9TransposeIKNS_9ReplicateINS_5ArrayIiLin1ELi1ELi0ELin1ELi1EEELin1ELin1EEEEEED1Ev, symObjAddr: 0x3E8C, symBinAddr: 0x100004664, symSize: 0x2C }
  - { offsetInCU: 0x25671, offset: 0x25671, size: 0x8, addend: 0x0, symName: __ZN5Eigen8internal9evaluatorINS_9TransposeIKNS_9ReplicateINS_5ArrayIiLin1ELi1ELi0ELin1ELi1EEELin1ELin1EEEEEEC2ERKS8_, symObjAddr: 0x3EB8, symBinAddr: 0x100004690, symSize: 0x34 }
  - { offsetInCU: 0x256A9, offset: 0x256A9, size: 0x8, addend: 0x0, symName: __ZN5Eigen8internal15unary_evaluatorINS_9TransposeIKNS_9ReplicateINS_5ArrayIiLin1ELi1ELi0ELin1ELi1EEELin1ELin1EEEEENS0_10IndexBasedEiEC2ERKS8_, symObjAddr: 0x3EEC, symBinAddr: 0x1000046C4, symSize: 0x74 }
  - { offsetInCU: 0x256E2, offset: 0x256E2, size: 0x8, addend: 0x0, symName: __ZN5Eigen8internal14evaluator_baseINS_9TransposeIKNS_9ReplicateINS_5ArrayIiLin1ELi1ELi0ELin1ELi1EEELin1ELin1EEEEEEC2Ev, symObjAddr: 0x3F60, symBinAddr: 0x100004738, symSize: 0x14 }
  - { offsetInCU: 0x2570C, offset: 0x2570C, size: 0x8, addend: 0x0, symName: __ZNK5Eigen9TransposeIKNS_9ReplicateINS_5ArrayIiLin1ELi1ELi0ELin1ELi1EEELin1ELin1EEEE16nestedExpressionEv, symObjAddr: 0x3F74, symBinAddr: 0x10000474C, symSize: 0x14 }
  - { offsetInCU: 0x25732, offset: 0x25732, size: 0x8, addend: 0x0, symName: __ZN5Eigen8internal9evaluatorIKNS_9ReplicateINS_5ArrayIiLin1ELi1ELi0ELin1ELi1EEELin1ELin1EEEEC1ERS6_, symObjAddr: 0x3F88, symBinAddr: 0x100004760, symSize: 0x34 }
  - { offsetInCU: 0x2576A, offset: 0x2576A, size: 0x8, addend: 0x0, symName: __ZN5Eigen8internal14evaluator_baseINS_9TransposeIKNS_9ReplicateINS_5ArrayIiLin1ELi1ELi0ELin1ELi1EEELin1ELin1EEEEEED2Ev, symObjAddr: 0x3FBC, symBinAddr: 0x100004794, symSize: 0x14 }
  - { offsetInCU: 0x25794, offset: 0x25794, size: 0x8, addend: 0x0, symName: __ZN5Eigen8internal9evaluatorIKNS_9ReplicateINS_5ArrayIiLin1ELi1ELi0ELin1ELi1EEELin1ELin1EEEEC2ERS6_, symObjAddr: 0x3FD0, symBinAddr: 0x1000047A8, symSize: 0x34 }
  - { offsetInCU: 0x257CC, offset: 0x257CC, size: 0x8, addend: 0x0, symName: __ZN5Eigen8internal9evaluatorINS_9ReplicateINS_5ArrayIiLin1ELi1ELi0ELin1ELi1EEELin1ELin1EEEEC2ERKS5_, symObjAddr: 0x4004, symBinAddr: 0x1000047DC, symSize: 0x34 }
  - { offsetInCU: 0x25804, offset: 0x25804, size: 0x8, addend: 0x0, symName: __ZN5Eigen8internal15unary_evaluatorINS_9ReplicateINS_5ArrayIiLin1ELi1ELi0ELin1ELi1EEELin1ELin1EEENS0_10IndexBasedEiEC2ERKS5_, symObjAddr: 0x4038, symBinAddr: 0x100004810, symSize: 0x104 }
  - { offsetInCU: 0x2583D, offset: 0x2583D, size: 0x8, addend: 0x0, symName: __ZN5Eigen8internal14evaluator_baseINS_9ReplicateINS_5ArrayIiLin1ELi1ELi0ELin1ELi1EEELin1ELin1EEEEC2Ev, symObjAddr: 0x413C, symBinAddr: 0x100004914, symSize: 0x14 }
  - { offsetInCU: 0x25867, offset: 0x25867, size: 0x8, addend: 0x0, symName: __ZNK5Eigen9ReplicateINS_5ArrayIiLin1ELi1ELi0ELin1ELi1EEELin1ELin1EE16nestedExpressionEv, symObjAddr: 0x4150, symBinAddr: 0x100004928, symSize: 0x18 }
  - { offsetInCU: 0x2588D, offset: 0x2588D, size: 0x8, addend: 0x0, symName: __ZN5Eigen8internal14evaluator_baseINS_9ReplicateINS_5ArrayIiLin1ELi1ELi0ELin1ELi1EEELin1ELin1EEEED2Ev, symObjAddr: 0x4168, symBinAddr: 0x100004940, symSize: 0x14 }
  - { offsetInCU: 0x258B7, offset: 0x258B7, size: 0x8, addend: 0x0, symName: __ZN5Eigen8internal9evaluatorINS_5ArrayIiLin1ELin1ELi0ELin1ELin1EEEEC2ERKS3_, symObjAddr: 0x417C, symBinAddr: 0x100004954, symSize: 0x34 }
  - { offsetInCU: 0x258F0, offset: 0x258F0, size: 0x8, addend: 0x0, symName: __ZN5Eigen8internal9evaluatorINS_15PlainObjectBaseINS_5ArrayIiLin1ELin1ELi0ELin1ELin1EEEEEEC2ERKS5_, symObjAddr: 0x41B0, symBinAddr: 0x100004988, symSize: 0x80 }
  - { offsetInCU: 0x25928, offset: 0x25928, size: 0x8, addend: 0x0, symName: __ZN5Eigen8internal14evaluator_baseINS_5ArrayIiLin1ELin1ELi0ELin1ELin1EEEEC2Ev, symObjAddr: 0x4230, symBinAddr: 0x100004A08, symSize: 0x14 }
  - { offsetInCU: 0x25952, offset: 0x25952, size: 0x8, addend: 0x0, symName: __ZNK5Eigen15DenseCoeffsBaseINS_5ArrayIiLin1ELin1ELi0ELin1ELin1EEELi3EE11outerStrideEv, symObjAddr: 0x4244, symBinAddr: 0x100004A1C, symSize: 0x38 }
  - { offsetInCU: 0x25978, offset: 0x25978, size: 0x8, addend: 0x0, symName: __ZN5Eigen8internal30plainobjectbase_evaluator_dataIiLin1EEC1EPKil, symObjAddr: 0x427C, symBinAddr: 0x100004A54, symSize: 0x3C }
  - { offsetInCU: 0x259BE, offset: 0x259BE, size: 0x8, addend: 0x0, symName: __ZN5Eigen8internal14evaluator_baseINS_5ArrayIiLin1ELin1ELi0ELin1ELin1EEEED2Ev, symObjAddr: 0x42B8, symBinAddr: 0x100004A90, symSize: 0x14 }
  - { offsetInCU: 0x259E8, offset: 0x259E8, size: 0x8, addend: 0x0, symName: __ZNK5Eigen9EigenBaseINS_5ArrayIiLin1ELin1ELi0ELin1ELin1EEEE7derivedEv, symObjAddr: 0x42CC, symBinAddr: 0x100004AA4, symSize: 0x14 }
  - { offsetInCU: 0x25A0E, offset: 0x25A0E, size: 0x8, addend: 0x0, symName: __ZNK5Eigen5ArrayIiLin1ELin1ELi0ELin1ELin1EE11outerStrideEv, symObjAddr: 0x42E0, symBinAddr: 0x100004AB8, symSize: 0x34 }
  - { offsetInCU: 0x25A34, offset: 0x25A34, size: 0x8, addend: 0x0, symName: __ZNK5Eigen9DenseBaseINS_5ArrayIiLin1ELin1ELi0ELin1ELin1EEEE9innerSizeEv, symObjAddr: 0x4314, symBinAddr: 0x100004AEC, symSize: 0x24 }
  - { offsetInCU: 0x25A5A, offset: 0x25A5A, size: 0x8, addend: 0x0, symName: __ZNK5Eigen9EigenBaseINS_5ArrayIiLin1ELin1ELi0ELin1ELin1EEEE4rowsEv, symObjAddr: 0x4338, symBinAddr: 0x100004B10, symSize: 0x28 }
  - { offsetInCU: 0x25A80, offset: 0x25A80, size: 0x8, addend: 0x0, symName: __ZN5Eigen8internal30plainobjectbase_evaluator_dataIiLin1EEC2EPKil, symObjAddr: 0x4360, symBinAddr: 0x100004B38, symSize: 0x2C }
  - { offsetInCU: 0x25AC6, offset: 0x25AC6, size: 0x8, addend: 0x0, symName: __ZN5Eigen8internal31generic_dense_assignment_kernelINS0_9evaluatorINS_5ArrayIiLin1ELin1ELi0ELin1ELin1EEEEENS2_INS_9TransposeIKNS_9ReplicateINS3_IiLin1ELi1ELi0ELin1ELi1EEELin1ELin1EEEEEEENS0_9assign_opIiiEELi0EEC2ERS5_RKSC_RKSE_RS4_, symObjAddr: 0x438C, symBinAddr: 0x100004B64, symSize: 0x44 }
  - { offsetInCU: 0x25B2C, offset: 0x25B2C, size: 0x8, addend: 0x0, symName: __ZNK5Eigen8internal31generic_dense_assignment_kernelINS0_9evaluatorINS_5ArrayIiLin1ELin1ELi0ELin1ELin1EEEEENS2_INS_9TransposeIKNS_9ReplicateINS3_IiLin1ELi1ELi0ELin1ELi1EEELin1ELin1EEEEEEENS0_9assign_opIiiEELi0EE9outerSizeEv, symObjAddr: 0x43D0, symBinAddr: 0x100004BA8, symSize: 0x38 }
  - { offsetInCU: 0x25B52, offset: 0x25B52, size: 0x8, addend: 0x0, symName: __ZNK5Eigen8internal31generic_dense_assignment_kernelINS0_9evaluatorINS_5ArrayIiLin1ELin1ELi0ELin1ELin1EEEEENS2_INS_9TransposeIKNS_9ReplicateINS3_IiLin1ELi1ELi0ELin1ELi1EEELin1ELin1EEEEEEENS0_9assign_opIiiEELi0EE9innerSizeEv, symObjAddr: 0x4408, symBinAddr: 0x100004BE0, symSize: 0x28 }
  - { offsetInCU: 0x25B78, offset: 0x25B78, size: 0x8, addend: 0x0, symName: __ZN5Eigen8internal31generic_dense_assignment_kernelINS0_9evaluatorINS_5ArrayIiLin1ELin1ELi0ELin1ELin1EEEEENS2_INS_9TransposeIKNS_9ReplicateINS3_IiLin1ELi1ELi0ELin1ELi1EEELin1ELin1EEEEEEENS0_9assign_opIiiEELi0EE23assignCoeffByOuterInnerEll, symObjAddr: 0x4430, symBinAddr: 0x100004C08, symSize: 0x60 }
  - { offsetInCU: 0x25BDA, offset: 0x25BDA, size: 0x8, addend: 0x0, symName: __ZNK5Eigen9DenseBaseINS_5ArrayIiLin1ELin1ELi0ELin1ELin1EEEE9outerSizeEv, symObjAddr: 0x4490, symBinAddr: 0x100004C68, symSize: 0x24 }
  - { offsetInCU: 0x25C00, offset: 0x25C00, size: 0x8, addend: 0x0, symName: __ZNK5Eigen9EigenBaseINS_5ArrayIiLin1ELin1ELi0ELin1ELin1EEEE4colsEv, symObjAddr: 0x44B4, symBinAddr: 0x100004C8C, symSize: 0x28 }
  - { offsetInCU: 0x25C26, offset: 0x25C26, size: 0x8, addend: 0x0, symName: __ZN5Eigen8internal31generic_dense_assignment_kernelINS0_9evaluatorINS_5ArrayIiLin1ELin1ELi0ELin1ELin1EEEEENS2_INS_9TransposeIKNS_9ReplicateINS3_IiLin1ELi1ELi0ELin1ELi1EEELin1ELin1EEEEEEENS0_9assign_opIiiEELi0EE20rowIndexByOuterInnerEll, symObjAddr: 0x44DC, symBinAddr: 0x100004CB4, symSize: 0x18 }
  - { offsetInCU: 0x25C59, offset: 0x25C59, size: 0x8, addend: 0x0, symName: __ZN5Eigen8internal31generic_dense_assignment_kernelINS0_9evaluatorINS_5ArrayIiLin1ELin1ELi0ELin1ELin1EEEEENS2_INS_9TransposeIKNS_9ReplicateINS3_IiLin1ELi1ELi0ELin1ELi1EEELin1ELin1EEEEEEENS0_9assign_opIiiEELi0EE20colIndexByOuterInnerEll, symObjAddr: 0x44F4, symBinAddr: 0x100004CCC, symSize: 0x18 }
  - { offsetInCU: 0x25C8C, offset: 0x25C8C, size: 0x8, addend: 0x0, symName: __ZN5Eigen8internal31generic_dense_assignment_kernelINS0_9evaluatorINS_5ArrayIiLin1ELin1ELi0ELin1ELin1EEEEENS2_INS_9TransposeIKNS_9ReplicateINS3_IiLin1ELi1ELi0ELin1ELi1EEELin1ELin1EEEEEEENS0_9assign_opIiiEELi0EE11assignCoeffEll, symObjAddr: 0x450C, symBinAddr: 0x100004CE4, symSize: 0x74 }
  - { offsetInCU: 0x25CD0, offset: 0x25CD0, size: 0x8, addend: 0x0, symName: __ZN5Eigen8internal9evaluatorINS_15PlainObjectBaseINS_5ArrayIiLin1ELin1ELi0ELin1ELin1EEEEEE8coeffRefEll, symObjAddr: 0x4580, symBinAddr: 0x100004D58, symSize: 0x5C }
  - { offsetInCU: 0x25D12, offset: 0x25D12, size: 0x8, addend: 0x0, symName: __ZNK5Eigen8internal15unary_evaluatorINS_9TransposeIKNS_9ReplicateINS_5ArrayIiLin1ELi1ELi0ELin1ELi1EEELin1ELin1EEEEENS0_10IndexBasedEiE5coeffEll, symObjAddr: 0x45DC, symBinAddr: 0x100004DB4, symSize: 0x34 }
  - { offsetInCU: 0x25D56, offset: 0x25D56, size: 0x8, addend: 0x0, symName: __ZNK5Eigen8internal30plainobjectbase_evaluator_dataIiLin1EE11outerStrideEv, symObjAddr: 0x4610, symBinAddr: 0x100004DE8, symSize: 0x18 }
  - { offsetInCU: 0x25D7C, offset: 0x25D7C, size: 0x8, addend: 0x0, symName: __ZNK5Eigen8internal15unary_evaluatorINS_9ReplicateINS_5ArrayIiLin1ELi1ELi0ELin1ELi1EEELin1ELin1EEENS0_10IndexBasedEiE5coeffEll, symObjAddr: 0x4628, symBinAddr: 0x100004E00, symSize: 0x88 }
  - { offsetInCU: 0x25DDE, offset: 0x25DDE, size: 0x8, addend: 0x0, symName: __ZNK5Eigen8internal9evaluatorINS_15PlainObjectBaseINS_5ArrayIiLin1ELi1ELi0ELin1ELi1EEEEEE5coeffEll, symObjAddr: 0x46B0, symBinAddr: 0x100004E88, symSize: 0x5C }
  - { offsetInCU: 0x25E20, offset: 0x25E20, size: 0x8, addend: 0x0, symName: __ZNK5Eigen8internal30plainobjectbase_evaluator_dataIiLi0EE11outerStrideEv, symObjAddr: 0x470C, symBinAddr: 0x100004EE4, symSize: 0x14 }
  - { offsetInCU: 0x25E46, offset: 0x25E46, size: 0x8, addend: 0x0, symName: __ZN5Eigen8internal9evaluatorINS_5ArrayIiLin1ELin1ELi0ELin1ELin1EEEED2Ev, symObjAddr: 0x4720, symBinAddr: 0x100004EF8, symSize: 0x2C }
  - { offsetInCU: 0x25E73, offset: 0x25E73, size: 0x8, addend: 0x0, symName: __ZN5Eigen8internal9evaluatorINS_15PlainObjectBaseINS_5ArrayIiLin1ELin1ELi0ELin1ELin1EEEEEED2Ev, symObjAddr: 0x474C, symBinAddr: 0x100004F24, symSize: 0x2C }
  - { offsetInCU: 0x25E9F, offset: 0x25E9F, size: 0x8, addend: 0x0, symName: __ZN5Eigen8internal9evaluatorINS_9TransposeIKNS_9ReplicateINS_5ArrayIiLin1ELi1ELi0ELin1ELi1EEELin1ELin1EEEEEED2Ev, symObjAddr: 0x4778, symBinAddr: 0x100004F50, symSize: 0x2C }
  - { offsetInCU: 0x25ECB, offset: 0x25ECB, size: 0x8, addend: 0x0, symName: __ZN5Eigen8internal15unary_evaluatorINS_9TransposeIKNS_9ReplicateINS_5ArrayIiLin1ELi1ELi0ELin1ELi1EEELin1ELin1EEEEENS0_10IndexBasedEiED2Ev, symObjAddr: 0x47A4, symBinAddr: 0x100004F7C, symSize: 0x34 }
  - { offsetInCU: 0x25EF7, offset: 0x25EF7, size: 0x8, addend: 0x0, symName: __ZN5Eigen8internal9evaluatorIKNS_9ReplicateINS_5ArrayIiLin1ELi1ELi0ELin1ELi1EEELin1ELin1EEEED1Ev, symObjAddr: 0x47D8, symBinAddr: 0x100004FB0, symSize: 0x2C }
  - { offsetInCU: 0x25F23, offset: 0x25F23, size: 0x8, addend: 0x0, symName: __ZN5Eigen8internal9evaluatorIKNS_9ReplicateINS_5ArrayIiLin1ELi1ELi0ELin1ELi1EEELin1ELin1EEEED2Ev, symObjAddr: 0x4804, symBinAddr: 0x100004FDC, symSize: 0x2C }
  - { offsetInCU: 0x25F4F, offset: 0x25F4F, size: 0x8, addend: 0x0, symName: __ZN5Eigen8internal9evaluatorINS_9ReplicateINS_5ArrayIiLin1ELi1ELi0ELin1ELi1EEELin1ELin1EEEED2Ev, symObjAddr: 0x4830, symBinAddr: 0x100005008, symSize: 0x2C }
  - { offsetInCU: 0x25F7B, offset: 0x25F7B, size: 0x8, addend: 0x0, symName: __ZN5Eigen8internal15unary_evaluatorINS_9ReplicateINS_5ArrayIiLin1ELi1ELi0ELin1ELi1EEELin1ELin1EEENS0_10IndexBasedEiED2Ev, symObjAddr: 0x485C, symBinAddr: 0x100005034, symSize: 0x38 }
  - { offsetInCU: 0x25FA7, offset: 0x25FA7, size: 0x8, addend: 0x0, symName: __ZNSt3__111char_traitsIcE6lengthB8ue170006EPKc, symObjAddr: 0x4A80, symBinAddr: 0x100005258, symSize: 0x34 }
  - { offsetInCU: 0x25FE8, offset: 0x25FE8, size: 0x8, addend: 0x0, symName: __ZNKSt3__113basic_ostreamIcNS_11char_traitsIcEEE6sentrycvbB8ue170006Ev, symObjAddr: 0x4AB4, symBinAddr: 0x10000528C, symSize: 0x1C }
  - { offsetInCU: 0x2600E, offset: 0x2600E, size: 0x8, addend: 0x0, symName: __ZNSt3__119ostreambuf_iteratorIcNS_11char_traitsIcEEEC1B8ue170006ERNS_13basic_ostreamIcS2_EE, symObjAddr: 0x4D10, symBinAddr: 0x1000054E8, symSize: 0x34 }
  - { offsetInCU: 0x26046, offset: 0x26046, size: 0x8, addend: 0x0, symName: __ZNKSt3__18ios_base5flagsB8ue170006Ev, symObjAddr: 0x4D44, symBinAddr: 0x10000551C, symSize: 0x18 }
  - { offsetInCU: 0x2606E, offset: 0x2606E, size: 0x8, addend: 0x0, symName: __ZNKSt3__19basic_iosIcNS_11char_traitsIcEEE4fillB8ue170006Ev, symObjAddr: 0x4D5C, symBinAddr: 0x100005534, symSize: 0x64 }
  - { offsetInCU: 0x26096, offset: 0x26096, size: 0x8, addend: 0x0, symName: __ZNKSt3__119ostreambuf_iteratorIcNS_11char_traitsIcEEE6failedB8ue170006Ev, symObjAddr: 0x4DC0, symBinAddr: 0x100005598, symSize: 0x24 }
  - { offsetInCU: 0x260BC, offset: 0x260BC, size: 0x8, addend: 0x0, symName: __ZNSt3__19basic_iosIcNS_11char_traitsIcEEE8setstateB8ue170006Ej, symObjAddr: 0x4DE4, symBinAddr: 0x1000055BC, symSize: 0x2C }
  - { offsetInCU: 0x260F1, offset: 0x260F1, size: 0x8, addend: 0x0, symName: __ZNKSt3__18ios_base5widthB8ue170006Ev, symObjAddr: 0x4E10, symBinAddr: 0x1000055E8, symSize: 0x18 }
  - { offsetInCU: 0x26119, offset: 0x26119, size: 0x8, addend: 0x0, symName: __ZNSt3__115basic_streambufIcNS_11char_traitsIcEEE5sputnB8ue170006EPKcl, symObjAddr: 0x4E28, symBinAddr: 0x100005600, symSize: 0x3C }
  - { offsetInCU: 0x2615B, offset: 0x2615B, size: 0x8, addend: 0x0, symName: __ZNSt3__112basic_stringIcNS_11char_traitsIcEENS_9allocatorIcEEEC1B8ue170006Emc, symObjAddr: 0x4E64, symBinAddr: 0x10000563C, symSize: 0x3C }
  - { offsetInCU: 0x261A3, offset: 0x261A3, size: 0x8, addend: 0x0, symName: __ZNKSt3__112basic_stringIcNS_11char_traitsIcEENS_9allocatorIcEEE4dataB8ue170006Ev, symObjAddr: 0x4EA0, symBinAddr: 0x100005678, symSize: 0x28 }
  - { offsetInCU: 0x261C9, offset: 0x261C9, size: 0x8, addend: 0x0, symName: __ZNSt3__18ios_base5widthB8ue170006El, symObjAddr: 0x4EC8, symBinAddr: 0x1000056A0, symSize: 0x2C }
  - { offsetInCU: 0x2620F, offset: 0x2620F, size: 0x8, addend: 0x0, symName: __ZNSt3__112basic_stringIcNS_11char_traitsIcEENS_9allocatorIcEEEC2B8ue170006Emc, symObjAddr: 0x4EF4, symBinAddr: 0x1000056CC, symSize: 0x4C }
  - { offsetInCU: 0x2625C, offset: 0x2625C, size: 0x8, addend: 0x0, symName: __ZNSt3__117__compressed_pairINS_12basic_stringIcNS_11char_traitsIcEENS_9allocatorIcEEE5__repES5_EC1B8ue170006INS_18__default_init_tagESA_EEOT_OT0_, symObjAddr: 0x4F40, symBinAddr: 0x100005718, symSize: 0x3C }
  - { offsetInCU: 0x262B4, offset: 0x262B4, size: 0x8, addend: 0x0, symName: __ZNSt3__117__compressed_pairINS_12basic_stringIcNS_11char_traitsIcEENS_9allocatorIcEEE5__repES5_EC2B8ue170006INS_18__default_init_tagESA_EEOT_OT0_, symObjAddr: 0x4F7C, symBinAddr: 0x100005754, symSize: 0x3C }
  - { offsetInCU: 0x2630C, offset: 0x2630C, size: 0x8, addend: 0x0, symName: __ZNSt3__122__compressed_pair_elemINS_12basic_stringIcNS_11char_traitsIcEENS_9allocatorIcEEE5__repELi0ELb0EEC2B8ue170006ENS_18__default_init_tagE, symObjAddr: 0x4FB8, symBinAddr: 0x100005790, symSize: 0x14 }
  - { offsetInCU: 0x26341, offset: 0x26341, size: 0x8, addend: 0x0, symName: __ZNSt3__122__compressed_pair_elemINS_9allocatorIcEELi1ELb1EEC2B8ue170006ENS_18__default_init_tagE, symObjAddr: 0x4FCC, symBinAddr: 0x1000057A4, symSize: 0x2C }
  - { offsetInCU: 0x26376, offset: 0x26376, size: 0x8, addend: 0x0, symName: __ZNSt3__19allocatorIcEC2B8ue170006Ev, symObjAddr: 0x4FF8, symBinAddr: 0x1000057D0, symSize: 0x2C }
  - { offsetInCU: 0x263A0, offset: 0x263A0, size: 0x8, addend: 0x0, symName: __ZNSt3__116__non_trivial_ifILb1ENS_9allocatorIcEEEC2B8ue170006Ev, symObjAddr: 0x5024, symBinAddr: 0x1000057FC, symSize: 0x14 }
  - { offsetInCU: 0x263CA, offset: 0x263CA, size: 0x8, addend: 0x0, symName: __ZNKSt3__112basic_stringIcNS_11char_traitsIcEENS_9allocatorIcEEE13__get_pointerB8ue170006Ev, symObjAddr: 0x504C, symBinAddr: 0x100005824, symSize: 0x54 }
  - { offsetInCU: 0x263F0, offset: 0x263F0, size: 0x8, addend: 0x0, symName: __ZNKSt3__112basic_stringIcNS_11char_traitsIcEENS_9allocatorIcEEE9__is_longB8ue170006Ev, symObjAddr: 0x50A0, symBinAddr: 0x100005878, symSize: 0x38 }
  - { offsetInCU: 0x26416, offset: 0x26416, size: 0x8, addend: 0x0, symName: __ZNKSt3__112basic_stringIcNS_11char_traitsIcEENS_9allocatorIcEEE18__get_long_pointerB8ue170006Ev, symObjAddr: 0x50D8, symBinAddr: 0x1000058B0, symSize: 0x28 }
  - { offsetInCU: 0x2643C, offset: 0x2643C, size: 0x8, addend: 0x0, symName: __ZNKSt3__112basic_stringIcNS_11char_traitsIcEENS_9allocatorIcEEE19__get_short_pointerB8ue170006Ev, symObjAddr: 0x5100, symBinAddr: 0x1000058D8, symSize: 0x28 }
  - { offsetInCU: 0x26462, offset: 0x26462, size: 0x8, addend: 0x0, symName: __ZNKSt3__117__compressed_pairINS_12basic_stringIcNS_11char_traitsIcEENS_9allocatorIcEEE5__repES5_E5firstB8ue170006Ev, symObjAddr: 0x5128, symBinAddr: 0x100005900, symSize: 0x24 }
  - { offsetInCU: 0x26488, offset: 0x26488, size: 0x8, addend: 0x0, symName: __ZNKSt3__122__compressed_pair_elemINS_12basic_stringIcNS_11char_traitsIcEENS_9allocatorIcEEE5__repELi0ELb0EE5__getB8ue170006Ev, symObjAddr: 0x514C, symBinAddr: 0x100005924, symSize: 0x14 }
  - { offsetInCU: 0x264AE, offset: 0x264AE, size: 0x8, addend: 0x0, symName: __ZNSt3__114pointer_traitsIPKcE10pointer_toB8ue170006ERS1_, symObjAddr: 0x5160, symBinAddr: 0x100005938, symSize: 0x14 }
  - { offsetInCU: 0x264D1, offset: 0x264D1, size: 0x8, addend: 0x0, symName: __ZNSt3__119ostreambuf_iteratorIcNS_11char_traitsIcEEEC2B8ue170006ERNS_13basic_ostreamIcS2_EE, symObjAddr: 0x5174, symBinAddr: 0x10000594C, symSize: 0x54 }
  - { offsetInCU: 0x26509, offset: 0x26509, size: 0x8, addend: 0x0, symName: __ZNKSt3__19basic_iosIcNS_11char_traitsIcEEE5rdbufB8ue170006Ev, symObjAddr: 0x51C8, symBinAddr: 0x1000059A0, symSize: 0x24 }
  - { offsetInCU: 0x26531, offset: 0x26531, size: 0x8, addend: 0x0, symName: __ZNKSt3__18ios_base5rdbufB8ue170006Ev, symObjAddr: 0x51EC, symBinAddr: 0x1000059C4, symSize: 0x18 }
  - { offsetInCU: 0x26557, offset: 0x26557, size: 0x8, addend: 0x0, symName: __ZNSt3__111char_traitsIcE11eq_int_typeB8ue170006Eii, symObjAddr: 0x5204, symBinAddr: 0x1000059DC, symSize: 0x28 }
  - { offsetInCU: 0x2658A, offset: 0x2658A, size: 0x8, addend: 0x0, symName: __ZNSt3__111char_traitsIcE3eofB8ue170006Ev, symObjAddr: 0x522C, symBinAddr: 0x100005A04, symSize: 0x8 }
  - { offsetInCU: 0x2659E, offset: 0x2659E, size: 0x8, addend: 0x0, symName: __ZNKSt3__19basic_iosIcNS_11char_traitsIcEEE5widenB8ue170006Ec, symObjAddr: 0x5234, symBinAddr: 0x100005A0C, symSize: 0x84 }
  - { offsetInCU: 0x2660C, offset: 0x2660C, size: 0x8, addend: 0x0, symName: __ZNKSt3__15ctypeIcE5widenB8ue170006Ec, symObjAddr: 0x52E4, symBinAddr: 0x100005ABC, symSize: 0x38 }
  - { offsetInCU: 0x26641, offset: 0x26641, size: 0x8, addend: 0x0, symName: __ZNSt3__18ios_base8setstateB8ue170006Ej, symObjAddr: 0x531C, symBinAddr: 0x100005AF4, symSize: 0x34 }
  - { offsetInCU: 0x26678, offset: 0x26678, size: 0x8, addend: 0x0, symName: __ZNK5Eigen9DenseBaseINS_5ArrayIiLin1ELin1ELi0ELin1ELin1EEEE4evalEv, symObjAddr: 0x58E8, symBinAddr: 0x1000060C0, symSize: 0x24 }
  - { offsetInCU: 0x266A3, offset: 0x266A3, size: 0x8, addend: 0x0, symName: __ZNSt3__112basic_stringIcNS_11char_traitsIcEENS_9allocatorIcEEEC1B8ue170006ILi0EEEPKc, symObjAddr: 0x590C, symBinAddr: 0x1000060E4, symSize: 0x34 }
  - { offsetInCU: 0x266E2, offset: 0x266E2, size: 0x8, addend: 0x0, symName: __ZN5Eigen8IOFormatC1EiiRKNSt3__112basic_stringIcNS1_11char_traitsIcEENS1_9allocatorIcEEEES9_S9_S9_S9_S9_c, symObjAddr: 0x5940, symBinAddr: 0x100006118, symSize: 0x88 }
  - { offsetInCU: 0x2678A, offset: 0x2678A, size: 0x8, addend: 0x0, symName: __ZN5Eigen8IOFormatD1Ev, symObjAddr: 0x59C8, symBinAddr: 0x1000061A0, symSize: 0x2C }
  - { offsetInCU: 0x267B6, offset: 0x267B6, size: 0x8, addend: 0x0, symName: __ZNK5Eigen9EigenBaseINS_5ArrayIiLin1ELin1ELi0ELin1ELin1EEEE4sizeEv, symObjAddr: 0x59F4, symBinAddr: 0x1000061CC, symSize: 0x44 }
  - { offsetInCU: 0x267DC, offset: 0x267DC, size: 0x8, addend: 0x0, symName: __ZNSt3__18ios_base9precisionB8ue170006El, symObjAddr: 0x5A84, symBinAddr: 0x10000625C, symSize: 0x2C }
  - { offsetInCU: 0x268F1, offset: 0x268F1, size: 0x8, addend: 0x0, symName: __ZNSt3__118basic_stringstreamIcNS_11char_traitsIcEENS_9allocatorIcEEEC1B8ue170006Ev, symObjAddr: 0x5AB0, symBinAddr: 0x100006288, symSize: 0x104 }
  - { offsetInCU: 0x2691B, offset: 0x2691B, size: 0x8, addend: 0x0, symName: __ZNK5Eigen15PlainObjectBaseINS_5ArrayIiLin1ELin1ELi0ELin1ELin1EEEE5coeffEll, symObjAddr: 0x5BB4, symBinAddr: 0x10000638C, symSize: 0x6C }
  - { offsetInCU: 0x2695D, offset: 0x2695D, size: 0x8, addend: 0x0, symName: __ZNKSt3__118basic_stringstreamIcNS_11char_traitsIcEENS_9allocatorIcEEE3strB8ue170006Ev, symObjAddr: 0x5C4C, symBinAddr: 0x100006424, symSize: 0x30 }
  - { offsetInCU: 0x26983, offset: 0x26983, size: 0x8, addend: 0x0, symName: __ZNKSt3__112basic_stringIcNS_11char_traitsIcEENS_9allocatorIcEEE6lengthB8ue170006Ev, symObjAddr: 0x5C7C, symBinAddr: 0x100006454, symSize: 0x24 }
  - { offsetInCU: 0x269AE, offset: 0x269AE, size: 0x8, addend: 0x0, symName: __ZNSt3__118basic_stringstreamIcNS_11char_traitsIcEENS_9allocatorIcEEED1Ev, symObjAddr: 0x5CA0, symBinAddr: 0x100006478, symSize: 0x40 }
  - { offsetInCU: 0x269DB, offset: 0x269DB, size: 0x8, addend: 0x0, symName: __ZNSt3__19basic_iosIcNS_11char_traitsIcEEE4fillB8ue170006Ec, symObjAddr: 0x5CE0, symBinAddr: 0x1000064B8, symSize: 0x74 }
  - { offsetInCU: 0x26A21, offset: 0x26A21, size: 0x8, addend: 0x0, symName: __ZNKSt3__112basic_stringIcNS_11char_traitsIcEENS_9allocatorIcEEE4sizeB8ue170006Ev, symObjAddr: 0x5D54, symBinAddr: 0x10000652C, symSize: 0x54 }
  - { offsetInCU: 0x26A47, offset: 0x26A47, size: 0x8, addend: 0x0, symName: __ZNKSt3__112basic_stringIcNS_11char_traitsIcEENS_9allocatorIcEEE15__get_long_sizeB8ue170006Ev, symObjAddr: 0x5DA8, symBinAddr: 0x100006580, symSize: 0x28 }
  - { offsetInCU: 0x26A6D, offset: 0x26A6D, size: 0x8, addend: 0x0, symName: __ZNKSt3__112basic_stringIcNS_11char_traitsIcEENS_9allocatorIcEEE16__get_short_sizeB8ue170006Ev, symObjAddr: 0x5DD0, symBinAddr: 0x1000065A8, symSize: 0x34 }
  - { offsetInCU: 0x26A93, offset: 0x26A93, size: 0x8, addend: 0x0, symName: __ZNSt3__19basic_iosIcNS_11char_traitsIcEEEC2B8ue170006Ev, symObjAddr: 0x5E04, symBinAddr: 0x1000065DC, symSize: 0x44 }
  - { offsetInCU: 0x26ABD, offset: 0x26ABD, size: 0x8, addend: 0x0, symName: __ZNSt3__114basic_iostreamIcNS_11char_traitsIcEEEC2B8ue170006EPNS_15basic_streambufIcS2_EE, symObjAddr: 0x5E48, symBinAddr: 0x100006620, symSize: 0xAC }
  - { offsetInCU: 0x26B03, offset: 0x26B03, size: 0x8, addend: 0x0, symName: __ZNSt3__115basic_stringbufIcNS_11char_traitsIcEENS_9allocatorIcEEEC1B8ue170006Ej, symObjAddr: 0x5EF4, symBinAddr: 0x1000066CC, symSize: 0x34 }
  - { offsetInCU: 0x26B3C, offset: 0x26B3C, size: 0x8, addend: 0x0, symName: __ZNSt3__18ios_baseC2B8ue170006Ev, symObjAddr: 0x5F28, symBinAddr: 0x100006700, symSize: 0x24 }
  - { offsetInCU: 0x26B66, offset: 0x26B66, size: 0x8, addend: 0x0, symName: __ZNSt3__113basic_istreamIcNS_11char_traitsIcEEEC2B8ue170006EPNS_15basic_streambufIcS2_EE, symObjAddr: 0x5F4C, symBinAddr: 0x100006724, symSize: 0x64 }
  - { offsetInCU: 0x26BAB, offset: 0x26BAB, size: 0x8, addend: 0x0, symName: __ZNSt3__113basic_ostreamIcNS_11char_traitsIcEEEC2B8ue170006Ev, symObjAddr: 0x5FB0, symBinAddr: 0x100006788, symSize: 0x34 }
  - { offsetInCU: 0x26BE2, offset: 0x26BE2, size: 0x8, addend: 0x0, symName: __ZNSt3__19basic_iosIcNS_11char_traitsIcEEE4initB8ue170006EPNS_15basic_streambufIcS2_EE, symObjAddr: 0x5FE4, symBinAddr: 0x1000067BC, symSize: 0x44 }
  - { offsetInCU: 0x26C19, offset: 0x26C19, size: 0x8, addend: 0x0, symName: __ZNSt3__115basic_stringbufIcNS_11char_traitsIcEENS_9allocatorIcEEEC2B8ue170006Ej, symObjAddr: 0x6028, symBinAddr: 0x100006800, symSize: 0x60 }
  - { offsetInCU: 0x26C52, offset: 0x26C52, size: 0x8, addend: 0x0, symName: __ZNSt3__112basic_stringIcNS_11char_traitsIcEENS_9allocatorIcEEEC1B8ue170006Ev, symObjAddr: 0x6088, symBinAddr: 0x100006860, symSize: 0x2C }
  - { offsetInCU: 0x26C7C, offset: 0x26C7C, size: 0x8, addend: 0x0, symName: __ZNSt3__112basic_stringIcNS_11char_traitsIcEENS_9allocatorIcEEEC2B8ue170006Ev, symObjAddr: 0x60B4, symBinAddr: 0x10000688C, symSize: 0x48 }
  - { offsetInCU: 0x26CA6, offset: 0x26CA6, size: 0x8, addend: 0x0, symName: __ZNSt3__112basic_stringIcNS_11char_traitsIcEENS_9allocatorIcEEE14__default_initB8ue170006Ev, symObjAddr: 0x60FC, symBinAddr: 0x1000068D4, symSize: 0x40 }
  - { offsetInCU: 0x26CCC, offset: 0x26CCC, size: 0x8, addend: 0x0, symName: __ZNSt3__117__compressed_pairINS_12basic_stringIcNS_11char_traitsIcEENS_9allocatorIcEEE5__repES5_E5firstB8ue170006Ev, symObjAddr: 0x613C, symBinAddr: 0x100006914, symSize: 0x24 }
  - { offsetInCU: 0x26CF2, offset: 0x26CF2, size: 0x8, addend: 0x0, symName: __ZNSt3__122__compressed_pair_elemINS_12basic_stringIcNS_11char_traitsIcEENS_9allocatorIcEEE5__repELi0ELb0EE5__getB8ue170006Ev, symObjAddr: 0x6160, symBinAddr: 0x100006938, symSize: 0x14 }
  - { offsetInCU: 0x26D2C, offset: 0x26D2C, size: 0x8, addend: 0x0, symName: __ZNKSt3__16__lessIvvEclB8ue170006IllEEbRKT_RKT0_, symObjAddr: 0x61C8, symBinAddr: 0x1000069A0, symSize: 0x34 }
  - { offsetInCU: 0x26D80, offset: 0x26D80, size: 0x8, addend: 0x0, symName: __ZNSt3__118basic_stringstreamIcNS_11char_traitsIcEENS_9allocatorIcEEED2Ev, symObjAddr: 0x61FC, symBinAddr: 0x1000069D4, symSize: 0x6C }
  - { offsetInCU: 0x26DBA, offset: 0x26DBA, size: 0x8, addend: 0x0, symName: __ZThn16_NSt3__118basic_stringstreamIcNS_11char_traitsIcEENS_9allocatorIcEEED1Ev, symObjAddr: 0x6268, symBinAddr: 0x100006A40, symSize: 0x1C }
  - { offsetInCU: 0x26DD1, offset: 0x26DD1, size: 0x8, addend: 0x0, symName: __ZTv0_n24_NSt3__118basic_stringstreamIcNS_11char_traitsIcEENS_9allocatorIcEEED1Ev, symObjAddr: 0x6284, symBinAddr: 0x100006A5C, symSize: 0x28 }
  - { offsetInCU: 0x26DED, offset: 0x26DED, size: 0x8, addend: 0x0, symName: __ZNSt3__115basic_stringbufIcNS_11char_traitsIcEENS_9allocatorIcEEED1Ev, symObjAddr: 0x62AC, symBinAddr: 0x100006A84, symSize: 0x2C }
  - { offsetInCU: 0x26E1A, offset: 0x26E1A, size: 0x8, addend: 0x0, symName: __ZNSt3__115basic_stringbufIcNS_11char_traitsIcEENS_9allocatorIcEEED2Ev, symObjAddr: 0x62D8, symBinAddr: 0x100006AB0, symSize: 0x48 }
  - { offsetInCU: 0x26E47, offset: 0x26E47, size: 0x8, addend: 0x0, symName: __ZNSt3__112basic_stringIcNS_11char_traitsIcEENS_9allocatorIcEEEC2B8ue170006ILi0EEEPKc, symObjAddr: 0x6320, symBinAddr: 0x100006AF8, symSize: 0x58 }
  - { offsetInCU: 0x26E86, offset: 0x26E86, size: 0x8, addend: 0x0, symName: __ZN5Eigen8IOFormatC2EiiRKNSt3__112basic_stringIcNS1_11char_traitsIcEENS1_9allocatorIcEEEES9_S9_S9_S9_S9_c, symObjAddr: 0x6378, symBinAddr: 0x100006B50, symSize: 0x284 }
  - { offsetInCU: 0x26F45, offset: 0x26F45, size: 0x8, addend: 0x0, symName: __ZNSt3__112basic_stringIcNS_11char_traitsIcEENS_9allocatorIcEEEixB8ue170006Em, symObjAddr: 0x65FC, symBinAddr: 0x100006DD4, symSize: 0x30 }
  - { offsetInCU: 0x26F7A, offset: 0x26F7A, size: 0x8, addend: 0x0, symName: __ZNSt3__112basic_stringIcNS_11char_traitsIcEENS_9allocatorIcEEEpLB8ue170006Ec, symObjAddr: 0x662C, symBinAddr: 0x100006E04, symSize: 0x34 }
  - { offsetInCU: 0x26FAF, offset: 0x26FAF, size: 0x8, addend: 0x0, symName: __ZNSt3__112basic_stringIcNS_11char_traitsIcEENS_9allocatorIcEEE13__get_pointerB8ue170006Ev, symObjAddr: 0x6660, symBinAddr: 0x100006E38, symSize: 0x54 }
  - { offsetInCU: 0x26FD5, offset: 0x26FD5, size: 0x8, addend: 0x0, symName: __ZNSt3__112basic_stringIcNS_11char_traitsIcEENS_9allocatorIcEEE18__get_long_pointerB8ue170006Ev, symObjAddr: 0x66B4, symBinAddr: 0x100006E8C, symSize: 0x28 }
  - { offsetInCU: 0x26FFB, offset: 0x26FFB, size: 0x8, addend: 0x0, symName: __ZNSt3__112basic_stringIcNS_11char_traitsIcEENS_9allocatorIcEEE19__get_short_pointerB8ue170006Ev, symObjAddr: 0x66DC, symBinAddr: 0x100006EB4, symSize: 0x28 }
  - { offsetInCU: 0x27021, offset: 0x27021, size: 0x8, addend: 0x0, symName: __ZNSt3__114pointer_traitsIPcE10pointer_toB8ue170006ERc, symObjAddr: 0x6704, symBinAddr: 0x100006EDC, symSize: 0x14 }
  - { offsetInCU: 0x27044, offset: 0x27044, size: 0x8, addend: 0x0, symName: __ZN5Eigen8IOFormatD2Ev, symObjAddr: 0x6718, symBinAddr: 0x100006EF0, symSize: 0x74 }
  - { offsetInCU: 0x27075, offset: 0x27075, size: 0x8, addend: 0x0, symName: __ZN5Eigen9ReplicateINS_6MatrixIiLin1ELi1ELi0ELin1ELi1EEELin1ELin1EEC1IS2_EERKT_ll, symObjAddr: 0x678C, symBinAddr: 0x100006F64, symSize: 0x44 }
  - { offsetInCU: 0x270D2, offset: 0x270D2, size: 0x8, addend: 0x0, symName: __ZN5Eigen9ReplicateINS_6MatrixIiLin1ELi1ELi0ELin1ELi1EEELin1ELin1EEC2IS2_EERKT_ll, symObjAddr: 0x67D0, symBinAddr: 0x100006FA8, symSize: 0x60 }
  - { offsetInCU: 0x2712F, offset: 0x2712F, size: 0x8, addend: 0x0, symName: __ZN5Eigen10MatrixBaseINS_9ReplicateINS_6MatrixIiLin1ELi1ELi0ELin1ELi1EEELin1ELin1EEEEC2Ev, symObjAddr: 0x6830, symBinAddr: 0x100007008, symSize: 0x2C }
  - { offsetInCU: 0x27159, offset: 0x27159, size: 0x8, addend: 0x0, symName: __ZN5Eigen9DenseBaseINS_9ReplicateINS_6MatrixIiLin1ELi1ELi0ELin1ELi1EEELin1ELin1EEEEC2Ev, symObjAddr: 0x685C, symBinAddr: 0x100007034, symSize: 0x14 }
  - { offsetInCU: 0x27183, offset: 0x27183, size: 0x8, addend: 0x0, symName: __ZN5Eigen5ArrayIiLin1ELin1ELi0ELin1ELin1EEC2INS_9ReplicateINS_6MatrixIiLin1ELi1ELi0ELin1ELi1EEELin1ELin1EEEEERKNS_9EigenBaseIT_EENS_8internal9enable_ifIXsr8internal14is_convertibleINS8_6ScalarEiEE5valueENS1_11PrivateTypeEE4typeE, symObjAddr: 0x6870, symBinAddr: 0x100007048, symSize: 0x40 }
  - { offsetInCU: 0x271D0, offset: 0x271D0, size: 0x8, addend: 0x0, symName: __ZNK5Eigen9EigenBaseINS_9ReplicateINS_6MatrixIiLin1ELi1ELi0ELin1ELi1EEELin1ELin1EEEE7derivedEv, symObjAddr: 0x68B0, symBinAddr: 0x100007088, symSize: 0x14 }
  - { offsetInCU: 0x271F6, offset: 0x271F6, size: 0x8, addend: 0x0, symName: __ZN5Eigen15PlainObjectBaseINS_5ArrayIiLin1ELin1ELi0ELin1ELin1EEEEC2INS_9ReplicateINS_6MatrixIiLin1ELi1ELi0ELin1ELi1EEELin1ELin1EEEEERKNS_9DenseBaseIT_EE, symObjAddr: 0x68C4, symBinAddr: 0x10000709C, symSize: 0x80 }
  - { offsetInCU: 0x27238, offset: 0x27238, size: 0x8, addend: 0x0, symName: __ZN5Eigen15PlainObjectBaseINS_5ArrayIiLin1ELin1ELi0ELin1ELin1EEEE10resizeLikeINS_9ReplicateINS_6MatrixIiLin1ELi1ELi0ELin1ELi1EEELin1ELin1EEEEEvRKNS_9EigenBaseIT_EE, symObjAddr: 0x6944, symBinAddr: 0x10000711C, symSize: 0x11C }
  - { offsetInCU: 0x272CC, offset: 0x272CC, size: 0x8, addend: 0x0, symName: __ZN5Eigen15PlainObjectBaseINS_5ArrayIiLin1ELin1ELi0ELin1ELin1EEEE12_set_noaliasINS_9ReplicateINS_6MatrixIiLin1ELi1ELi0ELin1ELi1EEELin1ELin1EEEEERS2_RKNS_9DenseBaseIT_EE, symObjAddr: 0x6A60, symBinAddr: 0x100007238, symSize: 0x60 }
  - { offsetInCU: 0x2730A, offset: 0x2730A, size: 0x8, addend: 0x0, symName: __ZNK5Eigen9ReplicateINS_6MatrixIiLin1ELi1ELi0ELin1ELi1EEELin1ELin1EE4rowsEv, symObjAddr: 0x6AC0, symBinAddr: 0x100007298, symSize: 0x48 }
  - { offsetInCU: 0x27330, offset: 0x27330, size: 0x8, addend: 0x0, symName: __ZNK5Eigen9ReplicateINS_6MatrixIiLin1ELi1ELi0ELin1ELi1EEELin1ELin1EE4colsEv, symObjAddr: 0x6B08, symBinAddr: 0x1000072E0, symSize: 0x48 }
  - { offsetInCU: 0x27356, offset: 0x27356, size: 0x8, addend: 0x0, symName: __ZN5Eigen8internal10AssignmentINS_5ArrayIiLin1ELin1ELi0ELin1ELin1EEENS_9ReplicateINS_6MatrixIiLin1ELi1ELi0ELin1ELi1EEELin1ELin1EEENS0_9assign_opIiiEENS0_11Dense2DenseEvE3runERS3_RKS7_RKS9_, symObjAddr: 0x6B8C, symBinAddr: 0x100007364, symSize: 0x40 }
  - { offsetInCU: 0x27398, offset: 0x27398, size: 0x8, addend: 0x0, symName: __ZN5Eigen8internal27checkTransposeAliasing_implINS_5ArrayIiLin1ELin1ELi0ELin1ELin1EEENS_9ReplicateINS_6MatrixIiLin1ELi1ELi0ELin1ELi1EEELin1ELin1EEELb0EE3runERKS3_RKS7_, symObjAddr: 0x6D04, symBinAddr: 0x1000074DC, symSize: 0x14 }
  - { offsetInCU: 0x2742C, offset: 0x2742C, size: 0x8, addend: 0x0, symName: __ZN5Eigen8internal9evaluatorINS_9ReplicateINS_6MatrixIiLin1ELi1ELi0ELin1ELi1EEELin1ELin1EEEEC1ERKS5_, symObjAddr: 0x6D18, symBinAddr: 0x1000074F0, symSize: 0x34 }
  - { offsetInCU: 0x27491, offset: 0x27491, size: 0x8, addend: 0x0, symName: __ZN5Eigen8internal31generic_dense_assignment_kernelINS0_9evaluatorINS_5ArrayIiLin1ELin1ELi0ELin1ELin1EEEEENS2_INS_9ReplicateINS_6MatrixIiLin1ELi1ELi0ELin1ELi1EEELin1ELin1EEEEENS0_9assign_opIiiEELi0EEC1ERS5_RKSA_RKSC_RS4_, symObjAddr: 0x6E44, symBinAddr: 0x10000761C, symSize: 0x4C }
  - { offsetInCU: 0x274FC, offset: 0x274FC, size: 0x8, addend: 0x0, symName: __ZN5Eigen8internal21dense_assignment_loopINS0_31generic_dense_assignment_kernelINS0_9evaluatorINS_5ArrayIiLin1ELin1ELi0ELin1ELin1EEEEENS3_INS_9ReplicateINS_6MatrixIiLin1ELi1ELi0ELin1ELi1EEELin1ELin1EEEEENS0_9assign_opIiiEELi0EEELi0ELi0EE3runERSE_, symObjAddr: 0x6E90, symBinAddr: 0x100007668, symSize: 0xAC }
  - { offsetInCU: 0x2755A, offset: 0x2755A, size: 0x8, addend: 0x0, symName: __ZN5Eigen8internal9evaluatorINS_9ReplicateINS_6MatrixIiLin1ELi1ELi0ELin1ELi1EEELin1ELin1EEEED1Ev, symObjAddr: 0x6F3C, symBinAddr: 0x100007714, symSize: 0x2C }
  - { offsetInCU: 0x27586, offset: 0x27586, size: 0x8, addend: 0x0, symName: __ZN5Eigen8internal9evaluatorINS_9ReplicateINS_6MatrixIiLin1ELi1ELi0ELin1ELi1EEELin1ELin1EEEEC2ERKS5_, symObjAddr: 0x6F68, symBinAddr: 0x100007740, symSize: 0x34 }
  - { offsetInCU: 0x275BE, offset: 0x275BE, size: 0x8, addend: 0x0, symName: __ZN5Eigen8internal15unary_evaluatorINS_9ReplicateINS_6MatrixIiLin1ELi1ELi0ELin1ELi1EEELin1ELin1EEENS0_10IndexBasedEiEC2ERKS5_, symObjAddr: 0x6F9C, symBinAddr: 0x100007774, symSize: 0x104 }
  - { offsetInCU: 0x275F7, offset: 0x275F7, size: 0x8, addend: 0x0, symName: __ZN5Eigen8internal14evaluator_baseINS_9ReplicateINS_6MatrixIiLin1ELi1ELi0ELin1ELi1EEELin1ELin1EEEEC2Ev, symObjAddr: 0x70A0, symBinAddr: 0x100007878, symSize: 0x14 }
  - { offsetInCU: 0x27621, offset: 0x27621, size: 0x8, addend: 0x0, symName: __ZNK5Eigen9ReplicateINS_6MatrixIiLin1ELi1ELi0ELin1ELi1EEELin1ELin1EE16nestedExpressionEv, symObjAddr: 0x70B4, symBinAddr: 0x10000788C, symSize: 0x18 }
  - { offsetInCU: 0x27647, offset: 0x27647, size: 0x8, addend: 0x0, symName: __ZN5Eigen8internal9evaluatorINS_6MatrixIiLin1ELi1ELi0ELin1ELi1EEEEC1ERKS3_, symObjAddr: 0x70CC, symBinAddr: 0x1000078A4, symSize: 0x34 }
  - { offsetInCU: 0x27680, offset: 0x27680, size: 0x8, addend: 0x0, symName: __ZN5Eigen8internal9evaluatorINS_6MatrixIiLin1ELi1ELi0ELin1ELi1EEEED1Ev, symObjAddr: 0x7100, symBinAddr: 0x1000078D8, symSize: 0x2C }
  - { offsetInCU: 0x276AD, offset: 0x276AD, size: 0x8, addend: 0x0, symName: __ZN5Eigen8internal14evaluator_baseINS_9ReplicateINS_6MatrixIiLin1ELi1ELi0ELin1ELi1EEELin1ELin1EEEED2Ev, symObjAddr: 0x712C, symBinAddr: 0x100007904, symSize: 0x14 }
  - { offsetInCU: 0x276D7, offset: 0x276D7, size: 0x8, addend: 0x0, symName: __ZN5Eigen8internal9evaluatorINS_6MatrixIiLin1ELi1ELi0ELin1ELi1EEEEC2ERKS3_, symObjAddr: 0x7140, symBinAddr: 0x100007918, symSize: 0x34 }
  - { offsetInCU: 0x27710, offset: 0x27710, size: 0x8, addend: 0x0, symName: __ZN5Eigen8internal9evaluatorINS_15PlainObjectBaseINS_6MatrixIiLin1ELi1ELi0ELin1ELi1EEEEEEC2ERKS5_, symObjAddr: 0x7174, symBinAddr: 0x10000794C, symSize: 0x78 }
  - { offsetInCU: 0x27748, offset: 0x27748, size: 0x8, addend: 0x0, symName: __ZN5Eigen8internal14evaluator_baseINS_6MatrixIiLin1ELi1ELi0ELin1ELi1EEEEC2Ev, symObjAddr: 0x71EC, symBinAddr: 0x1000079C4, symSize: 0x14 }
  - { offsetInCU: 0x27772, offset: 0x27772, size: 0x8, addend: 0x0, symName: __ZNK5Eigen15PlainObjectBaseINS_6MatrixIiLin1ELi1ELi0ELin1ELi1EEEE4dataEv, symObjAddr: 0x7200, symBinAddr: 0x1000079D8, symSize: 0x24 }
  - { offsetInCU: 0x27798, offset: 0x27798, size: 0x8, addend: 0x0, symName: __ZN5Eigen8internal14evaluator_baseINS_6MatrixIiLin1ELi1ELi0ELin1ELi1EEEED2Ev, symObjAddr: 0x7224, symBinAddr: 0x1000079FC, symSize: 0x14 }
  - { offsetInCU: 0x277C2, offset: 0x277C2, size: 0x8, addend: 0x0, symName: __ZN5Eigen8internal9evaluatorINS_6MatrixIiLin1ELi1ELi0ELin1ELi1EEEED2Ev, symObjAddr: 0x7238, symBinAddr: 0x100007A10, symSize: 0x2C }
  - { offsetInCU: 0x277EF, offset: 0x277EF, size: 0x8, addend: 0x0, symName: __ZN5Eigen8internal9evaluatorINS_15PlainObjectBaseINS_6MatrixIiLin1ELi1ELi0ELin1ELi1EEEEEED2Ev, symObjAddr: 0x7264, symBinAddr: 0x100007A3C, symSize: 0x2C }
  - { offsetInCU: 0x2781B, offset: 0x2781B, size: 0x8, addend: 0x0, symName: __ZN5Eigen8internal31generic_dense_assignment_kernelINS0_9evaluatorINS_5ArrayIiLin1ELin1ELi0ELin1ELin1EEEEENS2_INS_9ReplicateINS_6MatrixIiLin1ELi1ELi0ELin1ELi1EEELin1ELin1EEEEENS0_9assign_opIiiEELi0EEC2ERS5_RKSA_RKSC_RS4_, symObjAddr: 0x7290, symBinAddr: 0x100007A68, symSize: 0x44 }
  - { offsetInCU: 0x27881, offset: 0x27881, size: 0x8, addend: 0x0, symName: __ZNK5Eigen8internal31generic_dense_assignment_kernelINS0_9evaluatorINS_5ArrayIiLin1ELin1ELi0ELin1ELin1EEEEENS2_INS_9ReplicateINS_6MatrixIiLin1ELi1ELi0ELin1ELi1EEELin1ELin1EEEEENS0_9assign_opIiiEELi0EE9outerSizeEv, symObjAddr: 0x72D4, symBinAddr: 0x100007AAC, symSize: 0x28 }
  - { offsetInCU: 0x278A7, offset: 0x278A7, size: 0x8, addend: 0x0, symName: __ZNK5Eigen8internal31generic_dense_assignment_kernelINS0_9evaluatorINS_5ArrayIiLin1ELin1ELi0ELin1ELin1EEEEENS2_INS_9ReplicateINS_6MatrixIiLin1ELi1ELi0ELin1ELi1EEELin1ELin1EEEEENS0_9assign_opIiiEELi0EE9innerSizeEv, symObjAddr: 0x72FC, symBinAddr: 0x100007AD4, symSize: 0x28 }
  - { offsetInCU: 0x278CD, offset: 0x278CD, size: 0x8, addend: 0x0, symName: __ZN5Eigen8internal31generic_dense_assignment_kernelINS0_9evaluatorINS_5ArrayIiLin1ELin1ELi0ELin1ELin1EEEEENS2_INS_9ReplicateINS_6MatrixIiLin1ELi1ELi0ELin1ELi1EEELin1ELin1EEEEENS0_9assign_opIiiEELi0EE23assignCoeffByOuterInnerEll, symObjAddr: 0x7324, symBinAddr: 0x100007AFC, symSize: 0x60 }
  - { offsetInCU: 0x2792F, offset: 0x2792F, size: 0x8, addend: 0x0, symName: __ZN5Eigen8internal31generic_dense_assignment_kernelINS0_9evaluatorINS_5ArrayIiLin1ELin1ELi0ELin1ELin1EEEEENS2_INS_9ReplicateINS_6MatrixIiLin1ELi1ELi0ELin1ELi1EEELin1ELin1EEEEENS0_9assign_opIiiEELi0EE20rowIndexByOuterInnerEll, symObjAddr: 0x7384, symBinAddr: 0x100007B5C, symSize: 0x18 }
  - { offsetInCU: 0x27962, offset: 0x27962, size: 0x8, addend: 0x0, symName: __ZN5Eigen8internal31generic_dense_assignment_kernelINS0_9evaluatorINS_5ArrayIiLin1ELin1ELi0ELin1ELin1EEEEENS2_INS_9ReplicateINS_6MatrixIiLin1ELi1ELi0ELin1ELi1EEELin1ELin1EEEEENS0_9assign_opIiiEELi0EE20colIndexByOuterInnerEll, symObjAddr: 0x739C, symBinAddr: 0x100007B74, symSize: 0x18 }
  - { offsetInCU: 0x27995, offset: 0x27995, size: 0x8, addend: 0x0, symName: __ZN5Eigen8internal31generic_dense_assignment_kernelINS0_9evaluatorINS_5ArrayIiLin1ELin1ELi0ELin1ELin1EEEEENS2_INS_9ReplicateINS_6MatrixIiLin1ELi1ELi0ELin1ELi1EEELin1ELin1EEEEENS0_9assign_opIiiEELi0EE11assignCoeffEll, symObjAddr: 0x73B4, symBinAddr: 0x100007B8C, symSize: 0x74 }
  - { offsetInCU: 0x279D9, offset: 0x279D9, size: 0x8, addend: 0x0, symName: __ZNK5Eigen8internal15unary_evaluatorINS_9ReplicateINS_6MatrixIiLin1ELi1ELi0ELin1ELi1EEELin1ELin1EEENS0_10IndexBasedEiE5coeffEll, symObjAddr: 0x7428, symBinAddr: 0x100007C00, symSize: 0x88 }
  - { offsetInCU: 0x27A3B, offset: 0x27A3B, size: 0x8, addend: 0x0, symName: __ZNK5Eigen8internal9evaluatorINS_15PlainObjectBaseINS_6MatrixIiLin1ELi1ELi0ELin1ELi1EEEEEE5coeffEll, symObjAddr: 0x74B0, symBinAddr: 0x100007C88, symSize: 0x5C }
  - { offsetInCU: 0x27A7D, offset: 0x27A7D, size: 0x8, addend: 0x0, symName: __ZN5Eigen8internal9evaluatorINS_9ReplicateINS_6MatrixIiLin1ELi1ELi0ELin1ELi1EEELin1ELin1EEEED2Ev, symObjAddr: 0x750C, symBinAddr: 0x100007CE4, symSize: 0x2C }
  - { offsetInCU: 0x27AA9, offset: 0x27AA9, size: 0x8, addend: 0x0, symName: __ZN5Eigen8internal15unary_evaluatorINS_9ReplicateINS_6MatrixIiLin1ELi1ELi0ELin1ELi1EEELin1ELin1EEENS0_10IndexBasedEiED2Ev, symObjAddr: 0x7538, symBinAddr: 0x100007D10, symSize: 0x38 }
  - { offsetInCU: 0x27AD5, offset: 0x27AD5, size: 0x8, addend: 0x0, symName: __ZN5Eigen8internal13scalar_sum_opIiiEC1Ev, symObjAddr: 0x7570, symBinAddr: 0x100007D48, symSize: 0x2C }
  - { offsetInCU: 0x27AFF, offset: 0x27AFF, size: 0x8, addend: 0x0, symName: __ZN5Eigen13CwiseBinaryOpINS_8internal13scalar_sum_opIiiEEKNS_5ArrayIiLin1ELin1ELi0ELin1ELin1EEES6_EC1ERS6_S8_RKS3_, symObjAddr: 0x759C, symBinAddr: 0x100007D74, symSize: 0x44 }
  - { offsetInCU: 0x27B53, offset: 0x27B53, size: 0x8, addend: 0x0, symName: __ZN5Eigen8internal13scalar_sum_opIiiEC2Ev, symObjAddr: 0x75E0, symBinAddr: 0x100007DB8, symSize: 0x14 }
  - { offsetInCU: 0x27B7D, offset: 0x27B7D, size: 0x8, addend: 0x0, symName: __ZN5Eigen13CwiseBinaryOpINS_8internal13scalar_sum_opIiiEEKNS_5ArrayIiLin1ELin1ELi0ELin1ELin1EEES6_EC2ERS6_S8_RKS3_, symObjAddr: 0x75F4, symBinAddr: 0x100007DCC, symSize: 0xF0 }
  - { offsetInCU: 0x27BD6, offset: 0x27BD6, size: 0x8, addend: 0x0, symName: __ZN5Eigen17CwiseBinaryOpImplINS_8internal13scalar_sum_opIiiEEKNS_5ArrayIiLin1ELin1ELi0ELin1ELin1EEES6_NS_5DenseEEC2Ev, symObjAddr: 0x76E4, symBinAddr: 0x100007EBC, symSize: 0x2C }
  - { offsetInCU: 0x27C02, offset: 0x27C02, size: 0x8, addend: 0x0, symName: __ZN5Eigen8internal13scalar_sum_opIiiEC1ERKS2_, symObjAddr: 0x7710, symBinAddr: 0x100007EE8, symSize: 0x34 }
  - { offsetInCU: 0x27C37, offset: 0x27C37, size: 0x8, addend: 0x0, symName: __ZN5Eigen9ArrayBaseINS_13CwiseBinaryOpINS_8internal13scalar_sum_opIiiEEKNS_5ArrayIiLin1ELin1ELi0ELin1ELin1EEES7_EEEC2Ev, symObjAddr: 0x7744, symBinAddr: 0x100007F1C, symSize: 0x2C }
  - { offsetInCU: 0x27C61, offset: 0x27C61, size: 0x8, addend: 0x0, symName: __ZN5Eigen9DenseBaseINS_13CwiseBinaryOpINS_8internal13scalar_sum_opIiiEEKNS_5ArrayIiLin1ELin1ELi0ELin1ELin1EEES7_EEEC2Ev, symObjAddr: 0x7770, symBinAddr: 0x100007F48, symSize: 0x14 }
  - { offsetInCU: 0x27C8B, offset: 0x27C8B, size: 0x8, addend: 0x0, symName: __ZN5Eigen8internal13scalar_sum_opIiiEC2ERKS2_, symObjAddr: 0x7784, symBinAddr: 0x100007F5C, symSize: 0x18 }
  - { offsetInCU: 0x27CC0, offset: 0x27CC0, size: 0x8, addend: 0x0, symName: __ZNK5Eigen9EigenBaseINS_13CwiseBinaryOpINS_8internal13scalar_sum_opIiiEEKNS_5ArrayIiLin1ELin1ELi0ELin1ELin1EEES7_EEE7derivedEv, symObjAddr: 0x779C, symBinAddr: 0x100007F74, symSize: 0x14 }
  - { offsetInCU: 0x27CE6, offset: 0x27CE6, size: 0x8, addend: 0x0, symName: __ZN5Eigen8internal14scalar_cast_opIifEC1Ev, symObjAddr: 0x77B0, symBinAddr: 0x100007F88, symSize: 0x2C }
  - { offsetInCU: 0x27D10, offset: 0x27D10, size: 0x8, addend: 0x0, symName: __ZN5Eigen12CwiseUnaryOpINS_8internal14scalar_cast_opIifEEKNS_13CwiseBinaryOpINS1_13scalar_sum_opIiiEEKNS_5ArrayIiLin1ELin1ELi0ELin1ELin1EEES9_EEEC1ERSB_RKS3_, symObjAddr: 0x77DC, symBinAddr: 0x100007FB4, symSize: 0x3C }
  - { offsetInCU: 0x27D56, offset: 0x27D56, size: 0x8, addend: 0x0, symName: __ZN5Eigen8internal14scalar_cast_opIifEC2Ev, symObjAddr: 0x7818, symBinAddr: 0x100007FF0, symSize: 0x14 }
  - { offsetInCU: 0x27D80, offset: 0x27D80, size: 0x8, addend: 0x0, symName: __ZN5Eigen12CwiseUnaryOpINS_8internal14scalar_cast_opIifEEKNS_13CwiseBinaryOpINS1_13scalar_sum_opIiiEEKNS_5ArrayIiLin1ELin1ELi0ELin1ELin1EEES9_EEEC2ERSB_RKS3_, symObjAddr: 0x782C, symBinAddr: 0x100008004, symSize: 0x54 }
  - { offsetInCU: 0x27DCB, offset: 0x27DCB, size: 0x8, addend: 0x0, symName: __ZN5Eigen16CwiseUnaryOpImplINS_8internal14scalar_cast_opIifEEKNS_13CwiseBinaryOpINS1_13scalar_sum_opIiiEEKNS_5ArrayIiLin1ELin1ELi0ELin1ELin1EEES9_EENS_5DenseEEC2Ev, symObjAddr: 0x7880, symBinAddr: 0x100008058, symSize: 0x2C }
  - { offsetInCU: 0x27DF7, offset: 0x27DF7, size: 0x8, addend: 0x0, symName: __ZN5Eigen13CwiseBinaryOpINS_8internal13scalar_sum_opIiiEEKNS_5ArrayIiLin1ELin1ELi0ELin1ELin1EEES6_EC1ERKS7_, symObjAddr: 0x78AC, symBinAddr: 0x100008084, symSize: 0x34 }
  - { offsetInCU: 0x27E2C, offset: 0x27E2C, size: 0x8, addend: 0x0, symName: __ZN5Eigen8internal14scalar_cast_opIifEC1ERKS2_, symObjAddr: 0x78E0, symBinAddr: 0x1000080B8, symSize: 0x34 }
  - { offsetInCU: 0x27E61, offset: 0x27E61, size: 0x8, addend: 0x0, symName: __ZN5Eigen9ArrayBaseINS_12CwiseUnaryOpINS_8internal14scalar_cast_opIifEEKNS_13CwiseBinaryOpINS2_13scalar_sum_opIiiEEKNS_5ArrayIiLin1ELin1ELi0ELin1ELin1EEESA_EEEEEC2Ev, symObjAddr: 0x7914, symBinAddr: 0x1000080EC, symSize: 0x2C }
  - { offsetInCU: 0x27E8B, offset: 0x27E8B, size: 0x8, addend: 0x0, symName: __ZN5Eigen9DenseBaseINS_12CwiseUnaryOpINS_8internal14scalar_cast_opIifEEKNS_13CwiseBinaryOpINS2_13scalar_sum_opIiiEEKNS_5ArrayIiLin1ELin1ELi0ELin1ELin1EEESA_EEEEEC2Ev, symObjAddr: 0x7940, symBinAddr: 0x100008118, symSize: 0x14 }
  - { offsetInCU: 0x27EB5, offset: 0x27EB5, size: 0x8, addend: 0x0, symName: __ZN5Eigen13CwiseBinaryOpINS_8internal13scalar_sum_opIiiEEKNS_5ArrayIiLin1ELin1ELi0ELin1ELin1EEES6_EC2ERKS7_, symObjAddr: 0x7954, symBinAddr: 0x10000812C, symSize: 0x48 }
  - { offsetInCU: 0x27EEA, offset: 0x27EEA, size: 0x8, addend: 0x0, symName: __ZN5Eigen8internal14scalar_cast_opIifEC2ERKS2_, symObjAddr: 0x799C, symBinAddr: 0x100008174, symSize: 0x18 }
  - { offsetInCU: 0x27F1F, offset: 0x27F1F, size: 0x8, addend: 0x0, symName: __ZN5Eigen15PlainObjectBaseINS_6MatrixIfLin1ELin1ELi0ELin1ELin1EEEE4_setINS_12CwiseUnaryOpINS_8internal14scalar_cast_opIifEEKNS_13CwiseBinaryOpINS6_13scalar_sum_opIiiEEKNS_5ArrayIiLin1ELin1ELi0ELin1ELin1EEESE_EEEEEERS2_RKNS_9DenseBaseIT_EE, symObjAddr: 0x79B4, symBinAddr: 0x10000818C, symSize: 0x4C }
  - { offsetInCU: 0x27F5D, offset: 0x27F5D, size: 0x8, addend: 0x0, symName: __ZN5Eigen9EigenBaseINS_6MatrixIfLin1ELin1ELi0ELin1ELin1EEEE7derivedEv, symObjAddr: 0x7A50, symBinAddr: 0x100008228, symSize: 0x14 }
  - { offsetInCU: 0x27F83, offset: 0x27F83, size: 0x8, addend: 0x0, symName: __ZNK5Eigen9EigenBaseINS_12CwiseUnaryOpINS_8internal14scalar_cast_opIifEEKNS_13CwiseBinaryOpINS2_13scalar_sum_opIiiEEKNS_5ArrayIiLin1ELin1ELi0ELin1ELin1EEESA_EEEEE7derivedEv, symObjAddr: 0x7A64, symBinAddr: 0x10000823C, symSize: 0x14 }
  - { offsetInCU: 0x27FBD, offset: 0x27FBD, size: 0x8, addend: 0x0, symName: __ZN5Eigen8internal9assign_opIffEC1Ev, symObjAddr: 0x7AB0, symBinAddr: 0x100008288, symSize: 0x2C }
  - { offsetInCU: 0x27FE7, offset: 0x27FE7, size: 0x8, addend: 0x0, symName: __ZN5Eigen8internal10AssignmentINS_6MatrixIfLin1ELin1ELi0ELin1ELin1EEENS_12CwiseUnaryOpINS0_14scalar_cast_opIifEEKNS_13CwiseBinaryOpINS0_13scalar_sum_opIiiEEKNS_5ArrayIiLin1ELin1ELi0ELin1ELin1EEESC_EEEENS0_9assign_opIffEENS0_11Dense2DenseEvE3runERS3_RKSF_RKSH_, symObjAddr: 0x7B18, symBinAddr: 0x1000082F0, symSize: 0x40 }
  - { offsetInCU: 0x28029, offset: 0x28029, size: 0x8, addend: 0x0, symName: __ZNK5Eigen15PlainObjectBaseINS_6MatrixIfLin1ELin1ELi0ELin1ELin1EEEE4rowsEv, symObjAddr: 0x7C98, symBinAddr: 0x100008470, symSize: 0x24 }
  - { offsetInCU: 0x2804F, offset: 0x2804F, size: 0x8, addend: 0x0, symName: __ZNK5Eigen15PlainObjectBaseINS_6MatrixIfLin1ELin1ELi0ELin1ELin1EEEE4colsEv, symObjAddr: 0x7CBC, symBinAddr: 0x100008494, symSize: 0x24 }
  - { offsetInCU: 0x28075, offset: 0x28075, size: 0x8, addend: 0x0, symName: __ZN5Eigen8internal27checkTransposeAliasing_implINS_6MatrixIfLin1ELin1ELi0ELin1ELin1EEENS_12CwiseUnaryOpINS0_14scalar_cast_opIifEEKNS_13CwiseBinaryOpINS0_13scalar_sum_opIiiEEKNS_5ArrayIiLin1ELin1ELi0ELin1ELin1EEESC_EEEELb0EE3runERKS3_RKSF_, symObjAddr: 0x7CE0, symBinAddr: 0x1000084B8, symSize: 0x14 }
  - { offsetInCU: 0x280A0, offset: 0x280A0, size: 0x8, addend: 0x0, symName: __ZNK5Eigen12DenseStorageIfLin1ELin1ELin1ELi0EE4rowsEv, symObjAddr: 0x7CF4, symBinAddr: 0x1000084CC, symSize: 0x18 }
  - { offsetInCU: 0x280C6, offset: 0x280C6, size: 0x8, addend: 0x0, symName: __ZNK5Eigen12DenseStorageIfLin1ELin1ELin1ELi0EE4colsEv, symObjAddr: 0x7D0C, symBinAddr: 0x1000084E4, symSize: 0x18 }
  - { offsetInCU: 0x28178, offset: 0x28178, size: 0x8, addend: 0x0, symName: __ZN5Eigen8internal9evaluatorINS_12CwiseUnaryOpINS0_14scalar_cast_opIifEEKNS_13CwiseBinaryOpINS0_13scalar_sum_opIiiEEKNS_5ArrayIiLin1ELin1ELi0ELin1ELin1EEESA_EEEEEC1ERKSD_, symObjAddr: 0x7D24, symBinAddr: 0x1000084FC, symSize: 0x34 }
  - { offsetInCU: 0x281BF, offset: 0x281BF, size: 0x8, addend: 0x0, symName: __ZN5Eigen8internal9evaluatorINS_6MatrixIfLin1ELin1ELi0ELin1ELin1EEEEC1ERKS3_, symObjAddr: 0x7E50, symBinAddr: 0x100008628, symSize: 0x34 }
  - { offsetInCU: 0x281F8, offset: 0x281F8, size: 0x8, addend: 0x0, symName: __ZNK5Eigen9EigenBaseINS_6MatrixIfLin1ELin1ELi0ELin1ELin1EEEE18const_cast_derivedEv, symObjAddr: 0x7E84, symBinAddr: 0x10000865C, symSize: 0x14 }
  - { offsetInCU: 0x2824B, offset: 0x2824B, size: 0x8, addend: 0x0, symName: __ZN5Eigen8internal31generic_dense_assignment_kernelINS0_9evaluatorINS_6MatrixIfLin1ELin1ELi0ELin1ELin1EEEEENS2_INS_12CwiseUnaryOpINS0_14scalar_cast_opIifEEKNS_13CwiseBinaryOpINS0_13scalar_sum_opIiiEEKNS_5ArrayIiLin1ELin1ELi0ELin1ELin1EEESE_EEEEEENS0_9assign_opIffEELi0EEC1ERS5_RKSI_RKSK_RS4_, symObjAddr: 0x7E98, symBinAddr: 0x100008670, symSize: 0x4C }
  - { offsetInCU: 0x282B6, offset: 0x282B6, size: 0x8, addend: 0x0, symName: __ZN5Eigen8internal21dense_assignment_loopINS0_31generic_dense_assignment_kernelINS0_9evaluatorINS_6MatrixIfLin1ELin1ELi0ELin1ELin1EEEEENS3_INS_12CwiseUnaryOpINS0_14scalar_cast_opIifEEKNS_13CwiseBinaryOpINS0_13scalar_sum_opIiiEEKNS_5ArrayIiLin1ELin1ELi0ELin1ELin1EEESF_EEEEEENS0_9assign_opIffEELi0EEELi1ELi0EE3runERSM_, symObjAddr: 0x7EE4, symBinAddr: 0x1000086BC, symSize: 0x68 }
  - { offsetInCU: 0x28306, offset: 0x28306, size: 0x8, addend: 0x0, symName: __ZN5Eigen8internal9evaluatorINS_6MatrixIfLin1ELin1ELi0ELin1ELin1EEEED1Ev, symObjAddr: 0x7F4C, symBinAddr: 0x100008724, symSize: 0x2C }
  - { offsetInCU: 0x28333, offset: 0x28333, size: 0x8, addend: 0x0, symName: __ZN5Eigen8internal9evaluatorINS_12CwiseUnaryOpINS0_14scalar_cast_opIifEEKNS_13CwiseBinaryOpINS0_13scalar_sum_opIiiEEKNS_5ArrayIiLin1ELin1ELi0ELin1ELin1EEESA_EEEEED1Ev, symObjAddr: 0x7F78, symBinAddr: 0x100008750, symSize: 0x2C }
  - { offsetInCU: 0x2835F, offset: 0x2835F, size: 0x8, addend: 0x0, symName: __ZN5Eigen8internal9evaluatorINS_12CwiseUnaryOpINS0_14scalar_cast_opIifEEKNS_13CwiseBinaryOpINS0_13scalar_sum_opIiiEEKNS_5ArrayIiLin1ELin1ELi0ELin1ELin1EEESA_EEEEEC2ERKSD_, symObjAddr: 0x7FA4, symBinAddr: 0x10000877C, symSize: 0x34 }
  - { offsetInCU: 0x28397, offset: 0x28397, size: 0x8, addend: 0x0, symName: __ZN5Eigen8internal15unary_evaluatorINS_12CwiseUnaryOpINS0_14scalar_cast_opIifEEKNS_13CwiseBinaryOpINS0_13scalar_sum_opIiiEEKNS_5ArrayIiLin1ELin1ELi0ELin1ELin1EEESA_EEEENS0_10IndexBasedEfEC2ERKSD_, symObjAddr: 0x7FD8, symBinAddr: 0x1000087B0, symSize: 0x64 }
  - { offsetInCU: 0x283D0, offset: 0x283D0, size: 0x8, addend: 0x0, symName: __ZN5Eigen8internal14evaluator_baseINS_12CwiseUnaryOpINS0_14scalar_cast_opIifEEKNS_13CwiseBinaryOpINS0_13scalar_sum_opIiiEEKNS_5ArrayIiLin1ELin1ELi0ELin1ELin1EEESA_EEEEEC2Ev, symObjAddr: 0x803C, symBinAddr: 0x100008814, symSize: 0x14 }
  - { offsetInCU: 0x283FA, offset: 0x283FA, size: 0x8, addend: 0x0, symName: __ZN5Eigen8internal15unary_evaluatorINS_12CwiseUnaryOpINS0_14scalar_cast_opIifEEKNS_13CwiseBinaryOpINS0_13scalar_sum_opIiiEEKNS_5ArrayIiLin1ELin1ELi0ELin1ELin1EEESA_EEEENS0_10IndexBasedEfE4DataC1ERKSD_, symObjAddr: 0x8050, symBinAddr: 0x100008828, symSize: 0x34 }
  - { offsetInCU: 0x28433, offset: 0x28433, size: 0x8, addend: 0x0, symName: __ZN5Eigen8internal14evaluator_baseINS_12CwiseUnaryOpINS0_14scalar_cast_opIifEEKNS_13CwiseBinaryOpINS0_13scalar_sum_opIiiEEKNS_5ArrayIiLin1ELin1ELi0ELin1ELin1EEESA_EEEEED2Ev, symObjAddr: 0x8084, symBinAddr: 0x10000885C, symSize: 0x14 }
  - { offsetInCU: 0x2845D, offset: 0x2845D, size: 0x8, addend: 0x0, symName: __ZN5Eigen8internal15unary_evaluatorINS_12CwiseUnaryOpINS0_14scalar_cast_opIifEEKNS_13CwiseBinaryOpINS0_13scalar_sum_opIiiEEKNS_5ArrayIiLin1ELin1ELi0ELin1ELin1EEESA_EEEENS0_10IndexBasedEfE4DataC2ERKSD_, symObjAddr: 0x8098, symBinAddr: 0x100008870, symSize: 0x58 }
  - { offsetInCU: 0x28496, offset: 0x28496, size: 0x8, addend: 0x0, symName: __ZNK5Eigen12CwiseUnaryOpINS_8internal14scalar_cast_opIifEEKNS_13CwiseBinaryOpINS1_13scalar_sum_opIiiEEKNS_5ArrayIiLin1ELin1ELi0ELin1ELin1EEES9_EEE7functorEv, symObjAddr: 0x80F0, symBinAddr: 0x1000088C8, symSize: 0x18 }
  - { offsetInCU: 0x284BC, offset: 0x284BC, size: 0x8, addend: 0x0, symName: __ZNK5Eigen12CwiseUnaryOpINS_8internal14scalar_cast_opIifEEKNS_13CwiseBinaryOpINS1_13scalar_sum_opIiiEEKNS_5ArrayIiLin1ELin1ELi0ELin1ELin1EEES9_EEE16nestedExpressionEv, symObjAddr: 0x8108, symBinAddr: 0x1000088E0, symSize: 0x18 }
  - { offsetInCU: 0x284E2, offset: 0x284E2, size: 0x8, addend: 0x0, symName: __ZN5Eigen8internal9evaluatorIKNS_13CwiseBinaryOpINS0_13scalar_sum_opIiiEEKNS_5ArrayIiLin1ELin1ELi0ELin1ELin1EEES7_EEEC1ERS9_, symObjAddr: 0x8120, symBinAddr: 0x1000088F8, symSize: 0x34 }
  - { offsetInCU: 0x2851A, offset: 0x2851A, size: 0x8, addend: 0x0, symName: __ZN5Eigen8internal9evaluatorIKNS_13CwiseBinaryOpINS0_13scalar_sum_opIiiEEKNS_5ArrayIiLin1ELin1ELi0ELin1ELin1EEES7_EEEC2ERS9_, symObjAddr: 0x8154, symBinAddr: 0x10000892C, symSize: 0x34 }
  - { offsetInCU: 0x28552, offset: 0x28552, size: 0x8, addend: 0x0, symName: __ZN5Eigen8internal9evaluatorINS_13CwiseBinaryOpINS0_13scalar_sum_opIiiEEKNS_5ArrayIiLin1ELin1ELi0ELin1ELin1EEES7_EEEC2ERKS8_, symObjAddr: 0x8188, symBinAddr: 0x100008960, symSize: 0x34 }
  - { offsetInCU: 0x2858B, offset: 0x2858B, size: 0x8, addend: 0x0, symName: __ZN5Eigen8internal16binary_evaluatorINS_13CwiseBinaryOpINS0_13scalar_sum_opIiiEEKNS_5ArrayIiLin1ELin1ELi0ELin1ELin1EEES7_EENS0_10IndexBasedES9_iiEC2ERKS8_, symObjAddr: 0x81BC, symBinAddr: 0x100008994, symSize: 0x64 }
  - { offsetInCU: 0x285C4, offset: 0x285C4, size: 0x8, addend: 0x0, symName: __ZN5Eigen8internal14evaluator_baseINS_13CwiseBinaryOpINS0_13scalar_sum_opIiiEEKNS_5ArrayIiLin1ELin1ELi0ELin1ELin1EEES7_EEEC2Ev, symObjAddr: 0x8220, symBinAddr: 0x1000089F8, symSize: 0x14 }
  - { offsetInCU: 0x285EE, offset: 0x285EE, size: 0x8, addend: 0x0, symName: __ZN5Eigen8internal16binary_evaluatorINS_13CwiseBinaryOpINS0_13scalar_sum_opIiiEEKNS_5ArrayIiLin1ELin1ELi0ELin1ELin1EEES7_EENS0_10IndexBasedES9_iiE4DataC1ERKS8_, symObjAddr: 0x8234, symBinAddr: 0x100008A0C, symSize: 0x34 }
  - { offsetInCU: 0x28627, offset: 0x28627, size: 0x8, addend: 0x0, symName: __ZN5Eigen8internal14evaluator_baseINS_13CwiseBinaryOpINS0_13scalar_sum_opIiiEEKNS_5ArrayIiLin1ELin1ELi0ELin1ELin1EEES7_EEED2Ev, symObjAddr: 0x8268, symBinAddr: 0x100008A40, symSize: 0x14 }
  - { offsetInCU: 0x28651, offset: 0x28651, size: 0x8, addend: 0x0, symName: __ZN5Eigen8internal16binary_evaluatorINS_13CwiseBinaryOpINS0_13scalar_sum_opIiiEEKNS_5ArrayIiLin1ELin1ELi0ELin1ELin1EEES7_EENS0_10IndexBasedES9_iiE4DataC2ERKS8_, symObjAddr: 0x827C, symBinAddr: 0x100008A54, symSize: 0xA8 }
  - { offsetInCU: 0x2868A, offset: 0x2868A, size: 0x8, addend: 0x0, symName: __ZNK5Eigen13CwiseBinaryOpINS_8internal13scalar_sum_opIiiEEKNS_5ArrayIiLin1ELin1ELi0ELin1ELin1EEES6_E7functorEv, symObjAddr: 0x8324, symBinAddr: 0x100008AFC, symSize: 0x18 }
  - { offsetInCU: 0x286B0, offset: 0x286B0, size: 0x8, addend: 0x0, symName: __ZNK5Eigen13CwiseBinaryOpINS_8internal13scalar_sum_opIiiEEKNS_5ArrayIiLin1ELin1ELi0ELin1ELin1EEES6_E3lhsEv, symObjAddr: 0x833C, symBinAddr: 0x100008B14, symSize: 0x18 }
  - { offsetInCU: 0x286D6, offset: 0x286D6, size: 0x8, addend: 0x0, symName: __ZN5Eigen8internal9evaluatorIKNS_5ArrayIiLin1ELin1ELi0ELin1ELin1EEEEC1ERS4_, symObjAddr: 0x8354, symBinAddr: 0x100008B2C, symSize: 0x34 }
  - { offsetInCU: 0x2870E, offset: 0x2870E, size: 0x8, addend: 0x0, symName: __ZNK5Eigen13CwiseBinaryOpINS_8internal13scalar_sum_opIiiEEKNS_5ArrayIiLin1ELin1ELi0ELin1ELin1EEES6_E3rhsEv, symObjAddr: 0x8388, symBinAddr: 0x100008B60, symSize: 0x18 }
  - { offsetInCU: 0x28734, offset: 0x28734, size: 0x8, addend: 0x0, symName: __ZN5Eigen8internal9evaluatorIKNS_5ArrayIiLin1ELin1ELi0ELin1ELin1EEEED1Ev, symObjAddr: 0x83A0, symBinAddr: 0x100008B78, symSize: 0x2C }
  - { offsetInCU: 0x28760, offset: 0x28760, size: 0x8, addend: 0x0, symName: __ZN5Eigen8internal9evaluatorIKNS_5ArrayIiLin1ELin1ELi0ELin1ELin1EEEEC2ERS4_, symObjAddr: 0x83CC, symBinAddr: 0x100008BA4, symSize: 0x34 }
  - { offsetInCU: 0x28798, offset: 0x28798, size: 0x8, addend: 0x0, symName: __ZN5Eigen8internal9evaluatorIKNS_5ArrayIiLin1ELin1ELi0ELin1ELin1EEEED2Ev, symObjAddr: 0x8400, symBinAddr: 0x100008BD8, symSize: 0x2C }
  - { offsetInCU: 0x287C4, offset: 0x287C4, size: 0x8, addend: 0x0, symName: __ZNK5Eigen12CwiseUnaryOpINS_8internal14scalar_cast_opIifEEKNS_13CwiseBinaryOpINS1_13scalar_sum_opIiiEEKNS_5ArrayIiLin1ELin1ELi0ELin1ELin1EEES9_EEE4rowsEv, symObjAddr: 0x842C, symBinAddr: 0x100008C04, symSize: 0x28 }
  - { offsetInCU: 0x287EA, offset: 0x287EA, size: 0x8, addend: 0x0, symName: __ZNK5Eigen12CwiseUnaryOpINS_8internal14scalar_cast_opIifEEKNS_13CwiseBinaryOpINS1_13scalar_sum_opIiiEEKNS_5ArrayIiLin1ELin1ELi0ELin1ELin1EEES9_EEE4colsEv, symObjAddr: 0x8454, symBinAddr: 0x100008C2C, symSize: 0x28 }
  - { offsetInCU: 0x28810, offset: 0x28810, size: 0x8, addend: 0x0, symName: __ZNK5Eigen13CwiseBinaryOpINS_8internal13scalar_sum_opIiiEEKNS_5ArrayIiLin1ELin1ELi0ELin1ELin1EEES6_E4rowsEv, symObjAddr: 0x847C, symBinAddr: 0x100008C54, symSize: 0x28 }
  - { offsetInCU: 0x28836, offset: 0x28836, size: 0x8, addend: 0x0, symName: __ZNK5Eigen13CwiseBinaryOpINS_8internal13scalar_sum_opIiiEEKNS_5ArrayIiLin1ELin1ELi0ELin1ELin1EEES6_E4colsEv, symObjAddr: 0x84A4, symBinAddr: 0x100008C7C, symSize: 0x28 }
  - { offsetInCU: 0x2885C, offset: 0x2885C, size: 0x8, addend: 0x0, symName: __ZN5Eigen8internal9evaluatorINS_6MatrixIfLin1ELin1ELi0ELin1ELin1EEEEC2ERKS3_, symObjAddr: 0x84CC, symBinAddr: 0x100008CA4, symSize: 0x34 }
  - { offsetInCU: 0x28895, offset: 0x28895, size: 0x8, addend: 0x0, symName: __ZN5Eigen8internal9evaluatorINS_15PlainObjectBaseINS_6MatrixIfLin1ELin1ELi0ELin1ELin1EEEEEEC2ERKS5_, symObjAddr: 0x8500, symBinAddr: 0x100008CD8, symSize: 0x80 }
  - { offsetInCU: 0x288CD, offset: 0x288CD, size: 0x8, addend: 0x0, symName: __ZN5Eigen8internal14evaluator_baseINS_6MatrixIfLin1ELin1ELi0ELin1ELin1EEEEC2Ev, symObjAddr: 0x8580, symBinAddr: 0x100008D58, symSize: 0x14 }
  - { offsetInCU: 0x288F7, offset: 0x288F7, size: 0x8, addend: 0x0, symName: __ZNK5Eigen15PlainObjectBaseINS_6MatrixIfLin1ELin1ELi0ELin1ELin1EEEE4dataEv, symObjAddr: 0x8594, symBinAddr: 0x100008D6C, symSize: 0x24 }
  - { offsetInCU: 0x2891D, offset: 0x2891D, size: 0x8, addend: 0x0, symName: __ZNK5Eigen15DenseCoeffsBaseINS_6MatrixIfLin1ELin1ELi0ELin1ELin1EEELi3EE11outerStrideEv, symObjAddr: 0x85B8, symBinAddr: 0x100008D90, symSize: 0x38 }
  - { offsetInCU: 0x28943, offset: 0x28943, size: 0x8, addend: 0x0, symName: __ZN5Eigen8internal30plainobjectbase_evaluator_dataIfLin1EEC1EPKfl, symObjAddr: 0x85F0, symBinAddr: 0x100008DC8, symSize: 0x3C }
  - { offsetInCU: 0x28989, offset: 0x28989, size: 0x8, addend: 0x0, symName: __ZN5Eigen8internal14evaluator_baseINS_6MatrixIfLin1ELin1ELi0ELin1ELin1EEEED2Ev, symObjAddr: 0x862C, symBinAddr: 0x100008E04, symSize: 0x14 }
  - { offsetInCU: 0x289B3, offset: 0x289B3, size: 0x8, addend: 0x0, symName: __ZNK5Eigen12DenseStorageIfLin1ELin1ELin1ELi0EE4dataEv, symObjAddr: 0x8640, symBinAddr: 0x100008E18, symSize: 0x18 }
  - { offsetInCU: 0x289D9, offset: 0x289D9, size: 0x8, addend: 0x0, symName: __ZNK5Eigen9EigenBaseINS_6MatrixIfLin1ELin1ELi0ELin1ELin1EEEE7derivedEv, symObjAddr: 0x8658, symBinAddr: 0x100008E30, symSize: 0x14 }
  - { offsetInCU: 0x289FF, offset: 0x289FF, size: 0x8, addend: 0x0, symName: __ZNK5Eigen6MatrixIfLin1ELin1ELi0ELin1ELin1EE11outerStrideEv, symObjAddr: 0x866C, symBinAddr: 0x100008E44, symSize: 0x34 }
  - { offsetInCU: 0x28A25, offset: 0x28A25, size: 0x8, addend: 0x0, symName: __ZNK5Eigen9DenseBaseINS_6MatrixIfLin1ELin1ELi0ELin1ELin1EEEE9innerSizeEv, symObjAddr: 0x86A0, symBinAddr: 0x100008E78, symSize: 0x24 }
  - { offsetInCU: 0x28A4B, offset: 0x28A4B, size: 0x8, addend: 0x0, symName: __ZNK5Eigen9EigenBaseINS_6MatrixIfLin1ELin1ELi0ELin1ELin1EEEE4rowsEv, symObjAddr: 0x86C4, symBinAddr: 0x100008E9C, symSize: 0x28 }
  - { offsetInCU: 0x28A71, offset: 0x28A71, size: 0x8, addend: 0x0, symName: __ZN5Eigen8internal30plainobjectbase_evaluator_dataIfLin1EEC2EPKfl, symObjAddr: 0x86EC, symBinAddr: 0x100008EC4, symSize: 0x2C }
  - { offsetInCU: 0x28AB7, offset: 0x28AB7, size: 0x8, addend: 0x0, symName: __ZN5Eigen8internal31generic_dense_assignment_kernelINS0_9evaluatorINS_6MatrixIfLin1ELin1ELi0ELin1ELin1EEEEENS2_INS_12CwiseUnaryOpINS0_14scalar_cast_opIifEEKNS_13CwiseBinaryOpINS0_13scalar_sum_opIiiEEKNS_5ArrayIiLin1ELin1ELi0ELin1ELin1EEESE_EEEEEENS0_9assign_opIffEELi0EEC2ERS5_RKSI_RKSK_RS4_, symObjAddr: 0x8718, symBinAddr: 0x100008EF0, symSize: 0x44 }
  - { offsetInCU: 0x28B1D, offset: 0x28B1D, size: 0x8, addend: 0x0, symName: __ZNK5Eigen8internal31generic_dense_assignment_kernelINS0_9evaluatorINS_6MatrixIfLin1ELin1ELi0ELin1ELin1EEEEENS2_INS_12CwiseUnaryOpINS0_14scalar_cast_opIifEEKNS_13CwiseBinaryOpINS0_13scalar_sum_opIiiEEKNS_5ArrayIiLin1ELin1ELi0ELin1ELin1EEESE_EEEEEENS0_9assign_opIffEELi0EE4sizeEv, symObjAddr: 0x875C, symBinAddr: 0x100008F34, symSize: 0x28 }
  - { offsetInCU: 0x28B43, offset: 0x28B43, size: 0x8, addend: 0x0, symName: __ZN5Eigen8internal31generic_dense_assignment_kernelINS0_9evaluatorINS_6MatrixIfLin1ELin1ELi0ELin1ELin1EEEEENS2_INS_12CwiseUnaryOpINS0_14scalar_cast_opIifEEKNS_13CwiseBinaryOpINS0_13scalar_sum_opIiiEEKNS_5ArrayIiLin1ELin1ELi0ELin1ELin1EEESE_EEEEEENS0_9assign_opIffEELi0EE11assignCoeffEl, symObjAddr: 0x8784, symBinAddr: 0x100008F5C, symSize: 0x64 }
  - { offsetInCU: 0x28B78, offset: 0x28B78, size: 0x8, addend: 0x0, symName: __ZNK5Eigen9EigenBaseINS_6MatrixIfLin1ELin1ELi0ELin1ELin1EEEE4sizeEv, symObjAddr: 0x87E8, symBinAddr: 0x100008FC0, symSize: 0x44 }
  - { offsetInCU: 0x28B9E, offset: 0x28B9E, size: 0x8, addend: 0x0, symName: __ZNK5Eigen9EigenBaseINS_6MatrixIfLin1ELin1ELi0ELin1ELin1EEEE4colsEv, symObjAddr: 0x882C, symBinAddr: 0x100009004, symSize: 0x28 }
  - { offsetInCU: 0x28BC4, offset: 0x28BC4, size: 0x8, addend: 0x0, symName: __ZNK5Eigen8internal9assign_opIffE11assignCoeffERfRKf, symObjAddr: 0x8854, symBinAddr: 0x10000902C, symSize: 0x28 }
  - { offsetInCU: 0x28C06, offset: 0x28C06, size: 0x8, addend: 0x0, symName: __ZN5Eigen8internal9evaluatorINS_15PlainObjectBaseINS_6MatrixIfLin1ELin1ELi0ELin1ELin1EEEEEE8coeffRefEl, symObjAddr: 0x887C, symBinAddr: 0x100009054, symSize: 0x24 }
  - { offsetInCU: 0x28C3A, offset: 0x28C3A, size: 0x8, addend: 0x0, symName: __ZNK5Eigen8internal15unary_evaluatorINS_12CwiseUnaryOpINS0_14scalar_cast_opIifEEKNS_13CwiseBinaryOpINS0_13scalar_sum_opIiiEEKNS_5ArrayIiLin1ELin1ELi0ELin1ELin1EEESA_EEEENS0_10IndexBasedEfE5coeffEl, symObjAddr: 0x88A0, symBinAddr: 0x100009078, symSize: 0x54 }
  - { offsetInCU: 0x28C6F, offset: 0x28C6F, size: 0x8, addend: 0x0, symName: __ZNK5Eigen8internal15unary_evaluatorINS_12CwiseUnaryOpINS0_14scalar_cast_opIifEEKNS_13CwiseBinaryOpINS0_13scalar_sum_opIiiEEKNS_5ArrayIiLin1ELin1ELi0ELin1ELin1EEESA_EEEENS0_10IndexBasedEfE4Data4funcEv, symObjAddr: 0x88F4, symBinAddr: 0x1000090CC, symSize: 0x14 }
  - { offsetInCU: 0x28C95, offset: 0x28C95, size: 0x8, addend: 0x0, symName: __ZNK5Eigen8internal14scalar_cast_opIifEclERKi, symObjAddr: 0x8908, symBinAddr: 0x1000090E0, symSize: 0x28 }
  - { offsetInCU: 0x28CC9, offset: 0x28CC9, size: 0x8, addend: 0x0, symName: __ZNK5Eigen8internal16binary_evaluatorINS_13CwiseBinaryOpINS0_13scalar_sum_opIiiEEKNS_5ArrayIiLin1ELin1ELi0ELin1ELin1EEES7_EENS0_10IndexBasedES9_iiE5coeffEl, symObjAddr: 0x8930, symBinAddr: 0x100009108, symSize: 0x64 }
  - { offsetInCU: 0x28CFE, offset: 0x28CFE, size: 0x8, addend: 0x0, symName: __ZN5Eigen8internal9cast_implIifvE3runERKi, symObjAddr: 0x89B8, symBinAddr: 0x100009190, symSize: 0x1C }
  - { offsetInCU: 0x28D22, offset: 0x28D22, size: 0x8, addend: 0x0, symName: __ZNK5Eigen8internal16binary_evaluatorINS_13CwiseBinaryOpINS0_13scalar_sum_opIiiEEKNS_5ArrayIiLin1ELin1ELi0ELin1ELin1EEES7_EENS0_10IndexBasedES9_iiE4Data4funcEv, symObjAddr: 0x89D4, symBinAddr: 0x1000091AC, symSize: 0x14 }
  - { offsetInCU: 0x28D48, offset: 0x28D48, size: 0x8, addend: 0x0, symName: __ZNK5Eigen8internal13scalar_sum_opIiiEclERKiS4_, symObjAddr: 0x89E8, symBinAddr: 0x1000091C0, symSize: 0x2C }
  - { offsetInCU: 0x28D8A, offset: 0x28D8A, size: 0x8, addend: 0x0, symName: __ZNK5Eigen8internal9evaluatorINS_15PlainObjectBaseINS_5ArrayIiLin1ELin1ELi0ELin1ELin1EEEEEE5coeffEl, symObjAddr: 0x8A14, symBinAddr: 0x1000091EC, symSize: 0x24 }
  - { offsetInCU: 0x28DBE, offset: 0x28DBE, size: 0x8, addend: 0x0, symName: __ZN5Eigen8internal9evaluatorINS_6MatrixIfLin1ELin1ELi0ELin1ELin1EEEED2Ev, symObjAddr: 0x8A38, symBinAddr: 0x100009210, symSize: 0x2C }
  - { offsetInCU: 0x28DEB, offset: 0x28DEB, size: 0x8, addend: 0x0, symName: __ZN5Eigen8internal9evaluatorINS_15PlainObjectBaseINS_6MatrixIfLin1ELin1ELi0ELin1ELin1EEEEEED2Ev, symObjAddr: 0x8A64, symBinAddr: 0x10000923C, symSize: 0x2C }
  - { offsetInCU: 0x28E17, offset: 0x28E17, size: 0x8, addend: 0x0, symName: __ZN5Eigen8internal9evaluatorINS_12CwiseUnaryOpINS0_14scalar_cast_opIifEEKNS_13CwiseBinaryOpINS0_13scalar_sum_opIiiEEKNS_5ArrayIiLin1ELin1ELi0ELin1ELin1EEESA_EEEEED2Ev, symObjAddr: 0x8A90, symBinAddr: 0x100009268, symSize: 0x2C }
  - { offsetInCU: 0x28E43, offset: 0x28E43, size: 0x8, addend: 0x0, symName: __ZN5Eigen8internal15unary_evaluatorINS_12CwiseUnaryOpINS0_14scalar_cast_opIifEEKNS_13CwiseBinaryOpINS0_13scalar_sum_opIiiEEKNS_5ArrayIiLin1ELin1ELi0ELin1ELin1EEESA_EEEENS0_10IndexBasedEfED2Ev, symObjAddr: 0x8ABC, symBinAddr: 0x100009294, symSize: 0x34 }
  - { offsetInCU: 0x28E6F, offset: 0x28E6F, size: 0x8, addend: 0x0, symName: __ZN5Eigen8internal15unary_evaluatorINS_12CwiseUnaryOpINS0_14scalar_cast_opIifEEKNS_13CwiseBinaryOpINS0_13scalar_sum_opIiiEEKNS_5ArrayIiLin1ELin1ELi0ELin1ELin1EEESA_EEEENS0_10IndexBasedEfE4DataD1Ev, symObjAddr: 0x8AF0, symBinAddr: 0x1000092C8, symSize: 0x2C }
  - { offsetInCU: 0x28E9C, offset: 0x28E9C, size: 0x8, addend: 0x0, symName: __ZN5Eigen8internal15unary_evaluatorINS_12CwiseUnaryOpINS0_14scalar_cast_opIifEEKNS_13CwiseBinaryOpINS0_13scalar_sum_opIiiEEKNS_5ArrayIiLin1ELin1ELi0ELin1ELin1EEESA_EEEENS0_10IndexBasedEfE4DataD2Ev, symObjAddr: 0x8B1C, symBinAddr: 0x1000092F4, symSize: 0x30 }
  - { offsetInCU: 0x28EC9, offset: 0x28EC9, size: 0x8, addend: 0x0, symName: __ZN5Eigen8internal9evaluatorIKNS_13CwiseBinaryOpINS0_13scalar_sum_opIiiEEKNS_5ArrayIiLin1ELin1ELi0ELin1ELin1EEES7_EEED1Ev, symObjAddr: 0x8B4C, symBinAddr: 0x100009324, symSize: 0x2C }
  - { offsetInCU: 0x28EF5, offset: 0x28EF5, size: 0x8, addend: 0x0, symName: __ZN5Eigen8internal9evaluatorIKNS_13CwiseBinaryOpINS0_13scalar_sum_opIiiEEKNS_5ArrayIiLin1ELin1ELi0ELin1ELin1EEES7_EEED2Ev, symObjAddr: 0x8B78, symBinAddr: 0x100009350, symSize: 0x2C }
  - { offsetInCU: 0x28F21, offset: 0x28F21, size: 0x8, addend: 0x0, symName: __ZN5Eigen8internal9evaluatorINS_13CwiseBinaryOpINS0_13scalar_sum_opIiiEEKNS_5ArrayIiLin1ELin1ELi0ELin1ELin1EEES7_EEED2Ev, symObjAddr: 0x8BA4, symBinAddr: 0x10000937C, symSize: 0x2C }
  - { offsetInCU: 0x28F4E, offset: 0x28F4E, size: 0x8, addend: 0x0, symName: __ZN5Eigen8internal16binary_evaluatorINS_13CwiseBinaryOpINS0_13scalar_sum_opIiiEEKNS_5ArrayIiLin1ELin1ELi0ELin1ELin1EEES7_EENS0_10IndexBasedES9_iiED2Ev, symObjAddr: 0x8BD0, symBinAddr: 0x1000093A8, symSize: 0x34 }
  - { offsetInCU: 0x28F7A, offset: 0x28F7A, size: 0x8, addend: 0x0, symName: __ZN5Eigen8internal16binary_evaluatorINS_13CwiseBinaryOpINS0_13scalar_sum_opIiiEEKNS_5ArrayIiLin1ELin1ELi0ELin1ELin1EEES7_EENS0_10IndexBasedES9_iiE4DataD1Ev, symObjAddr: 0x8C04, symBinAddr: 0x1000093DC, symSize: 0x2C }
  - { offsetInCU: 0x28FA7, offset: 0x28FA7, size: 0x8, addend: 0x0, symName: __ZN5Eigen8internal16binary_evaluatorINS_13CwiseBinaryOpINS0_13scalar_sum_opIiiEEKNS_5ArrayIiLin1ELin1ELi0ELin1ELin1EEES7_EENS0_10IndexBasedES9_iiE4DataD2Ev, symObjAddr: 0x8C30, symBinAddr: 0x100009408, symSize: 0x3C }
  - { offsetInCU: 0x28FD4, offset: 0x28FD4, size: 0x8, addend: 0x0, symName: __ZN5Eigen8internal9assign_opIffEC2Ev, symObjAddr: 0x8C6C, symBinAddr: 0x100009444, symSize: 0x14 }
  - { offsetInCU: 0x28FFE, offset: 0x28FFE, size: 0x8, addend: 0x0, symName: __ZN5Eigen6MatrixIiLin1ELi1ELi0ELin1ELi1EEC2IiEERKT_, symObjAddr: 0x8C80, symBinAddr: 0x100009458, symSize: 0x74 }
  - { offsetInCU: 0x29040, offset: 0x29040, size: 0x8, addend: 0x0, symName: __ZN5Eigen15PlainObjectBaseINS_6MatrixIiLin1ELi1ELi0ELin1ELi1EEEEC2Ev, symObjAddr: 0x8CF4, symBinAddr: 0x1000094CC, symSize: 0x34 }
  - { offsetInCU: 0x2906A, offset: 0x2906A, size: 0x8, addend: 0x0, symName: __ZN5Eigen15PlainObjectBaseINS_6MatrixIiLin1ELi1ELi0ELin1ELi1EEEE22_check_template_paramsEv, symObjAddr: 0x8D28, symBinAddr: 0x100009500, symSize: 0x4 }
  - { offsetInCU: 0x2907E, offset: 0x2907E, size: 0x8, addend: 0x0, symName: __ZN5Eigen15PlainObjectBaseINS_6MatrixIiLin1ELi1ELi0ELin1ELi1EEEE6_init1IiEEvlPNS_8internal9enable_ifIXaaooneLNS_9DenseBaseIS2_EUt_En1ELi1Entsr8internal14is_convertibleIT_iEE5valueoontLNS5_7is_sameINS_9MatrixXprENS_8ArrayXprEEUt_E0EeqLS9_n1EL_ZNS_L7DynamicEEESA_E4typeE, symObjAddr: 0x8D2C, symBinAddr: 0x100009504, symSize: 0x48 }
  - { offsetInCU: 0x290D6, offset: 0x290D6, size: 0x8, addend: 0x0, symName: __ZN5Eigen10MatrixBaseINS_6MatrixIiLin1ELi1ELi0ELin1ELi1EEEEC2Ev, symObjAddr: 0x8D74, symBinAddr: 0x10000954C, symSize: 0x2C }
  - { offsetInCU: 0x29100, offset: 0x29100, size: 0x8, addend: 0x0, symName: __ZN5Eigen9DenseBaseINS_6MatrixIiLin1ELi1ELi0ELin1ELi1EEEEC2Ev, symObjAddr: 0x8DA0, symBinAddr: 0x100009578, symSize: 0x14 }
  - { offsetInCU: 0x2912A, offset: 0x2912A, size: 0x8, addend: 0x0, symName: __ZN5Eigen15PlainObjectBaseINS_6MatrixIiLin1ELi1ELi0ELin1ELi1EEEE6resizeEl, symObjAddr: 0x8DC4, symBinAddr: 0x10000959C, symSize: 0x74 }
  - { offsetInCU: 0x2915F, offset: 0x2915F, size: 0x8, addend: 0x0, symName: __ZN5Eigen16CommaInitializerINS_6MatrixIiLin1ELi1ELi0ELin1ELi1EEEEC1ERS2_RKi, symObjAddr: 0x8E38, symBinAddr: 0x100009610, symSize: 0x3C }
  - { offsetInCU: 0x291A5, offset: 0x291A5, size: 0x8, addend: 0x0, symName: __ZN5Eigen16CommaInitializerINS_6MatrixIiLin1ELi1ELi0ELin1ELi1EEEEC2ERS2_RKi, symObjAddr: 0x8E74, symBinAddr: 0x10000964C, symSize: 0xF8 }
  - { offsetInCU: 0x291EB, offset: 0x291EB, size: 0x8, addend: 0x0, symName: __ZN5Eigen15PlainObjectBaseINS_6MatrixIiLin1ELi1ELi0ELin1ELi1EEEE8coeffRefEll, symObjAddr: 0x8F6C, symBinAddr: 0x100009744, symSize: 0x6C }
  - { offsetInCU: 0x2922D, offset: 0x2922D, size: 0x8, addend: 0x0, symName: __ZN5Eigen12DenseStorageIiLin1ELin1ELi1ELi0EE4dataEv, symObjAddr: 0x8FD8, symBinAddr: 0x1000097B0, symSize: 0x18 }
  - { offsetInCU: 0x29253, offset: 0x29253, size: 0x8, addend: 0x0, symName: __ZN5Eigen16CommaInitializerINS_6MatrixIiLin1ELi1ELi0ELin1ELi1EEEED2Ev, symObjAddr: 0x8FF0, symBinAddr: 0x1000097C8, symSize: 0x34 }
  - { offsetInCU: 0x2927D, offset: 0x2927D, size: 0x8, addend: 0x0, symName: __ZN5Eigen16CommaInitializerINS_6MatrixIiLin1ELi1ELi0ELin1ELi1EEEE8finishedEv, symObjAddr: 0x9024, symBinAddr: 0x1000097FC, symSize: 0xE8 }
  - { offsetInCU: 0x292A3, offset: 0x292A3, size: 0x8, addend: 0x0, symName: __ZNK5Eigen9DenseBaseINS_6MatrixIfLin1ELin1ELi0ELin1ELin1EEEE4evalEv, symObjAddr: 0x968C, symBinAddr: 0x100009E64, symSize: 0x24 }
  - { offsetInCU: 0x292C9, offset: 0x292C9, size: 0x8, addend: 0x0, symName: __ZN5Eigen8internal25significant_decimals_implIfE3runEv, symObjAddr: 0x96B0, symBinAddr: 0x100009E88, symSize: 0x14 }
  - { offsetInCU: 0x292DD, offset: 0x292DD, size: 0x8, addend: 0x0, symName: __ZNK5Eigen15PlainObjectBaseINS_6MatrixIfLin1ELin1ELi0ELin1ELin1EEEE5coeffEll, symObjAddr: 0x96C4, symBinAddr: 0x100009E9C, symSize: 0x6C }
  - { offsetInCU: 0x2931F, offset: 0x2931F, size: 0x8, addend: 0x0, symName: __ZN5Eigen16GenericNumTraitsIfE8digits10Ev, symObjAddr: 0x9730, symBinAddr: 0x100009F08, symSize: 0x14 }
  - { offsetInCU: 0x29333, offset: 0x29333, size: 0x8, addend: 0x0, symName: __ZN5Eigen8internal21default_digits10_implIfLb1ELb0EE3runEv, symObjAddr: 0x9744, symBinAddr: 0x100009F1C, symSize: 0x8 }
...
