---
triple:          'arm64-apple-darwin'
binary-path:     '/Users/haolong/Documents/GitHub/demos_v_matrix/tutorial/10by10'
relocations:
  - { offsetInCU: 0x44, offset: 0x44, size: 0x8, addend: 0x0, symName: __ZN5EigenL4lastE, symObjAddr: 0x9DD41, symBinAddr: 0x100010000, symSize: 0x0 }
  - { offsetInCU: 0x22D0, offset: 0x22D0, size: 0x8, addend: 0x0, symName: __ZN5Eigen8internal31conditional_aligned_delete_autoIiLb1EEEvPT_m, symObjAddr: 0x106C, symBinAddr: 0x100004ABC, symSize: 0x28 }
  - { offsetInCU: 0x231C, offset: 0x231C, size: 0x8, addend: 0x0, symName: __ZN5Eigen8internal24conditional_aligned_freeILb1EEEvPv, symObjAddr: 0x1094, symBinAddr: 0x100004AE4, symSize: 0x24 }
  - { offsetInCU: 0x2350, offset: 0x2350, size: 0x8, addend: 0x0, symName: __ZN5Eigen8internal12aligned_freeEPv, symObjAddr: 0x10B8, symBinAddr: 0x100004B08, symSize: 0x24 }
  - { offsetInCU: 0x2542, offset: 0x2542, size: 0x8, addend: 0x0, symName: __ZN5Eigen8internal22ignore_unused_variableIlEEvRKT_, symObjAddr: 0x1BD4, symBinAddr: 0x100005624, symSize: 0x10 }
  - { offsetInCU: 0x2571, offset: 0x2571, size: 0x8, addend: 0x0, symName: __ZN5Eigen8internalL21first_default_alignedINS_5ArrayIiLin1ELi1ELi0ELin1ELi1EEEEElRKNS_9DenseBaseIT_EE, symObjAddr: 0x1BE4, symBinAddr: 0x100005634, symSize: 0x24 }
  - { offsetInCU: 0x25F9, offset: 0x25F9, size: 0x8, addend: 0x0, symName: __ZN5Eigen8internalL13first_alignedILi16ENS_5ArrayIiLin1ELi1ELi0ELin1ELi1EEEEElRKNS_9DenseBaseIT0_EE, symObjAddr: 0x1CEC, symBinAddr: 0x10000573C, symSize: 0x28 }
  - { offsetInCU: 0x2678, offset: 0x2678, size: 0x8, addend: 0x0, symName: __ZN5Eigen8internal5ploadI17__simd128_int32_tEET_PKNS0_15unpacket_traitsIS3_E4typeE, symObjAddr: 0x1D28, symBinAddr: 0x100005778, symSize: 0x28 }
  - { offsetInCU: 0x26CC, offset: 0x26CC, size: 0x8, addend: 0x0, symName: __ZN5Eigen8internal4paddI17__simd128_int32_tEET_RKS3_S5_, symObjAddr: 0x1D50, symBinAddr: 0x1000057A0, symSize: 0x40 }
  - { offsetInCU: 0x2712, offset: 0x2712, size: 0x8, addend: 0x0, symName: __ZN5Eigen8internal6preduxI17__simd128_int32_tEENS0_15unpacket_traitsIT_E4typeERKS4_, symObjAddr: 0x1D90, symBinAddr: 0x1000057E0, symSize: 0xAC }
  - { offsetInCU: 0x2784, offset: 0x2784, size: 0x8, addend: 0x0, symName: __ZN5Eigen8internal17get_runtime_valueIiEElRKT_, symObjAddr: 0x1ED4, symBinAddr: 0x100005924, symSize: 0x18 }
  - { offsetInCU: 0x2984, offset: 0x2984, size: 0x8, addend: 0x0, symName: __ZN5Eigen8internalL21first_default_alignedINS_5BlockIKNS_5ArrayIiLin1ELi1ELi0ELin1ELi1EEELin1ELi1ELb0EEEEElRKNS_9DenseBaseIT_EE, symObjAddr: 0x2ED4, symBinAddr: 0x100006924, symSize: 0x24 }
  - { offsetInCU: 0x29EC, offset: 0x29EC, size: 0x8, addend: 0x0, symName: __ZN5Eigen8internalL13first_alignedILi16ENS_5BlockIKNS_5ArrayIiLin1ELi1ELi0ELin1ELi1EEELin1ELi1ELb0EEEEElRKNS_9DenseBaseIT0_EE, symObjAddr: 0x2F94, symBinAddr: 0x1000069E4, symSize: 0x28 }
  - { offsetInCU: 0x2A6B, offset: 0x2A6B, size: 0x8, addend: 0x0, symName: __ZN5Eigen8internal13first_alignedILi16EilEET1_PKT0_S2_, symObjAddr: 0x2FF8, symBinAddr: 0x100006A48, symSize: 0xA4 }
  - { offsetInCU: 0x2B0E, offset: 0x2B0E, size: 0x8, addend: 0x0, symName: __ZN5Eigen8internal6ploaduI17__simd128_int32_tEET_PKNS0_15unpacket_traitsIS3_E4typeE, symObjAddr: 0x309C, symBinAddr: 0x100006AEC, symSize: 0x28 }
  - { offsetInCU: 0x2B95, offset: 0x2B95, size: 0x8, addend: 0x0, symName: __ZN5Eigen8internal19throw_std_bad_allocEv, symObjAddr: 0x3A50, symBinAddr: 0x1000074A0, symSize: 0x34 }
  - { offsetInCU: 0x2BD1, offset: 0x2BD1, size: 0x8, addend: 0x0, symName: __ZN5Eigen8internal28conditional_aligned_new_autoIiLb1EEEPT_m, symObjAddr: 0x3B84, symBinAddr: 0x1000075D4, symSize: 0x84 }
  - { offsetInCU: 0x2C3F, offset: 0x2C3F, size: 0x8, addend: 0x0, symName: __ZN5Eigen8internal26conditional_aligned_mallocILb1EEEPvm, symObjAddr: 0x3C08, symBinAddr: 0x100007658, symSize: 0x24 }
  - { offsetInCU: 0x2C75, offset: 0x2C75, size: 0x8, addend: 0x0, symName: __ZN5Eigen8internal14aligned_mallocEm, symObjAddr: 0x3C2C, symBinAddr: 0x10000767C, symSize: 0xDC }
  - { offsetInCU: 0x2CB6, offset: 0x2CB6, size: 0x8, addend: 0x0, symName: __ZN5Eigen8internal28check_that_malloc_is_allowedEv, symObjAddr: 0x3D08, symBinAddr: 0x100007758, symSize: 0x4 }
  - { offsetInCU: 0x2CCF, offset: 0x2CCF, size: 0x8, addend: 0x0, symName: '__ZN5Eigen8internal24call_assignment_no_aliasINS_5ArrayIiLin1ELin1ELi0ELin1ELin1EEENS_12CwiseUnaryOpIZ4mainE3$_0KNS_14CwiseNullaryOpINS0_16scalar_random_opIiEES3_EEEENS0_9assign_opIiiEEEEvRT_RKT0_RKT1_', symObjAddr: 0x3D0C, symBinAddr: 0x10000775C, symSize: 0x3C }
  - { offsetInCU: 0x2DFD, offset: 0x2DFD, size: 0x8, addend: 0x0, symName: '__ZN5Eigen8internal18check_for_aliasingINS_5ArrayIiLin1ELin1ELi0ELin1ELin1EEENS_12CwiseUnaryOpIZ4mainE3$_0KNS_14CwiseNullaryOpINS0_16scalar_random_opIiEES3_EEEEEEvRKT_RKT0_', symObjAddr: 0x3DC8, symBinAddr: 0x100007818, symSize: 0x60 }
  - { offsetInCU: 0x2E48, offset: 0x2E48, size: 0x8, addend: 0x0, symName: '__ZN5Eigen8internal26call_dense_assignment_loopINS_5ArrayIiLin1ELin1ELi0ELin1ELin1EEENS_12CwiseUnaryOpIZ4mainE3$_0KNS_14CwiseNullaryOpINS0_16scalar_random_opIiEES3_EEEENS0_9assign_opIiiEEEEvRT_RKT0_RKT1_', symObjAddr: 0x3E28, symBinAddr: 0x100007878, symSize: 0xE0 }
  - { offsetInCU: 0x3264, offset: 0x3264, size: 0x8, addend: 0x0, symName: '__ZN5Eigen8internal17resize_if_allowedINS_5ArrayIiLin1ELin1ELi0ELin1ELin1EEENS_12CwiseUnaryOpIZ4mainE3$_0KNS_14CwiseNullaryOpINS0_16scalar_random_opIiEES3_EEEEiiEEvRT_RKT0_RKNS0_9assign_opIT1_T2_EE', symObjAddr: 0x3F8C, symBinAddr: 0x1000079DC, symSize: 0xF8 }
  - { offsetInCU: 0x358E, offset: 0x358E, size: 0x8, addend: 0x0, symName: __ZN5Eigen8internal6randomIiEENS0_13random_retvalINS0_36global_math_functions_filtering_baseIT_vE4typeEE4typeEv, symObjAddr: 0x4950, symBinAddr: 0x1000083A0, symSize: 0x14 }
  - { offsetInCU: 0x35B6, offset: 0x35B6, size: 0x8, addend: 0x0, symName: __ZN5Eigen8internal24call_assignment_no_aliasINS_5ArrayIiLin1ELi1ELi0ELin1ELi1EEENS_5BlockINS2_IiLin1ELin1ELi0ELin1ELin1EEELi1ELin1ELb0EEENS0_9assign_opIiiEEEEvRT_RKT0_RKT1_, symObjAddr: 0x5668, symBinAddr: 0x1000090B8, symSize: 0x44 }
  - { offsetInCU: 0x3684, offset: 0x3684, size: 0x8, addend: 0x0, symName: __ZN5Eigen8internal18check_for_aliasingINS_9TransposeINS_5ArrayIiLin1ELi1ELi0ELin1ELi1EEEEENS_5BlockINS3_IiLin1ELin1ELi0ELin1ELin1EEELi1ELin1ELb0EEEEEvRKT_RKT0_, symObjAddr: 0x57D8, symBinAddr: 0x100009228, symSize: 0x14 }
  - { offsetInCU: 0x36CF, offset: 0x36CF, size: 0x8, addend: 0x0, symName: __ZN5Eigen8internal26call_dense_assignment_loopINS_9TransposeINS_5ArrayIiLin1ELi1ELi0ELin1ELi1EEEEENS_5BlockINS3_IiLin1ELin1ELi0ELin1ELin1EEELi1ELin1ELb0EEENS0_9assign_opIiiEEEEvRT_RKT0_RKT1_, symObjAddr: 0x57EC, symBinAddr: 0x10000923C, symSize: 0xE0 }
  - { offsetInCU: 0x3833, offset: 0x3833, size: 0x8, addend: 0x0, symName: __ZN5Eigen8internal17resize_if_allowedINS_9TransposeINS_5ArrayIiLin1ELi1ELi0ELin1ELi1EEEEENS_5BlockINS3_IiLin1ELin1ELi0ELin1ELin1EEELi1ELin1ELb0EEEiiEEvRT_RKT0_RKNS0_9assign_opIT1_T2_EE, symObjAddr: 0x5900, symBinAddr: 0x100009350, symSize: 0xF8 }
  - { offsetInCU: 0x3DDB, offset: 0x3DDB, size: 0x8, addend: 0x0, symName: __ZN5EigenL6lastp1E, symObjAddr: 0x9DD42, symBinAddr: 0x100010001, symSize: 0x0 }
  - { offsetInCU: 0x3DF4, offset: 0x3DF4, size: 0x8, addend: 0x0, symName: __ZN5EigenL3allE, symObjAddr: 0x9DD45, symBinAddr: 0x100010004, symSize: 0x0 }
  - { offsetInCU: 0x3E0D, offset: 0x3E0D, size: 0x8, addend: 0x0, symName: __ZN5EigenL3fixILi1EEE, symObjAddr: 0x9DD44, symBinAddr: 0x100010003, symSize: 0x0 }
  - { offsetInCU: 0x16CFD, offset: 0x16CFD, size: 0x8, addend: 0x0, symName: __ZNSt3__16chronomiB8ue170006IxNS_5ratioILl1ELl1000000000EEExS3_EENS_11common_typeIJNS0_8durationIT_T0_EENS5_IT1_T2_EEEE4typeERKS8_RKSB_, symObjAddr: 0x10DC, symBinAddr: 0x100004B2C, symSize: 0x70 }
  - { offsetInCU: 0x171BB, offset: 0x171BB, size: 0x8, addend: 0x0, symName: __ZNSt3__16chronomiB8ue170006INS0_12steady_clockENS0_8durationIxNS_5ratioILl1ELl1000000000EEEEES6_EENS_11common_typeIJT0_T1_EE4typeERKNS0_10time_pointIT_S8_EERKNSC_ISD_S9_EE, symObjAddr: 0xB94, symBinAddr: 0x1000045E4, symSize: 0x58 }
  - { offsetInCU: 0x17307, offset: 0x17307, size: 0x8, addend: 0x0, symName: __ZNSt3__16chrono13duration_castB8ue170006INS0_8durationIdNS_5ratioILl1ELl1000EEEEExNS3_ILl1ELl1000000000EEEEENS_9enable_ifIXsr13__is_durationIT_EE5valueES8_E4typeERKNS2_IT0_T1_EE, symObjAddr: 0x1230, symBinAddr: 0x100004C80, symSize: 0x30 }
  - { offsetInCU: 0x17532, offset: 0x17532, size: 0x8, addend: 0x0, symName: __ZNSt3__124__put_character_sequenceB8ue170006IcNS_11char_traitsIcEEEERNS_13basic_ostreamIT_T0_EES7_PKS4_m, symObjAddr: 0x6210, symBinAddr: 0x100009C60, symSize: 0x1EC }
  - { offsetInCU: 0x18E9E, offset: 0x18E9E, size: 0x8, addend: 0x0, symName: __ZNSt3__13minB8ue170006IiEERKT_S3_S3_, symObjAddr: 0x304, symBinAddr: 0x100003D54, symSize: 0x2C }
  - { offsetInCU: 0x19728, offset: 0x19728, size: 0x8, addend: 0x0, symName: __ZNSt3__1lsB8ue170006INS_11char_traitsIcEEEERNS_13basic_ostreamIcT_EES6_PKc, symObjAddr: 0xC28, symBinAddr: 0x100004678, symSize: 0x48 }
  - { offsetInCU: 0x1976E, offset: 0x1976E, size: 0x8, addend: 0x0, symName: __ZNSt3__14endlB8ue170006IcNS_11char_traitsIcEEEERNS_13basic_ostreamIT_T0_EES7_, symObjAddr: 0xCB4, symBinAddr: 0x100004704, symSize: 0x58 }
  - { offsetInCU: 0x197B9, offset: 0x197B9, size: 0x8, addend: 0x0, symName: __ZNSt3__13minB8ue170006IiNS_6__lessIvvEEEERKT_S5_S5_T0_, symObjAddr: 0xE10, symBinAddr: 0x100004860, symSize: 0x54 }
  - { offsetInCU: 0x19858, offset: 0x19858, size: 0x8, addend: 0x0, symName: __ZNSt3__116__pad_and_outputB8ue170006IcNS_11char_traitsIcEEEENS_19ostreambuf_iteratorIT_T0_EES6_PKS4_S8_S8_RNS_8ios_baseES4_, symObjAddr: 0x644C, symBinAddr: 0x100009E9C, symSize: 0x240 }
  - { offsetInCU: 0x19928, offset: 0x19928, size: 0x8, addend: 0x0, symName: __ZNSt3__112__to_addressB8ue170006IKcEEPT_S3_, symObjAddr: 0x6988, symBinAddr: 0x10000A3D8, symSize: 0x14 }
  - { offsetInCU: 0x19990, offset: 0x19990, size: 0x8, addend: 0x0, symName: __ZNSt3__19use_facetB8ue170006INS_5ctypeIcEEEERKT_RKNS_6localeE, symObjAddr: 0x6C00, symBinAddr: 0x10000A650, symSize: 0x2C }
  - { offsetInCU: 0x19E67, offset: 0x19E67, size: 0x8, addend: 0x0, symName: __ZNSt3__118__constexpr_strlenB8ue170006EPKc, symObjAddr: 0x6C64, symBinAddr: 0x10000A6B4, symSize: 0x24 }
  - { offsetInCU: 0x1AD91, offset: 0x1AD91, size: 0x8, addend: 0x0, symName: __ZN5Eigen8internal19random_default_implIiLb0ELb1EE3runEv, symObjAddr: 0x4964, symBinAddr: 0x1000083B4, symSize: 0x20 }
  - { offsetInCU: 0x1B5A0, offset: 0x1B5A0, size: 0x8, addend: 0x0, symName: __ZNKSt3__16chrono15__duration_castINS0_8durationIxNS_5ratioILl1ELl1000000000EEEEENS2_IdNS3_ILl1ELl1000EEEEENS3_ILl1ELl1000000EEELb1ELb0EEclB8ue170006ERKS5_, symObjAddr: 0x1260, symBinAddr: 0x100004CB0, symSize: 0x50 }
  - { offsetInCU: 0x1B6AC, offset: 0x1B6AC, size: 0x8, addend: 0x0, symName: _main, symObjAddr: 0x4EC, symBinAddr: 0x100003F3C, symSize: 0x3B0 }
  - { offsetInCU: 0x1DE2B, offset: 0x1DE2B, size: 0x8, addend: 0x0, symName: __ZN5Eigen8symbolic10SymbolExprINS_8internal17symbolic_last_tagEEC1Ev, symObjAddr: 0x0, symBinAddr: 0x100003A50, symSize: 0x2C }
  - { offsetInCU: 0x1DE55, offset: 0x1DE55, size: 0x8, addend: 0x0, symName: __ZNK5Eigen8symbolic8BaseExprINS0_10SymbolExprINS_8internal17symbolic_last_tagEEEEplILi1EEENS0_7AddExprIS5_NS0_9ValueExprINS3_8FixedIntIXT_EEEEEEESB_, symObjAddr: 0x2C, symBinAddr: 0x100003A7C, symSize: 0x48 }
  - { offsetInCU: 0x1DE90, offset: 0x1DE90, size: 0x8, addend: 0x0, symName: __ZNK5Eigen8internal8FixedIntILi1EEclEv, symObjAddr: 0x74, symBinAddr: 0x100003AC4, symSize: 0x10 }
  - { offsetInCU: 0x1DEB6, offset: 0x1DEB6, size: 0x8, addend: 0x0, symName: __ZN5Eigen8internal5all_tC1Ev, symObjAddr: 0x84, symBinAddr: 0x100003AD4, symSize: 0x2C }
  - { offsetInCU: 0x1DEDF, offset: 0x1DEDF, size: 0x8, addend: 0x0, symName: __Z12findFirstOneRKN5Eigen5ArrayIiLin1ELi1ELi0ELin1ELi1EEE, symObjAddr: 0xB0, symBinAddr: 0x100003B00, symSize: 0x1E4 }
  - { offsetInCU: 0x1DF8A, offset: 0x1DF8A, size: 0x8, addend: 0x0, symName: __ZNK5Eigen9DenseBaseINS_5ArrayIiLin1ELi1ELi0ELin1ELi1EEEE3sumEv, symObjAddr: 0x294, symBinAddr: 0x100003CE4, symSize: 0x70 }
  - { offsetInCU: 0x1DFB3, offset: 0x1DFB3, size: 0x8, addend: 0x0, symName: __ZNK5Eigen9EigenBaseINS_5ArrayIiLin1ELi1ELi0ELin1ELi1EEEE4sizeEv, symObjAddr: 0x330, symBinAddr: 0x100003D80, symSize: 0x44 }
  - { offsetInCU: 0x1DFE8, offset: 0x1DFE8, size: 0x8, addend: 0x0, symName: __ZNK5Eigen9DenseBaseINS_5ArrayIiLin1ELi1ELi0ELin1ELi1EEEE7segmentIiEEKNS3_27ConstFixedSegmentReturnTypeIXsr8internal15get_fixed_valueIT_EE5valueEE4TypeElS6_, symObjAddr: 0x374, symBinAddr: 0x100003DC4, symSize: 0x64 }
  - { offsetInCU: 0x1E035, offset: 0x1E035, size: 0x8, addend: 0x0, symName: __ZNK5Eigen9DenseBaseINS_5BlockIKNS_5ArrayIiLin1ELi1ELi0ELin1ELi1EEELin1ELi1ELb0EEEE3sumEv, symObjAddr: 0x3D8, symBinAddr: 0x100003E28, symSize: 0x70 }
  - { offsetInCU: 0x1E05E, offset: 0x1E05E, size: 0x8, addend: 0x0, symName: __ZNK5Eigen15DenseCoeffsBaseINS_5ArrayIiLin1ELi1ELi0ELin1ELi1EEELi0EEixEl, symObjAddr: 0x448, symBinAddr: 0x100003E98, symSize: 0xA4 }
  - { offsetInCU: 0x1E092, offset: 0x1E092, size: 0x8, addend: 0x0, symName: __ZN5Eigen9DenseBaseINS_5ArrayIiLin1ELin1ELi0ELin1ELin1EEEE6RandomEll, symObjAddr: 0x89C, symBinAddr: 0x1000042EC, symSize: 0x58 }
  - { offsetInCU: 0x1E0C7, offset: 0x1E0C7, size: 0x8, addend: 0x0, symName: '__ZNK5Eigen9DenseBaseINS_14CwiseNullaryOpINS_8internal16scalar_random_opIiEENS_5ArrayIiLin1ELin1ELi0ELin1ELin1EEEEEE9unaryExprIZ4mainE3$_0EEKNS_12CwiseUnaryOpIT_KS7_EERKSC_', symObjAddr: 0x8F4, symBinAddr: 0x100004344, symSize: 0x40 }
  - { offsetInCU: 0x1E109, offset: 0x1E109, size: 0x8, addend: 0x0, symName: '__ZN5Eigen5ArrayIiLin1ELin1ELi0ELin1ELin1EEC1INS_12CwiseUnaryOpIZ4mainE3$_0KNS_14CwiseNullaryOpINS_8internal16scalar_random_opIiEES1_EEEEEERKNS_9EigenBaseIT_EENS6_9enable_ifIXsr8internal14is_convertibleINSD_6ScalarEiEE5valueENS1_11PrivateTypeEE4typeE', symObjAddr: 0x934, symBinAddr: 0x100004384, symSize: 0x34 }
  - { offsetInCU: 0x1E1F2, offset: 0x1E1F2, size: 0x8, addend: 0x0, symName: __ZNSt3__114basic_ofstreamIcNS_11char_traitsIcEEEC1EPKcj, symObjAddr: 0x968, symBinAddr: 0x1000043B8, symSize: 0x16C }
  - { offsetInCU: 0x1E23C, offset: 0x1E23C, size: 0x8, addend: 0x0, symName: __ZNK5Eigen15PlainObjectBaseINS_5ArrayIiLin1ELin1ELi0ELin1ELin1EEEE4rowsEv, symObjAddr: 0xAD4, symBinAddr: 0x100004524, symSize: 0x24 }
  - { offsetInCU: 0x1E262, offset: 0x1E262, size: 0x8, addend: 0x0, symName: __ZN5Eigen9DenseBaseINS_5ArrayIiLin1ELin1ELi0ELin1ELin1EEEE3rowEl, symObjAddr: 0xAF8, symBinAddr: 0x100004548, symSize: 0x3C }
  - { offsetInCU: 0x1E29C, offset: 0x1E29C, size: 0x8, addend: 0x0, symName: __ZN5Eigen5ArrayIiLin1ELi1ELi0ELin1ELi1EEC1INS_5BlockINS0_IiLin1ELin1ELi0ELin1ELin1EEELi1ELin1ELb0EEEEERKNS_9EigenBaseIT_EENS_8internal9enable_ifIXsr8internal14is_convertibleINS7_6ScalarEiEE5valueENS1_11PrivateTypeEE4typeE, symObjAddr: 0xB34, symBinAddr: 0x100004584, symSize: 0x34 }
  - { offsetInCU: 0x1E2E9, offset: 0x1E2E9, size: 0x8, addend: 0x0, symName: __ZN5Eigen5ArrayIiLin1ELi1ELi0ELin1ELi1EED1Ev, symObjAddr: 0xB68, symBinAddr: 0x1000045B8, symSize: 0x2C }
  - { offsetInCU: 0x1E31A, offset: 0x1E31A, size: 0x8, addend: 0x0, symName: __ZNSt3__16chrono8durationIdNS_5ratioILl1ELl1000EEEEC1B8ue170006IxNS2_ILl1ELl1000000000EEEEERKNS1_IT_T0_EEPNS_9enable_ifIXaasr13__no_overflowIS8_S3_EE5valueooL_ZNS_17integral_constantIbLb1EE5valueEEaaeqsr13__no_overflowIS8_S3_E4typeE3denLi1Entsr23treat_as_floating_pointIS7_EE5valueEvE4typeE, symObjAddr: 0xBEC, symBinAddr: 0x10000463C, symSize: 0x3C }
  - { offsetInCU: 0x1E370, offset: 0x1E370, size: 0x8, addend: 0x0, symName: __ZNKSt3__16chrono8durationIdNS_5ratioILl1ELl1000EEEE5countB8ue170006Ev, symObjAddr: 0xC70, symBinAddr: 0x1000046C0, symSize: 0x18 }
  - { offsetInCU: 0x1E396, offset: 0x1E396, size: 0x8, addend: 0x0, symName: __ZNSt3__113basic_ostreamIcNS_11char_traitsIcEEElsB8ue170006EPFRS3_S4_E, symObjAddr: 0xC88, symBinAddr: 0x1000046D8, symSize: 0x2C }
  - { offsetInCU: 0x1E3CA, offset: 0x1E3CA, size: 0x8, addend: 0x0, symName: __ZNSt3__114basic_ofstreamIcNS_11char_traitsIcEEE5closeEv, symObjAddr: 0xD0C, symBinAddr: 0x10000475C, symSize: 0x58 }
  - { offsetInCU: 0x1E3F7, offset: 0x1E3F7, size: 0x8, addend: 0x0, symName: __ZNSt3__114basic_ofstreamIcNS_11char_traitsIcEEED1Ev, symObjAddr: 0xD64, symBinAddr: 0x1000047B4, symSize: 0x40 }
  - { offsetInCU: 0x1E424, offset: 0x1E424, size: 0x8, addend: 0x0, symName: __ZN5Eigen5ArrayIiLin1ELin1ELi0ELin1ELin1EED1Ev, symObjAddr: 0xDA4, symBinAddr: 0x1000047F4, symSize: 0x2C }
  - { offsetInCU: 0x1E450, offset: 0x1E450, size: 0x8, addend: 0x0, symName: __ZN5Eigen8internal8FixedIntILi1EEC1Ev, symObjAddr: 0xDD0, symBinAddr: 0x100004820, symSize: 0x2C }
  - { offsetInCU: 0x1E47A, offset: 0x1E47A, size: 0x8, addend: 0x0, symName: __ZN5Eigen8internal5all_tC2Ev, symObjAddr: 0xDFC, symBinAddr: 0x10000484C, symSize: 0x14 }
  - { offsetInCU: 0x1E4AE, offset: 0x1E4AE, size: 0x8, addend: 0x0, symName: __ZNKSt3__16__lessIvvEclB8ue170006IiiEEbRKT_RKT0_, symObjAddr: 0xE64, symBinAddr: 0x1000048B4, symSize: 0x34 }
  - { offsetInCU: 0x1E502, offset: 0x1E502, size: 0x8, addend: 0x0, symName: __ZNK5Eigen9EigenBaseINS_5ArrayIiLin1ELi1ELi0ELin1ELi1EEEE4rowsEv, symObjAddr: 0xE98, symBinAddr: 0x1000048E8, symSize: 0x38 }
  - { offsetInCU: 0x1E528, offset: 0x1E528, size: 0x8, addend: 0x0, symName: __ZNK5Eigen9EigenBaseINS_5ArrayIiLin1ELi1ELi0ELin1ELi1EEEE4colsEv, symObjAddr: 0xED0, symBinAddr: 0x100004920, symSize: 0x28 }
  - { offsetInCU: 0x1E54E, offset: 0x1E54E, size: 0x8, addend: 0x0, symName: __ZNK5Eigen9EigenBaseINS_5ArrayIiLin1ELi1ELi0ELin1ELi1EEEE7derivedEv, symObjAddr: 0xEF8, symBinAddr: 0x100004948, symSize: 0x14 }
  - { offsetInCU: 0x1E574, offset: 0x1E574, size: 0x8, addend: 0x0, symName: __ZNK5Eigen15PlainObjectBaseINS_5ArrayIiLin1ELi1ELi0ELin1ELi1EEEE4rowsEv, symObjAddr: 0xF18, symBinAddr: 0x100004968, symSize: 0x24 }
  - { offsetInCU: 0x1E59A, offset: 0x1E59A, size: 0x8, addend: 0x0, symName: __ZNK5Eigen12DenseStorageIiLin1ELin1ELi1ELi0EE4rowsEv, symObjAddr: 0xF3C, symBinAddr: 0x10000498C, symSize: 0x18 }
  - { offsetInCU: 0x1E5C0, offset: 0x1E5C0, size: 0x8, addend: 0x0, symName: __ZNK5Eigen15PlainObjectBaseINS_5ArrayIiLin1ELi1ELi0ELin1ELi1EEEE4colsEv, symObjAddr: 0xF54, symBinAddr: 0x1000049A4, symSize: 0x30 }
  - { offsetInCU: 0x1E5E6, offset: 0x1E5E6, size: 0x8, addend: 0x0, symName: __ZN5Eigen12DenseStorageIiLin1ELin1ELi1ELi0EE4colsEv, symObjAddr: 0xF84, symBinAddr: 0x1000049D4, symSize: 0x8 }
  - { offsetInCU: 0x1E5FA, offset: 0x1E5FA, size: 0x8, addend: 0x0, symName: __ZNK5Eigen12DenseStorageIiLin1ELin1ELin1ELi0EE4rowsEv, symObjAddr: 0xF8C, symBinAddr: 0x1000049DC, symSize: 0x18 }
  - { offsetInCU: 0x1E620, offset: 0x1E620, size: 0x8, addend: 0x0, symName: __ZN5Eigen5ArrayIiLin1ELi1ELi0ELin1ELi1EED2Ev, symObjAddr: 0xFA4, symBinAddr: 0x1000049F4, symSize: 0x2C }
  - { offsetInCU: 0x1E64C, offset: 0x1E64C, size: 0x8, addend: 0x0, symName: __ZN5Eigen15PlainObjectBaseINS_5ArrayIiLin1ELi1ELi0ELin1ELi1EEEED2Ev, symObjAddr: 0xFD0, symBinAddr: 0x100004A20, symSize: 0x2C }
  - { offsetInCU: 0x1E678, offset: 0x1E678, size: 0x8, addend: 0x0, symName: __ZN5Eigen12DenseStorageIiLin1ELin1ELi1ELi0EED1Ev, symObjAddr: 0xFFC, symBinAddr: 0x100004A4C, symSize: 0x2C }
  - { offsetInCU: 0x1E6A2, offset: 0x1E6A2, size: 0x8, addend: 0x0, symName: __ZN5Eigen12DenseStorageIiLin1ELin1ELi1ELi0EED2Ev, symObjAddr: 0x1028, symBinAddr: 0x100004A78, symSize: 0x44 }
  - { offsetInCU: 0x1E6EA, offset: 0x1E6EA, size: 0x8, addend: 0x0, symName: __ZNKSt3__16chrono10time_pointINS0_12steady_clockENS0_8durationIxNS_5ratioILl1ELl1000000000EEEEEE16time_since_epochB8ue170006Ev, symObjAddr: 0x114C, symBinAddr: 0x100004B9C, symSize: 0x20 }
  - { offsetInCU: 0x1E710, offset: 0x1E710, size: 0x8, addend: 0x0, symName: __ZNKSt3__16chrono8durationIxNS_5ratioILl1ELl1000000000EEEE5countB8ue170006Ev, symObjAddr: 0x116C, symBinAddr: 0x100004BBC, symSize: 0x18 }
  - { offsetInCU: 0x1E740, offset: 0x1E740, size: 0x8, addend: 0x0, symName: __ZNSt3__16chrono8durationIxNS_5ratioILl1ELl1000000000EEEEC1B8ue170006IxEERKT_PNS_9enable_ifIXaasr14is_convertibleIS8_xEE5valueooL_ZNS_17integral_constantIbLb0EE5valueEEntsr23treat_as_floating_pointIS6_EE5valueEvE4typeE, symObjAddr: 0x1184, symBinAddr: 0x100004BD4, symSize: 0x3C }
  - { offsetInCU: 0x1E78C, offset: 0x1E78C, size: 0x8, addend: 0x0, symName: __ZNSt3__16chrono8durationIxNS_5ratioILl1ELl1000000000EEEEC2B8ue170006IxEERKT_PNS_9enable_ifIXaasr14is_convertibleIS8_xEE5valueooL_ZNS_17integral_constantIbLb0EE5valueEEntsr23treat_as_floating_pointIS6_EE5valueEvE4typeE, symObjAddr: 0x11C0, symBinAddr: 0x100004C10, symSize: 0x28 }
  - { offsetInCU: 0x1E7D8, offset: 0x1E7D8, size: 0x8, addend: 0x0, symName: __ZNSt3__16chrono8durationIdNS_5ratioILl1ELl1000EEEEC2B8ue170006IxNS2_ILl1ELl1000000000EEEEERKNS1_IT_T0_EEPNS_9enable_ifIXaasr13__no_overflowIS8_S3_EE5valueooL_ZNS_17integral_constantIbLb1EE5valueEEaaeqsr13__no_overflowIS8_S3_E4typeE3denLi1Entsr23treat_as_floating_pointIS7_EE5valueEvE4typeE, symObjAddr: 0x11E8, symBinAddr: 0x100004C38, symSize: 0x48 }
  - { offsetInCU: 0x1E838, offset: 0x1E838, size: 0x8, addend: 0x0, symName: __ZNSt3__16chrono8durationIdNS_5ratioILl1ELl1000EEEEC1B8ue170006IdEERKT_PNS_9enable_ifIXaasr14is_convertibleIS8_dEE5valueooL_ZNS_17integral_constantIbLb1EE5valueEEntsr23treat_as_floating_pointIS6_EE5valueEvE4typeE, symObjAddr: 0x12B0, symBinAddr: 0x100004D00, symSize: 0x3C }
  - { offsetInCU: 0x1E884, offset: 0x1E884, size: 0x8, addend: 0x0, symName: __ZNSt3__16chrono8durationIdNS_5ratioILl1ELl1000EEEEC2B8ue170006IdEERKT_PNS_9enable_ifIXaasr14is_convertibleIS8_dEE5valueooL_ZNS_17integral_constantIbLb1EE5valueEEntsr23treat_as_floating_pointIS6_EE5valueEvE4typeE, symObjAddr: 0x12EC, symBinAddr: 0x100004D3C, symSize: 0x28 }
  - { offsetInCU: 0x1E8D0, offset: 0x1E8D0, size: 0x8, addend: 0x0, symName: __ZNSt3__114basic_ofstreamIcNS_11char_traitsIcEEED2Ev, symObjAddr: 0x1314, symBinAddr: 0x100004D64, symSize: 0x64 }
  - { offsetInCU: 0x1E90A, offset: 0x1E90A, size: 0x8, addend: 0x0, symName: __ZTv0_n24_NSt3__114basic_ofstreamIcNS_11char_traitsIcEEED1Ev, symObjAddr: 0x1378, symBinAddr: 0x100004DC8, symSize: 0x28 }
  - { offsetInCU: 0x1E921, offset: 0x1E921, size: 0x8, addend: 0x0, symName: __ZN5Eigen5ArrayIiLin1ELin1ELi0ELin1ELin1EED2Ev, symObjAddr: 0x13A0, symBinAddr: 0x100004DF0, symSize: 0x2C }
  - { offsetInCU: 0x1E94D, offset: 0x1E94D, size: 0x8, addend: 0x0, symName: __ZN5Eigen15PlainObjectBaseINS_5ArrayIiLin1ELin1ELi0ELin1ELin1EEEED2Ev, symObjAddr: 0x13CC, symBinAddr: 0x100004E1C, symSize: 0x2C }
  - { offsetInCU: 0x1E979, offset: 0x1E979, size: 0x8, addend: 0x0, symName: __ZN5Eigen12DenseStorageIiLin1ELin1ELin1ELi0EED1Ev, symObjAddr: 0x13F8, symBinAddr: 0x100004E48, symSize: 0x2C }
  - { offsetInCU: 0x1E9A3, offset: 0x1E9A3, size: 0x8, addend: 0x0, symName: __ZN5Eigen12DenseStorageIiLin1ELin1ELin1ELi0EED2Ev, symObjAddr: 0x1424, symBinAddr: 0x100004E74, symSize: 0x44 }
  - { offsetInCU: 0x1E9CD, offset: 0x1E9CD, size: 0x8, addend: 0x0, symName: __ZN5Eigen8symbolic10SymbolExprINS_8internal17symbolic_last_tagEEC2Ev, symObjAddr: 0x1468, symBinAddr: 0x100004EB8, symSize: 0x14 }
  - { offsetInCU: 0x1E9F7, offset: 0x1E9F7, size: 0x8, addend: 0x0, symName: __ZN5Eigen8internal8FixedIntILi1EEC2Ev, symObjAddr: 0x147C, symBinAddr: 0x100004ECC, symSize: 0x14 }
  - { offsetInCU: 0x1EA21, offset: 0x1EA21, size: 0x8, addend: 0x0, symName: __ZNK5Eigen8symbolic8BaseExprINS0_10SymbolExprINS_8internal17symbolic_last_tagEEEE7derivedEv, symObjAddr: 0x1490, symBinAddr: 0x100004EE0, symSize: 0x14 }
  - { offsetInCU: 0x1EA47, offset: 0x1EA47, size: 0x8, addend: 0x0, symName: __ZN5Eigen8symbolic9ValueExprINS_8internal8FixedIntILi1EEEEC1Ev, symObjAddr: 0x14A4, symBinAddr: 0x100004EF4, symSize: 0x2C }
  - { offsetInCU: 0x1EA71, offset: 0x1EA71, size: 0x8, addend: 0x0, symName: __ZN5Eigen8symbolic7AddExprINS0_10SymbolExprINS_8internal17symbolic_last_tagEEENS0_9ValueExprINS3_8FixedIntILi1EEEEEEC1ERKS5_RKS9_, symObjAddr: 0x14D0, symBinAddr: 0x100004F20, symSize: 0x3C }
  - { offsetInCU: 0x1EAB7, offset: 0x1EAB7, size: 0x8, addend: 0x0, symName: __ZN5Eigen8symbolic9ValueExprINS_8internal8FixedIntILi1EEEEC2Ev, symObjAddr: 0x150C, symBinAddr: 0x100004F5C, symSize: 0x14 }
  - { offsetInCU: 0x1EAE1, offset: 0x1EAE1, size: 0x8, addend: 0x0, symName: __ZN5Eigen8symbolic7AddExprINS0_10SymbolExprINS_8internal17symbolic_last_tagEEENS0_9ValueExprINS3_8FixedIntILi1EEEEEEC2ERKS5_RKS9_, symObjAddr: 0x1520, symBinAddr: 0x100004F70, symSize: 0x1C }
  - { offsetInCU: 0x1EB3B, offset: 0x1EB3B, size: 0x8, addend: 0x0, symName: __ZNK5Eigen9DenseBaseINS_5ArrayIiLin1ELi1ELi0ELin1ELi1EEEE5reduxINS_8internal13scalar_sum_opIiiEEEEiRKT_, symObjAddr: 0x153C, symBinAddr: 0x100004F8C, symSize: 0x10C }
  - { offsetInCU: 0x1EB97, offset: 0x1EB97, size: 0x8, addend: 0x0, symName: __ZN5Eigen8internal13scalar_sum_opIiiEC1Ev, symObjAddr: 0x1648, symBinAddr: 0x100005098, symSize: 0x2C }
  - { offsetInCU: 0x1EBDA, offset: 0x1EBDA, size: 0x8, addend: 0x0, symName: __ZN5Eigen8internal15redux_evaluatorINS_5ArrayIiLin1ELi1ELi0ELin1ELi1EEEEC1ERKS3_, symObjAddr: 0x1674, symBinAddr: 0x1000050C4, symSize: 0x34 }
  - { offsetInCU: 0x1EC18, offset: 0x1EC18, size: 0x8, addend: 0x0, symName: __ZN5Eigen8internal10redux_implINS0_13scalar_sum_opIiiEENS0_15redux_evaluatorINS_5ArrayIiLin1ELi1ELi0ELin1ELi1EEEEELi3ELi0EE3runIS6_EEiRKS7_RKS3_RKT_, symObjAddr: 0x16A8, symBinAddr: 0x1000050F8, symSize: 0x340 }
  - { offsetInCU: 0x1ED94, offset: 0x1ED94, size: 0x8, addend: 0x0, symName: __ZN5Eigen8internal15redux_evaluatorINS_5ArrayIiLin1ELi1ELi0ELin1ELi1EEEED1Ev, symObjAddr: 0x19E8, symBinAddr: 0x100005438, symSize: 0x2C }
  - { offsetInCU: 0x1EDC1, offset: 0x1EDC1, size: 0x8, addend: 0x0, symName: __ZN5Eigen8internal15redux_evaluatorINS_5ArrayIiLin1ELi1ELi0ELin1ELi1EEEEC2ERKS3_, symObjAddr: 0x1A14, symBinAddr: 0x100005464, symSize: 0x34 }
  - { offsetInCU: 0x1EDFA, offset: 0x1EDFA, size: 0x8, addend: 0x0, symName: __ZN5Eigen8internal9evaluatorINS_5ArrayIiLin1ELi1ELi0ELin1ELi1EEEEC2ERKS3_, symObjAddr: 0x1A48, symBinAddr: 0x100005498, symSize: 0x34 }
  - { offsetInCU: 0x1EE33, offset: 0x1EE33, size: 0x8, addend: 0x0, symName: __ZN5Eigen8internal9evaluatorINS_15PlainObjectBaseINS_5ArrayIiLin1ELi1ELi0ELin1ELi1EEEEEEC2ERKS5_, symObjAddr: 0x1A7C, symBinAddr: 0x1000054CC, symSize: 0x78 }
  - { offsetInCU: 0x1EE6B, offset: 0x1EE6B, size: 0x8, addend: 0x0, symName: __ZN5Eigen8internal14evaluator_baseINS_5ArrayIiLin1ELi1ELi0ELin1ELi1EEEEC2Ev, symObjAddr: 0x1AF4, symBinAddr: 0x100005544, symSize: 0x14 }
  - { offsetInCU: 0x1EE95, offset: 0x1EE95, size: 0x8, addend: 0x0, symName: __ZNK5Eigen15PlainObjectBaseINS_5ArrayIiLin1ELi1ELi0ELin1ELi1EEEE4dataEv, symObjAddr: 0x1B08, symBinAddr: 0x100005558, symSize: 0x24 }
  - { offsetInCU: 0x1EEBB, offset: 0x1EEBB, size: 0x8, addend: 0x0, symName: __ZN5Eigen8internal30plainobjectbase_evaluator_dataIiLi0EEC1EPKil, symObjAddr: 0x1B2C, symBinAddr: 0x10000557C, symSize: 0x3C }
  - { offsetInCU: 0x1EF01, offset: 0x1EF01, size: 0x8, addend: 0x0, symName: __ZN5Eigen8internal14evaluator_baseINS_5ArrayIiLin1ELi1ELi0ELin1ELi1EEEED2Ev, symObjAddr: 0x1B68, symBinAddr: 0x1000055B8, symSize: 0x14 }
  - { offsetInCU: 0x1EF2B, offset: 0x1EF2B, size: 0x8, addend: 0x0, symName: __ZNK5Eigen12DenseStorageIiLin1ELin1ELi1ELi0EE4dataEv, symObjAddr: 0x1B7C, symBinAddr: 0x1000055CC, symSize: 0x18 }
  - { offsetInCU: 0x1EF51, offset: 0x1EF51, size: 0x8, addend: 0x0, symName: __ZN5Eigen8internal30plainobjectbase_evaluator_dataIiLi0EEC2EPKil, symObjAddr: 0x1B94, symBinAddr: 0x1000055E4, symSize: 0x40 }
  - { offsetInCU: 0x1EFAF, offset: 0x1EFAF, size: 0x8, addend: 0x0, symName: __ZNK5Eigen8internal9evaluatorINS_15PlainObjectBaseINS_5ArrayIiLin1ELi1ELi0ELin1ELi1EEEEEE6packetILi16E17__simd128_int32_tEET0_l, symObjAddr: 0x1C08, symBinAddr: 0x100005658, symSize: 0x3C }
  - { offsetInCU: 0x1F01E, offset: 0x1F01E, size: 0x8, addend: 0x0, symName: __ZNK5Eigen8internal13scalar_sum_opIiiE8packetOpI17__simd128_int32_tEET_RKS5_S7_, symObjAddr: 0x1C44, symBinAddr: 0x100005694, symSize: 0x30 }
  - { offsetInCU: 0x1F069, offset: 0x1F069, size: 0x8, addend: 0x0, symName: __ZNK5Eigen8internal13scalar_sum_opIiiE6preduxI17__simd128_int32_tEEiRKT_, symObjAddr: 0x1C74, symBinAddr: 0x1000056C4, symSize: 0x28 }
  - { offsetInCU: 0x1F0A6, offset: 0x1F0A6, size: 0x8, addend: 0x0, symName: __ZNK5Eigen8internal13scalar_sum_opIiiEclERKiS4_, symObjAddr: 0x1C9C, symBinAddr: 0x1000056EC, symSize: 0x2C }
  - { offsetInCU: 0x1F0E8, offset: 0x1F0E8, size: 0x8, addend: 0x0, symName: __ZNK5Eigen8internal9evaluatorINS_15PlainObjectBaseINS_5ArrayIiLin1ELi1ELi0ELin1ELi1EEEEEE5coeffEl, symObjAddr: 0x1CC8, symBinAddr: 0x100005718, symSize: 0x24 }
  - { offsetInCU: 0x1F11C, offset: 0x1F11C, size: 0x8, addend: 0x0, symName: __ZN5Eigen8internal18first_aligned_implILi16ENS_5ArrayIiLin1ELi1ELi0ELin1ELi1EEELb1EE3runERKS3_, symObjAddr: 0x1D14, symBinAddr: 0x100005764, symSize: 0x14 }
  - { offsetInCU: 0x1F13C, offset: 0x1F13C, size: 0x8, addend: 0x0, symName: __ZN5Eigen8internal15redux_evaluatorINS_5ArrayIiLin1ELi1ELi0ELin1ELi1EEEED2Ev, symObjAddr: 0x1E3C, symBinAddr: 0x10000588C, symSize: 0x2C }
  - { offsetInCU: 0x1F169, offset: 0x1F169, size: 0x8, addend: 0x0, symName: __ZN5Eigen8internal9evaluatorINS_5ArrayIiLin1ELi1ELi0ELin1ELi1EEEED2Ev, symObjAddr: 0x1E68, symBinAddr: 0x1000058B8, symSize: 0x2C }
  - { offsetInCU: 0x1F196, offset: 0x1F196, size: 0x8, addend: 0x0, symName: __ZN5Eigen8internal9evaluatorINS_15PlainObjectBaseINS_5ArrayIiLin1ELi1ELi0ELin1ELi1EEEEEED2Ev, symObjAddr: 0x1E94, symBinAddr: 0x1000058E4, symSize: 0x2C }
  - { offsetInCU: 0x1F1C2, offset: 0x1F1C2, size: 0x8, addend: 0x0, symName: __ZN5Eigen8internal13scalar_sum_opIiiEC2Ev, symObjAddr: 0x1EC0, symBinAddr: 0x100005910, symSize: 0x14 }
  - { offsetInCU: 0x1F1EC, offset: 0x1F1EC, size: 0x8, addend: 0x0, symName: __ZN5Eigen11VectorBlockIKNS_5ArrayIiLin1ELi1ELi0ELin1ELi1EEELin1EEC1ERS3_ll, symObjAddr: 0x1EEC, symBinAddr: 0x10000593C, symSize: 0x44 }
  - { offsetInCU: 0x1F240, offset: 0x1F240, size: 0x8, addend: 0x0, symName: __ZN5Eigen11VectorBlockIKNS_5ArrayIiLin1ELi1ELi0ELin1ELi1EEELin1EEC2ERS3_ll, symObjAddr: 0x1F30, symBinAddr: 0x100005980, symSize: 0x4C }
  - { offsetInCU: 0x1F294, offset: 0x1F294, size: 0x8, addend: 0x0, symName: __ZN5Eigen5BlockIKNS_5ArrayIiLin1ELi1ELi0ELin1ELi1EEELin1ELi1ELb0EEC2ERS3_llll, symObjAddr: 0x1F7C, symBinAddr: 0x1000059CC, symSize: 0x190 }
  - { offsetInCU: 0x1F304, offset: 0x1F304, size: 0x8, addend: 0x0, symName: __ZN5Eigen9BlockImplIKNS_5ArrayIiLin1ELi1ELi0ELin1ELi1EEELin1ELi1ELb0ENS_5DenseEEC2ERS3_llll, symObjAddr: 0x210C, symBinAddr: 0x100005B5C, symSize: 0x54 }
  - { offsetInCU: 0x1F374, offset: 0x1F374, size: 0x8, addend: 0x0, symName: __ZN5Eigen8internal15BlockImpl_denseIKNS_5ArrayIiLin1ELi1ELi0ELin1ELi1EEELin1ELi1ELb0ELb1EEC2ERS4_llll, symObjAddr: 0x2160, symBinAddr: 0x100005BB0, symSize: 0xC4 }
  - { offsetInCU: 0x1F3E9, offset: 0x1F3E9, size: 0x8, addend: 0x0, symName: __ZNK5Eigen5ArrayIiLin1ELi1ELi0ELin1ELi1EE11innerStrideEv, symObjAddr: 0x2224, symBinAddr: 0x100005C74, symSize: 0x14 }
  - { offsetInCU: 0x1F40F, offset: 0x1F40F, size: 0x8, addend: 0x0, symName: __ZNK5Eigen5ArrayIiLin1ELi1ELi0ELin1ELi1EE11outerStrideEv, symObjAddr: 0x2238, symBinAddr: 0x100005C88, symSize: 0x34 }
  - { offsetInCU: 0x1F435, offset: 0x1F435, size: 0x8, addend: 0x0, symName: __ZN5Eigen7MapBaseINS_5BlockIKNS_5ArrayIiLin1ELi1ELi0ELin1ELi1EEELin1ELi1ELb0EEELi0EEC2EPKill, symObjAddr: 0x226C, symBinAddr: 0x100005CBC, symSize: 0x11C }
  - { offsetInCU: 0x1F489, offset: 0x1F489, size: 0x8, addend: 0x0, symName: __ZN5Eigen8internal19variable_if_dynamicIlLin1EEC1El, symObjAddr: 0x2388, symBinAddr: 0x100005DD8, symSize: 0x34 }
  - { offsetInCU: 0x1F4C1, offset: 0x1F4C1, size: 0x8, addend: 0x0, symName: __ZN5Eigen8internal19variable_if_dynamicIlLi0EEC1El, symObjAddr: 0x23BC, symBinAddr: 0x100005E0C, symSize: 0x34 }
  - { offsetInCU: 0x1F4F9, offset: 0x1F4F9, size: 0x8, addend: 0x0, symName: __ZN5Eigen8internal15BlockImpl_denseIKNS_5ArrayIiLin1ELi1ELi0ELin1ELi1EEELin1ELi1ELb0ELb1EE4initEv, symObjAddr: 0x23F0, symBinAddr: 0x100005E40, symSize: 0x34 }
  - { offsetInCU: 0x1F51F, offset: 0x1F51F, size: 0x8, addend: 0x0, symName: __ZNK5Eigen9DenseBaseINS_5ArrayIiLin1ELi1ELi0ELin1ELi1EEEE9innerSizeEv, symObjAddr: 0x2424, symBinAddr: 0x100005E74, symSize: 0x24 }
  - { offsetInCU: 0x1F545, offset: 0x1F545, size: 0x8, addend: 0x0, symName: __ZN5Eigen9ArrayBaseINS_5BlockIKNS_5ArrayIiLin1ELi1ELi0ELin1ELi1EEELin1ELi1ELb0EEEEC2Ev, symObjAddr: 0x2448, symBinAddr: 0x100005E98, symSize: 0x2C }
  - { offsetInCU: 0x1F56F, offset: 0x1F56F, size: 0x8, addend: 0x0, symName: __ZN5Eigen8internal19variable_if_dynamicIlLi1EEC1El, symObjAddr: 0x2474, symBinAddr: 0x100005EC4, symSize: 0x34 }
  - { offsetInCU: 0x1F5A7, offset: 0x1F5A7, size: 0x8, addend: 0x0, symName: __ZNK5Eigen7MapBaseINS_5BlockIKNS_5ArrayIiLin1ELi1ELi0ELin1ELi1EEELin1ELi1ELb0EEELi0EE11checkSanityIS5_EEvNS_8internal9enable_ifIXeqsr8internal6traitsIT_EE9AlignmentLi0EEPvE4typeE, symObjAddr: 0x24A8, symBinAddr: 0x100005EF8, symSize: 0x14 }
  - { offsetInCU: 0x1F5E1, offset: 0x1F5E1, size: 0x8, addend: 0x0, symName: __ZN5Eigen9DenseBaseINS_5BlockIKNS_5ArrayIiLin1ELi1ELi0ELin1ELi1EEELin1ELi1ELb0EEEEC2Ev, symObjAddr: 0x24BC, symBinAddr: 0x100005F0C, symSize: 0x14 }
  - { offsetInCU: 0x1F60B, offset: 0x1F60B, size: 0x8, addend: 0x0, symName: __ZN5Eigen8internal19variable_if_dynamicIlLi1EEC2El, symObjAddr: 0x24D0, symBinAddr: 0x100005F20, symSize: 0x64 }
  - { offsetInCU: 0x1F643, offset: 0x1F643, size: 0x8, addend: 0x0, symName: __ZN5Eigen8internal19variable_if_dynamicIlLin1EEC2El, symObjAddr: 0x2534, symBinAddr: 0x100005F84, symSize: 0x20 }
  - { offsetInCU: 0x1F67B, offset: 0x1F67B, size: 0x8, addend: 0x0, symName: __ZN5Eigen8internal19variable_if_dynamicIlLi0EEC2El, symObjAddr: 0x2554, symBinAddr: 0x100005FA4, symSize: 0x64 }
  - { offsetInCU: 0x1F6B3, offset: 0x1F6B3, size: 0x8, addend: 0x0, symName: __ZNK5Eigen9EigenBaseINS_5BlockIKNS_5ArrayIiLin1ELi1ELi0ELin1ELi1EEELin1ELi1ELb0EEEE4sizeEv, symObjAddr: 0x25B8, symBinAddr: 0x100006008, symSize: 0x44 }
  - { offsetInCU: 0x1F6D9, offset: 0x1F6D9, size: 0x8, addend: 0x0, symName: __ZNK5Eigen9EigenBaseINS_5BlockIKNS_5ArrayIiLin1ELi1ELi0ELin1ELi1EEELin1ELi1ELb0EEEE7derivedEv, symObjAddr: 0x25FC, symBinAddr: 0x10000604C, symSize: 0x14 }
  - { offsetInCU: 0x1F6FF, offset: 0x1F6FF, size: 0x8, addend: 0x0, symName: __ZNK5Eigen9DenseBaseINS_5BlockIKNS_5ArrayIiLin1ELi1ELi0ELin1ELi1EEELin1ELi1ELb0EEEE5reduxINS_8internal13scalar_sum_opIiiEEEEiRKT_, symObjAddr: 0x2610, symBinAddr: 0x100006060, symSize: 0x10C }
  - { offsetInCU: 0x1F75B, offset: 0x1F75B, size: 0x8, addend: 0x0, symName: __ZNK5Eigen9EigenBaseINS_5BlockIKNS_5ArrayIiLin1ELi1ELi0ELin1ELi1EEELin1ELi1ELb0EEEE4rowsEv, symObjAddr: 0x271C, symBinAddr: 0x10000616C, symSize: 0x38 }
  - { offsetInCU: 0x1F781, offset: 0x1F781, size: 0x8, addend: 0x0, symName: __ZNK5Eigen9EigenBaseINS_5BlockIKNS_5ArrayIiLin1ELi1ELi0ELin1ELi1EEELin1ELi1ELb0EEEE4colsEv, symObjAddr: 0x2754, symBinAddr: 0x1000061A4, symSize: 0x38 }
  - { offsetInCU: 0x1F7A7, offset: 0x1F7A7, size: 0x8, addend: 0x0, symName: __ZNK5Eigen7MapBaseINS_5BlockIKNS_5ArrayIiLin1ELi1ELi0ELin1ELi1EEELin1ELi1ELb0EEELi0EE4rowsEv, symObjAddr: 0x278C, symBinAddr: 0x1000061DC, symSize: 0x38 }
  - { offsetInCU: 0x1F7CD, offset: 0x1F7CD, size: 0x8, addend: 0x0, symName: __ZNK5Eigen8internal19variable_if_dynamicIlLin1EE5valueEv, symObjAddr: 0x27C4, symBinAddr: 0x100006214, symSize: 0x18 }
  - { offsetInCU: 0x1F7F3, offset: 0x1F7F3, size: 0x8, addend: 0x0, symName: __ZNK5Eigen7MapBaseINS_5BlockIKNS_5ArrayIiLin1ELi1ELi0ELin1ELi1EEELin1ELi1ELb0EEELi0EE4colsEv, symObjAddr: 0x27DC, symBinAddr: 0x10000622C, symSize: 0x30 }
  - { offsetInCU: 0x1F819, offset: 0x1F819, size: 0x8, addend: 0x0, symName: __ZN5Eigen8internal19variable_if_dynamicIlLi1EE5valueEv, symObjAddr: 0x280C, symBinAddr: 0x10000625C, symSize: 0x8 }
  - { offsetInCU: 0x1F864, offset: 0x1F864, size: 0x8, addend: 0x0, symName: __ZN5Eigen8internal15redux_evaluatorINS_5BlockIKNS_5ArrayIiLin1ELi1ELi0ELin1ELi1EEELin1ELi1ELb0EEEEC1ERKS6_, symObjAddr: 0x2814, symBinAddr: 0x100006264, symSize: 0x34 }
  - { offsetInCU: 0x1F8A2, offset: 0x1F8A2, size: 0x8, addend: 0x0, symName: __ZN5Eigen8internal10redux_implINS0_13scalar_sum_opIiiEENS0_15redux_evaluatorINS_5BlockIKNS_5ArrayIiLin1ELi1ELi0ELin1ELi1EEELin1ELi1ELb0EEEEELi3ELi0EE3runIS9_EEiRKSA_RKS3_RKT_, symObjAddr: 0x2848, symBinAddr: 0x100006298, symSize: 0x3B0 }
  - { offsetInCU: 0x1FA1F, offset: 0x1FA1F, size: 0x8, addend: 0x0, symName: __ZN5Eigen8internal15redux_evaluatorINS_5BlockIKNS_5ArrayIiLin1ELi1ELi0ELin1ELi1EEELin1ELi1ELb0EEEED1Ev, symObjAddr: 0x2BF8, symBinAddr: 0x100006648, symSize: 0x2C }
  - { offsetInCU: 0x1FA4C, offset: 0x1FA4C, size: 0x8, addend: 0x0, symName: __ZN5Eigen8internal15redux_evaluatorINS_5BlockIKNS_5ArrayIiLin1ELi1ELi0ELin1ELi1EEELin1ELi1ELb0EEEEC2ERKS6_, symObjAddr: 0x2C24, symBinAddr: 0x100006674, symSize: 0x34 }
  - { offsetInCU: 0x1FA85, offset: 0x1FA85, size: 0x8, addend: 0x0, symName: __ZN5Eigen8internal9evaluatorINS_5BlockIKNS_5ArrayIiLin1ELi1ELi0ELin1ELi1EEELin1ELi1ELb0EEEEC2ERKS6_, symObjAddr: 0x2C58, symBinAddr: 0x1000066A8, symSize: 0x34 }
  - { offsetInCU: 0x1FABE, offset: 0x1FABE, size: 0x8, addend: 0x0, symName: __ZN5Eigen8internal15block_evaluatorIKNS_5ArrayIiLin1ELi1ELi0ELin1ELi1EEELin1ELi1ELb0ELb1EEC2ERKNS_5BlockIS4_Lin1ELi1ELb0EEE, symObjAddr: 0x2C8C, symBinAddr: 0x1000066DC, symSize: 0xDC }
  - { offsetInCU: 0x1FAF7, offset: 0x1FAF7, size: 0x8, addend: 0x0, symName: __ZN5Eigen8internal17mapbase_evaluatorINS_5BlockIKNS_5ArrayIiLin1ELi1ELi0ELin1ELi1EEELin1ELi1ELb0EEES4_EC2ERKS6_, symObjAddr: 0x2D68, symBinAddr: 0x1000067B8, symSize: 0xB0 }
  - { offsetInCU: 0x1FB30, offset: 0x1FB30, size: 0x8, addend: 0x0, symName: __ZNK5Eigen7MapBaseINS_5BlockIKNS_5ArrayIiLin1ELi1ELi0ELin1ELi1EEELin1ELi1ELb0EEELi0EE4dataEv, symObjAddr: 0x2E18, symBinAddr: 0x100006868, symSize: 0x18 }
  - { offsetInCU: 0x1FB56, offset: 0x1FB56, size: 0x8, addend: 0x0, symName: __ZN5Eigen8internal17mapbase_evaluatorINS_5BlockIKNS_5ArrayIiLin1ELi1ELi0ELin1ELi1EEELin1ELi1ELb0EEES4_ED2Ev, symObjAddr: 0x2E30, symBinAddr: 0x100006880, symSize: 0x2C }
  - { offsetInCU: 0x1FB83, offset: 0x1FB83, size: 0x8, addend: 0x0, symName: __ZN5Eigen8internal14evaluator_baseINS_5BlockIKNS_5ArrayIiLin1ELi1ELi0ELin1ELi1EEELin1ELi1ELb0EEEEC2Ev, symObjAddr: 0x2E5C, symBinAddr: 0x1000068AC, symSize: 0x14 }
  - { offsetInCU: 0x1FBAD, offset: 0x1FBAD, size: 0x8, addend: 0x0, symName: __ZNK5Eigen8internal15BlockImpl_denseIKNS_5ArrayIiLin1ELi1ELi0ELin1ELi1EEELin1ELi1ELb0ELb1EE11innerStrideEv, symObjAddr: 0x2E70, symBinAddr: 0x1000068C0, symSize: 0x28 }
  - { offsetInCU: 0x1FBD3, offset: 0x1FBD3, size: 0x8, addend: 0x0, symName: __ZNK5Eigen8internal15BlockImpl_denseIKNS_5ArrayIiLin1ELi1ELi0ELin1ELi1EEELin1ELi1ELb0ELb1EE11outerStrideEv, symObjAddr: 0x2E98, symBinAddr: 0x1000068E8, symSize: 0x28 }
  - { offsetInCU: 0x1FBF9, offset: 0x1FBF9, size: 0x8, addend: 0x0, symName: __ZN5Eigen8internal14evaluator_baseINS_5BlockIKNS_5ArrayIiLin1ELi1ELi0ELin1ELi1EEELin1ELi1ELb0EEEED2Ev, symObjAddr: 0x2EC0, symBinAddr: 0x100006910, symSize: 0x14 }
  - { offsetInCU: 0x1FC23, offset: 0x1FC23, size: 0x8, addend: 0x0, symName: __ZNK5Eigen8internal17mapbase_evaluatorINS_5BlockIKNS_5ArrayIiLin1ELi1ELi0ELin1ELi1EEELin1ELi1ELb0EEES4_E6packetILi0E17__simd128_int32_tEET0_l, symObjAddr: 0x2EF8, symBinAddr: 0x100006948, symSize: 0x54 }
  - { offsetInCU: 0x1FC89, offset: 0x1FC89, size: 0x8, addend: 0x0, symName: __ZNK5Eigen8internal17mapbase_evaluatorINS_5BlockIKNS_5ArrayIiLin1ELi1ELi0ELin1ELi1EEELin1ELi1ELb0EEES4_E5coeffEl, symObjAddr: 0x2F4C, symBinAddr: 0x10000699C, symSize: 0x48 }
  - { offsetInCU: 0x1FCBE, offset: 0x1FCBE, size: 0x8, addend: 0x0, symName: __ZN5Eigen8internal18first_aligned_implILi16ENS_5BlockIKNS_5ArrayIiLin1ELi1ELi0ELin1ELi1EEELin1ELi1ELb0EEELb0EE3runERKS6_, symObjAddr: 0x2FBC, symBinAddr: 0x100006A0C, symSize: 0x3C }
  - { offsetInCU: 0x1FCE2, offset: 0x1FCE2, size: 0x8, addend: 0x0, symName: __ZN5Eigen8internal15redux_evaluatorINS_5BlockIKNS_5ArrayIiLin1ELi1ELi0ELin1ELi1EEELin1ELi1ELb0EEEED2Ev, symObjAddr: 0x30C4, symBinAddr: 0x100006B14, symSize: 0x2C }
  - { offsetInCU: 0x1FD0F, offset: 0x1FD0F, size: 0x8, addend: 0x0, symName: __ZN5Eigen8internal9evaluatorINS_5BlockIKNS_5ArrayIiLin1ELi1ELi0ELin1ELi1EEELin1ELi1ELb0EEEED2Ev, symObjAddr: 0x30F0, symBinAddr: 0x100006B40, symSize: 0x2C }
  - { offsetInCU: 0x1FD3C, offset: 0x1FD3C, size: 0x8, addend: 0x0, symName: __ZN5Eigen8internal15block_evaluatorIKNS_5ArrayIiLin1ELi1ELi0ELin1ELi1EEELin1ELi1ELb0ELb1EED2Ev, symObjAddr: 0x311C, symBinAddr: 0x100006B6C, symSize: 0x2C }
  - { offsetInCU: 0x1FD69, offset: 0x1FD69, size: 0x8, addend: 0x0, symName: __ZNK5Eigen15DenseCoeffsBaseINS_5ArrayIiLin1ELi1ELi0ELin1ELi1EEELi0EE5coeffEl, symObjAddr: 0x3148, symBinAddr: 0x100006B98, symSize: 0x58 }
  - { offsetInCU: 0x1FD9D, offset: 0x1FD9D, size: 0x8, addend: 0x0, symName: __ZN5Eigen8internal9evaluatorINS_5ArrayIiLin1ELi1ELi0ELin1ELi1EEEEC1ERKS3_, symObjAddr: 0x31A0, symBinAddr: 0x100006BF0, symSize: 0x34 }
  - { offsetInCU: 0x1FDD6, offset: 0x1FDD6, size: 0x8, addend: 0x0, symName: __ZN5Eigen8internal9evaluatorINS_5ArrayIiLin1ELi1ELi0ELin1ELi1EEEED1Ev, symObjAddr: 0x31D4, symBinAddr: 0x100006C24, symSize: 0x2C }
  - { offsetInCU: 0x1FE03, offset: 0x1FE03, size: 0x8, addend: 0x0, symName: __ZN5Eigen9DenseBaseINS_5ArrayIiLin1ELin1ELi0ELin1ELin1EEEE11NullaryExprINS_8internal16scalar_random_opIiEEEEKNS_14CwiseNullaryOpIT_S2_EEllRKS9_, symObjAddr: 0x3200, symBinAddr: 0x100006C50, symSize: 0x48 }
  - { offsetInCU: 0x1FE50, offset: 0x1FE50, size: 0x8, addend: 0x0, symName: __ZN5Eigen8internal16scalar_random_opIiEC1Ev, symObjAddr: 0x3248, symBinAddr: 0x100006C98, symSize: 0x2C }
  - { offsetInCU: 0x1FE7A, offset: 0x1FE7A, size: 0x8, addend: 0x0, symName: __ZN5Eigen14CwiseNullaryOpINS_8internal16scalar_random_opIiEENS_5ArrayIiLin1ELin1ELi0ELin1ELin1EEEEC1EllRKS3_, symObjAddr: 0x3274, symBinAddr: 0x100006CC4, symSize: 0x44 }
  - { offsetInCU: 0x1FECE, offset: 0x1FECE, size: 0x8, addend: 0x0, symName: __ZN5Eigen14CwiseNullaryOpINS_8internal16scalar_random_opIiEENS_5ArrayIiLin1ELin1ELi0ELin1ELin1EEEEC2EllRKS3_, symObjAddr: 0x32B8, symBinAddr: 0x100006D08, symSize: 0xDC }
  - { offsetInCU: 0x1FF22, offset: 0x1FF22, size: 0x8, addend: 0x0, symName: __ZN5Eigen9ArrayBaseINS_14CwiseNullaryOpINS_8internal16scalar_random_opIiEENS_5ArrayIiLin1ELin1ELi0ELin1ELin1EEEEEEC2Ev, symObjAddr: 0x3394, symBinAddr: 0x100006DE4, symSize: 0x2C }
  - { offsetInCU: 0x1FF4C, offset: 0x1FF4C, size: 0x8, addend: 0x0, symName: __ZN5Eigen8internal16scalar_random_opIiEC1ERKS2_, symObjAddr: 0x33C0, symBinAddr: 0x100006E10, symSize: 0x34 }
  - { offsetInCU: 0x1FF81, offset: 0x1FF81, size: 0x8, addend: 0x0, symName: __ZN5Eigen9DenseBaseINS_14CwiseNullaryOpINS_8internal16scalar_random_opIiEENS_5ArrayIiLin1ELin1ELi0ELin1ELin1EEEEEEC2Ev, symObjAddr: 0x33F4, symBinAddr: 0x100006E44, symSize: 0x14 }
  - { offsetInCU: 0x1FFAB, offset: 0x1FFAB, size: 0x8, addend: 0x0, symName: __ZN5Eigen8internal16scalar_random_opIiEC2ERKS2_, symObjAddr: 0x3408, symBinAddr: 0x100006E58, symSize: 0x18 }
  - { offsetInCU: 0x1FFE0, offset: 0x1FFE0, size: 0x8, addend: 0x0, symName: __ZN5Eigen8internal16scalar_random_opIiEC2Ev, symObjAddr: 0x3420, symBinAddr: 0x100006E70, symSize: 0x14 }
  - { offsetInCU: 0x2000A, offset: 0x2000A, size: 0x8, addend: 0x0, symName: __ZNK5Eigen9EigenBaseINS_14CwiseNullaryOpINS_8internal16scalar_random_opIiEENS_5ArrayIiLin1ELin1ELi0ELin1ELin1EEEEEE7derivedEv, symObjAddr: 0x3434, symBinAddr: 0x100006E84, symSize: 0x14 }
  - { offsetInCU: 0x20030, offset: 0x20030, size: 0x8, addend: 0x0, symName: '__ZN5Eigen12CwiseUnaryOpIZ4mainE3$_0KNS_14CwiseNullaryOpINS_8internal16scalar_random_opIiEENS_5ArrayIiLin1ELin1ELi0ELin1ELin1EEEEEEC1ERS9_RKS1_', symObjAddr: 0x3448, symBinAddr: 0x100006E98, symSize: 0x3C }
  - { offsetInCU: 0x20076, offset: 0x20076, size: 0x8, addend: 0x0, symName: '__ZN5Eigen12CwiseUnaryOpIZ4mainE3$_0KNS_14CwiseNullaryOpINS_8internal16scalar_random_opIiEENS_5ArrayIiLin1ELin1ELi0ELin1ELin1EEEEEEC2ERS9_RKS1_', symObjAddr: 0x3484, symBinAddr: 0x100006ED4, symSize: 0x44 }
  - { offsetInCU: 0x200C1, offset: 0x200C1, size: 0x8, addend: 0x0, symName: '__ZN5Eigen16CwiseUnaryOpImplIZ4mainE3$_0KNS_14CwiseNullaryOpINS_8internal16scalar_random_opIiEENS_5ArrayIiLin1ELin1ELi0ELin1ELin1EEEEENS_5DenseEEC2Ev', symObjAddr: 0x34C8, symBinAddr: 0x100006F18, symSize: 0x2C }
  - { offsetInCU: 0x200ED, offset: 0x200ED, size: 0x8, addend: 0x0, symName: __ZN5Eigen14CwiseNullaryOpINS_8internal16scalar_random_opIiEENS_5ArrayIiLin1ELin1ELi0ELin1ELin1EEEEC1ERKS6_, symObjAddr: 0x34F4, symBinAddr: 0x100006F44, symSize: 0x34 }
  - { offsetInCU: 0x20122, offset: 0x20122, size: 0x8, addend: 0x0, symName: '__ZN5Eigen9ArrayBaseINS_12CwiseUnaryOpIZ4mainE3$_0KNS_14CwiseNullaryOpINS_8internal16scalar_random_opIiEENS_5ArrayIiLin1ELin1ELi0ELin1ELin1EEEEEEEEC2Ev', symObjAddr: 0x3528, symBinAddr: 0x100006F78, symSize: 0x2C }
  - { offsetInCU: 0x2014C, offset: 0x2014C, size: 0x8, addend: 0x0, symName: '__ZN5Eigen9DenseBaseINS_12CwiseUnaryOpIZ4mainE3$_0KNS_14CwiseNullaryOpINS_8internal16scalar_random_opIiEENS_5ArrayIiLin1ELin1ELi0ELin1ELin1EEEEEEEEC2Ev', symObjAddr: 0x3554, symBinAddr: 0x100006FA4, symSize: 0x14 }
  - { offsetInCU: 0x20176, offset: 0x20176, size: 0x8, addend: 0x0, symName: __ZN5Eigen14CwiseNullaryOpINS_8internal16scalar_random_opIiEENS_5ArrayIiLin1ELin1ELi0ELin1ELin1EEEEC2ERKS6_, symObjAddr: 0x3568, symBinAddr: 0x100006FB8, symSize: 0x48 }
  - { offsetInCU: 0x201AB, offset: 0x201AB, size: 0x8, addend: 0x0, symName: '__ZN5Eigen5ArrayIiLin1ELin1ELi0ELin1ELin1EEC2INS_12CwiseUnaryOpIZ4mainE3$_0KNS_14CwiseNullaryOpINS_8internal16scalar_random_opIiEES1_EEEEEERKNS_9EigenBaseIT_EENS6_9enable_ifIXsr8internal14is_convertibleINSD_6ScalarEiEE5valueENS1_11PrivateTypeEE4typeE', symObjAddr: 0x35B0, symBinAddr: 0x100007000, symSize: 0x40 }
  - { offsetInCU: 0x201F8, offset: 0x201F8, size: 0x8, addend: 0x0, symName: '__ZNK5Eigen9EigenBaseINS_12CwiseUnaryOpIZ4mainE3$_0KNS_14CwiseNullaryOpINS_8internal16scalar_random_opIiEENS_5ArrayIiLin1ELin1ELi0ELin1ELin1EEEEEEEE7derivedEv', symObjAddr: 0x35F0, symBinAddr: 0x100007040, symSize: 0x14 }
  - { offsetInCU: 0x2021E, offset: 0x2021E, size: 0x8, addend: 0x0, symName: '__ZN5Eigen15PlainObjectBaseINS_5ArrayIiLin1ELin1ELi0ELin1ELin1EEEEC2INS_12CwiseUnaryOpIZ4mainE3$_0KNS_14CwiseNullaryOpINS_8internal16scalar_random_opIiEES2_EEEEEERKNS_9DenseBaseIT_EE', symObjAddr: 0x3604, symBinAddr: 0x100007054, symSize: 0x84 }
  - { offsetInCU: 0x20260, offset: 0x20260, size: 0x8, addend: 0x0, symName: __ZN5Eigen9ArrayBaseINS_5ArrayIiLin1ELin1ELi0ELin1ELin1EEEEC2Ev, symObjAddr: 0x3688, symBinAddr: 0x1000070D8, symSize: 0x2C }
  - { offsetInCU: 0x2028A, offset: 0x2028A, size: 0x8, addend: 0x0, symName: __ZN5Eigen12DenseStorageIiLin1ELin1ELin1ELi0EEC1Ev, symObjAddr: 0x36B4, symBinAddr: 0x100007104, symSize: 0x2C }
  - { offsetInCU: 0x202B4, offset: 0x202B4, size: 0x8, addend: 0x0, symName: __ZN5Eigen15PlainObjectBaseINS_5ArrayIiLin1ELin1ELi0ELin1ELin1EEEE22_check_template_paramsEv, symObjAddr: 0x36E0, symBinAddr: 0x100007130, symSize: 0x4 }
  - { offsetInCU: 0x20309, offset: 0x20309, size: 0x8, addend: 0x0, symName: '__ZN5Eigen15PlainObjectBaseINS_5ArrayIiLin1ELin1ELi0ELin1ELin1EEEE10resizeLikeINS_12CwiseUnaryOpIZ4mainE3$_0KNS_14CwiseNullaryOpINS_8internal16scalar_random_opIiEES2_EEEEEEvRKNS_9EigenBaseIT_EE', symObjAddr: 0x36E4, symBinAddr: 0x100007134, symSize: 0x11C }
  - { offsetInCU: 0x2039D, offset: 0x2039D, size: 0x8, addend: 0x0, symName: '__ZN5Eigen15PlainObjectBaseINS_5ArrayIiLin1ELin1ELi0ELin1ELin1EEEE12_set_noaliasINS_12CwiseUnaryOpIZ4mainE3$_0KNS_14CwiseNullaryOpINS_8internal16scalar_random_opIiEES2_EEEEEERS2_RKNS_9DenseBaseIT_EE', symObjAddr: 0x3800, symBinAddr: 0x100007250, symSize: 0x60 }
  - { offsetInCU: 0x203DB, offset: 0x203DB, size: 0x8, addend: 0x0, symName: __ZN5Eigen9DenseBaseINS_5ArrayIiLin1ELin1ELi0ELin1ELin1EEEEC2Ev, symObjAddr: 0x3860, symBinAddr: 0x1000072B0, symSize: 0x14 }
  - { offsetInCU: 0x20405, offset: 0x20405, size: 0x8, addend: 0x0, symName: __ZN5Eigen12DenseStorageIiLin1ELin1ELin1ELi0EEC2Ev, symObjAddr: 0x3874, symBinAddr: 0x1000072C4, symSize: 0x20 }
  - { offsetInCU: 0x2042F, offset: 0x2042F, size: 0x8, addend: 0x0, symName: '__ZNK5Eigen12CwiseUnaryOpIZ4mainE3$_0KNS_14CwiseNullaryOpINS_8internal16scalar_random_opIiEENS_5ArrayIiLin1ELin1ELi0ELin1ELin1EEEEEE4rowsEv', symObjAddr: 0x3894, symBinAddr: 0x1000072E4, symSize: 0x38 }
  - { offsetInCU: 0x20455, offset: 0x20455, size: 0x8, addend: 0x0, symName: '__ZNK5Eigen12CwiseUnaryOpIZ4mainE3$_0KNS_14CwiseNullaryOpINS_8internal16scalar_random_opIiEENS_5ArrayIiLin1ELin1ELi0ELin1ELin1EEEEEE4colsEv', symObjAddr: 0x38CC, symBinAddr: 0x10000731C, symSize: 0x38 }
  - { offsetInCU: 0x2047B, offset: 0x2047B, size: 0x8, addend: 0x0, symName: __ZN5Eigen15PlainObjectBaseINS_5ArrayIiLin1ELin1ELi0ELin1ELin1EEEE6resizeEll, symObjAddr: 0x3904, symBinAddr: 0x100007354, symSize: 0x14C }
  - { offsetInCU: 0x204F7, offset: 0x204F7, size: 0x8, addend: 0x0, symName: __ZNK5Eigen14CwiseNullaryOpINS_8internal16scalar_random_opIiEENS_5ArrayIiLin1ELin1ELi0ELin1ELin1EEEE4rowsEv, symObjAddr: 0x3A84, symBinAddr: 0x1000074D4, symSize: 0x24 }
  - { offsetInCU: 0x2051D, offset: 0x2051D, size: 0x8, addend: 0x0, symName: __ZNK5Eigen14CwiseNullaryOpINS_8internal16scalar_random_opIiEENS_5ArrayIiLin1ELin1ELi0ELin1ELin1EEEE4colsEv, symObjAddr: 0x3AA8, symBinAddr: 0x1000074F8, symSize: 0x28 }
  - { offsetInCU: 0x20543, offset: 0x20543, size: 0x8, addend: 0x0, symName: __ZN5Eigen12DenseStorageIiLin1ELin1ELin1ELi0EE6resizeElll, symObjAddr: 0x3AD0, symBinAddr: 0x100007520, symSize: 0xB4 }
  - { offsetInCU: 0x20596, offset: 0x20596, size: 0x8, addend: 0x0, symName: __ZN5Eigen9EigenBaseINS_5ArrayIiLin1ELin1ELi0ELin1ELin1EEEE7derivedEv, symObjAddr: 0x3D48, symBinAddr: 0x100007798, symSize: 0x14 }
  - { offsetInCU: 0x205D0, offset: 0x205D0, size: 0x8, addend: 0x0, symName: __ZN5Eigen8internal9assign_opIiiEC1Ev, symObjAddr: 0x3D5C, symBinAddr: 0x1000077AC, symSize: 0x2C }
  - { offsetInCU: 0x205FA, offset: 0x205FA, size: 0x8, addend: 0x0, symName: '__ZN5Eigen8internal10AssignmentINS_5ArrayIiLin1ELin1ELi0ELin1ELin1EEENS_12CwiseUnaryOpIZ4mainE3$_0KNS_14CwiseNullaryOpINS0_16scalar_random_opIiEES3_EEEENS0_9assign_opIiiEENS0_11Dense2DenseEvE3runERS3_RKSB_RKSD_', symObjAddr: 0x3D88, symBinAddr: 0x1000077D8, symSize: 0x40 }
  - { offsetInCU: 0x2063C, offset: 0x2063C, size: 0x8, addend: 0x0, symName: __ZNK5Eigen15PlainObjectBaseINS_5ArrayIiLin1ELin1ELi0ELin1ELin1EEEE4colsEv, symObjAddr: 0x3F08, symBinAddr: 0x100007958, symSize: 0x24 }
  - { offsetInCU: 0x20662, offset: 0x20662, size: 0x8, addend: 0x0, symName: '__ZN5Eigen8internal27checkTransposeAliasing_implINS_5ArrayIiLin1ELin1ELi0ELin1ELin1EEENS_12CwiseUnaryOpIZ4mainE3$_0KNS_14CwiseNullaryOpINS0_16scalar_random_opIiEES3_EEEELb0EE3runERKS3_RKSB_', symObjAddr: 0x3F2C, symBinAddr: 0x10000797C, symSize: 0x14 }
  - { offsetInCU: 0x2068D, offset: 0x2068D, size: 0x8, addend: 0x0, symName: __ZNK5Eigen12DenseStorageIiLin1ELin1ELin1ELi0EE4colsEv, symObjAddr: 0x3F40, symBinAddr: 0x100007990, symSize: 0x18 }
  - { offsetInCU: 0x20717, offset: 0x20717, size: 0x8, addend: 0x0, symName: '__ZN5Eigen8internal9evaluatorINS_12CwiseUnaryOpIZ4mainE3$_0KNS_14CwiseNullaryOpINS0_16scalar_random_opIiEENS_5ArrayIiLin1ELin1ELi0ELin1ELin1EEEEEEEEC1ERKSB_', symObjAddr: 0x3F58, symBinAddr: 0x1000079A8, symSize: 0x34 }
  - { offsetInCU: 0x2075E, offset: 0x2075E, size: 0x8, addend: 0x0, symName: __ZN5Eigen8internal9evaluatorINS_5ArrayIiLin1ELin1ELi0ELin1ELin1EEEEC1ERKS3_, symObjAddr: 0x4084, symBinAddr: 0x100007AD4, symSize: 0x34 }
  - { offsetInCU: 0x20797, offset: 0x20797, size: 0x8, addend: 0x0, symName: __ZNK5Eigen9EigenBaseINS_5ArrayIiLin1ELin1ELi0ELin1ELin1EEEE18const_cast_derivedEv, symObjAddr: 0x40B8, symBinAddr: 0x100007B08, symSize: 0x14 }
  - { offsetInCU: 0x207EA, offset: 0x207EA, size: 0x8, addend: 0x0, symName: '__ZN5Eigen8internal31generic_dense_assignment_kernelINS0_9evaluatorINS_5ArrayIiLin1ELin1ELi0ELin1ELin1EEEEENS2_INS_12CwiseUnaryOpIZ4mainE3$_0KNS_14CwiseNullaryOpINS0_16scalar_random_opIiEES4_EEEEEENS0_9assign_opIiiEELi0EEC1ERS5_RKSE_RKSG_RS4_', symObjAddr: 0x40CC, symBinAddr: 0x100007B1C, symSize: 0x4C }
  - { offsetInCU: 0x20855, offset: 0x20855, size: 0x8, addend: 0x0, symName: '__ZN5Eigen8internal21dense_assignment_loopINS0_31generic_dense_assignment_kernelINS0_9evaluatorINS_5ArrayIiLin1ELin1ELi0ELin1ELin1EEEEENS3_INS_12CwiseUnaryOpIZ4mainE3$_0KNS_14CwiseNullaryOpINS0_16scalar_random_opIiEES5_EEEEEENS0_9assign_opIiiEELi0EEELi1ELi0EE3runERSI_', symObjAddr: 0x4118, symBinAddr: 0x100007B68, symSize: 0x68 }
  - { offsetInCU: 0x208A5, offset: 0x208A5, size: 0x8, addend: 0x0, symName: __ZN5Eigen8internal9evaluatorINS_5ArrayIiLin1ELin1ELi0ELin1ELin1EEEED1Ev, symObjAddr: 0x4180, symBinAddr: 0x100007BD0, symSize: 0x2C }
  - { offsetInCU: 0x208D2, offset: 0x208D2, size: 0x8, addend: 0x0, symName: '__ZN5Eigen8internal9evaluatorINS_12CwiseUnaryOpIZ4mainE3$_0KNS_14CwiseNullaryOpINS0_16scalar_random_opIiEENS_5ArrayIiLin1ELin1ELi0ELin1ELin1EEEEEEEED1Ev', symObjAddr: 0x41AC, symBinAddr: 0x100007BFC, symSize: 0x2C }
  - { offsetInCU: 0x208FE, offset: 0x208FE, size: 0x8, addend: 0x0, symName: '__ZN5Eigen8internal9evaluatorINS_12CwiseUnaryOpIZ4mainE3$_0KNS_14CwiseNullaryOpINS0_16scalar_random_opIiEENS_5ArrayIiLin1ELin1ELi0ELin1ELin1EEEEEEEEC2ERKSB_', symObjAddr: 0x41D8, symBinAddr: 0x100007C28, symSize: 0x34 }
  - { offsetInCU: 0x20936, offset: 0x20936, size: 0x8, addend: 0x0, symName: '__ZN5Eigen8internal15unary_evaluatorINS_12CwiseUnaryOpIZ4mainE3$_0KNS_14CwiseNullaryOpINS0_16scalar_random_opIiEENS_5ArrayIiLin1ELin1ELi0ELin1ELin1EEEEEEENS0_10IndexBasedEiEC2ERKSB_', symObjAddr: 0x420C, symBinAddr: 0x100007C5C, symSize: 0x64 }
  - { offsetInCU: 0x2096F, offset: 0x2096F, size: 0x8, addend: 0x0, symName: '__ZN5Eigen8internal14evaluator_baseINS_12CwiseUnaryOpIZ4mainE3$_0KNS_14CwiseNullaryOpINS0_16scalar_random_opIiEENS_5ArrayIiLin1ELin1ELi0ELin1ELin1EEEEEEEEC2Ev', symObjAddr: 0x4270, symBinAddr: 0x100007CC0, symSize: 0x14 }
  - { offsetInCU: 0x20999, offset: 0x20999, size: 0x8, addend: 0x0, symName: '__ZN5Eigen8internal15unary_evaluatorINS_12CwiseUnaryOpIZ4mainE3$_0KNS_14CwiseNullaryOpINS0_16scalar_random_opIiEENS_5ArrayIiLin1ELin1ELi0ELin1ELin1EEEEEEENS0_10IndexBasedEiE4DataC1ERKSB_', symObjAddr: 0x4284, symBinAddr: 0x100007CD4, symSize: 0x34 }
  - { offsetInCU: 0x209D2, offset: 0x209D2, size: 0x8, addend: 0x0, symName: '__ZN5Eigen8internal14evaluator_baseINS_12CwiseUnaryOpIZ4mainE3$_0KNS_14CwiseNullaryOpINS0_16scalar_random_opIiEENS_5ArrayIiLin1ELin1ELi0ELin1ELin1EEEEEEEED2Ev', symObjAddr: 0x42B8, symBinAddr: 0x100007D08, symSize: 0x14 }
  - { offsetInCU: 0x209FC, offset: 0x209FC, size: 0x8, addend: 0x0, symName: '__ZN5Eigen8internal15unary_evaluatorINS_12CwiseUnaryOpIZ4mainE3$_0KNS_14CwiseNullaryOpINS0_16scalar_random_opIiEENS_5ArrayIiLin1ELin1ELi0ELin1ELin1EEEEEEENS0_10IndexBasedEiE4DataC2ERKSB_', symObjAddr: 0x42CC, symBinAddr: 0x100007D1C, symSize: 0x4C }
  - { offsetInCU: 0x20A35, offset: 0x20A35, size: 0x8, addend: 0x0, symName: '__ZNK5Eigen12CwiseUnaryOpIZ4mainE3$_0KNS_14CwiseNullaryOpINS_8internal16scalar_random_opIiEENS_5ArrayIiLin1ELin1ELi0ELin1ELin1EEEEEE7functorEv', symObjAddr: 0x4318, symBinAddr: 0x100007D68, symSize: 0x18 }
  - { offsetInCU: 0x20A5B, offset: 0x20A5B, size: 0x8, addend: 0x0, symName: '__ZNK5Eigen12CwiseUnaryOpIZ4mainE3$_0KNS_14CwiseNullaryOpINS_8internal16scalar_random_opIiEENS_5ArrayIiLin1ELin1ELi0ELin1ELin1EEEEEE16nestedExpressionEv', symObjAddr: 0x4330, symBinAddr: 0x100007D80, symSize: 0x18 }
  - { offsetInCU: 0x20A81, offset: 0x20A81, size: 0x8, addend: 0x0, symName: __ZN5Eigen8internal9evaluatorIKNS_14CwiseNullaryOpINS0_16scalar_random_opIiEENS_5ArrayIiLin1ELin1ELi0ELin1ELin1EEEEEEC1ERS8_, symObjAddr: 0x4348, symBinAddr: 0x100007D98, symSize: 0x34 }
  - { offsetInCU: 0x20AB9, offset: 0x20AB9, size: 0x8, addend: 0x0, symName: __ZN5Eigen8internal9evaluatorIKNS_14CwiseNullaryOpINS0_16scalar_random_opIiEENS_5ArrayIiLin1ELin1ELi0ELin1ELin1EEEEEEC2ERS8_, symObjAddr: 0x437C, symBinAddr: 0x100007DCC, symSize: 0x34 }
  - { offsetInCU: 0x20AF1, offset: 0x20AF1, size: 0x8, addend: 0x0, symName: __ZN5Eigen8internal9evaluatorINS_14CwiseNullaryOpINS0_16scalar_random_opIiEENS_5ArrayIiLin1ELin1ELi0ELin1ELin1EEEEEEC2ERKS7_, symObjAddr: 0x43B0, symBinAddr: 0x100007E00, symSize: 0x74 }
  - { offsetInCU: 0x20B2A, offset: 0x20B2A, size: 0x8, addend: 0x0, symName: __ZN5Eigen8internal14evaluator_baseINS_14CwiseNullaryOpINS0_16scalar_random_opIiEENS_5ArrayIiLin1ELin1ELi0ELin1ELin1EEEEEEC2Ev, symObjAddr: 0x4424, symBinAddr: 0x100007E74, symSize: 0x14 }
  - { offsetInCU: 0x20B54, offset: 0x20B54, size: 0x8, addend: 0x0, symName: __ZNK5Eigen14CwiseNullaryOpINS_8internal16scalar_random_opIiEENS_5ArrayIiLin1ELin1ELi0ELin1ELin1EEEE7functorEv, symObjAddr: 0x4438, symBinAddr: 0x100007E88, symSize: 0x18 }
  - { offsetInCU: 0x20B7A, offset: 0x20B7A, size: 0x8, addend: 0x0, symName: __ZN5Eigen8internal14evaluator_baseINS_14CwiseNullaryOpINS0_16scalar_random_opIiEENS_5ArrayIiLin1ELin1ELi0ELin1ELin1EEEEEED2Ev, symObjAddr: 0x4450, symBinAddr: 0x100007EA0, symSize: 0x14 }
  - { offsetInCU: 0x20BA4, offset: 0x20BA4, size: 0x8, addend: 0x0, symName: __ZN5Eigen8internal9evaluatorINS_5ArrayIiLin1ELin1ELi0ELin1ELin1EEEEC2ERKS3_, symObjAddr: 0x4464, symBinAddr: 0x100007EB4, symSize: 0x34 }
  - { offsetInCU: 0x20BDD, offset: 0x20BDD, size: 0x8, addend: 0x0, symName: __ZN5Eigen8internal9evaluatorINS_15PlainObjectBaseINS_5ArrayIiLin1ELin1ELi0ELin1ELin1EEEEEEC2ERKS5_, symObjAddr: 0x4498, symBinAddr: 0x100007EE8, symSize: 0x80 }
  - { offsetInCU: 0x20C15, offset: 0x20C15, size: 0x8, addend: 0x0, symName: __ZN5Eigen8internal14evaluator_baseINS_5ArrayIiLin1ELin1ELi0ELin1ELin1EEEEC2Ev, symObjAddr: 0x4518, symBinAddr: 0x100007F68, symSize: 0x14 }
  - { offsetInCU: 0x20C3F, offset: 0x20C3F, size: 0x8, addend: 0x0, symName: __ZNK5Eigen15PlainObjectBaseINS_5ArrayIiLin1ELin1ELi0ELin1ELin1EEEE4dataEv, symObjAddr: 0x452C, symBinAddr: 0x100007F7C, symSize: 0x24 }
  - { offsetInCU: 0x20C65, offset: 0x20C65, size: 0x8, addend: 0x0, symName: __ZNK5Eigen15DenseCoeffsBaseINS_5ArrayIiLin1ELin1ELi0ELin1ELin1EEELi3EE11outerStrideEv, symObjAddr: 0x4550, symBinAddr: 0x100007FA0, symSize: 0x38 }
  - { offsetInCU: 0x20C8B, offset: 0x20C8B, size: 0x8, addend: 0x0, symName: __ZN5Eigen8internal30plainobjectbase_evaluator_dataIiLin1EEC1EPKil, symObjAddr: 0x4588, symBinAddr: 0x100007FD8, symSize: 0x3C }
  - { offsetInCU: 0x20CD1, offset: 0x20CD1, size: 0x8, addend: 0x0, symName: __ZN5Eigen8internal14evaluator_baseINS_5ArrayIiLin1ELin1ELi0ELin1ELin1EEEED2Ev, symObjAddr: 0x45C4, symBinAddr: 0x100008014, symSize: 0x14 }
  - { offsetInCU: 0x20CFB, offset: 0x20CFB, size: 0x8, addend: 0x0, symName: __ZNK5Eigen12DenseStorageIiLin1ELin1ELin1ELi0EE4dataEv, symObjAddr: 0x45D8, symBinAddr: 0x100008028, symSize: 0x18 }
  - { offsetInCU: 0x20D21, offset: 0x20D21, size: 0x8, addend: 0x0, symName: __ZNK5Eigen9EigenBaseINS_5ArrayIiLin1ELin1ELi0ELin1ELin1EEEE7derivedEv, symObjAddr: 0x45F0, symBinAddr: 0x100008040, symSize: 0x14 }
  - { offsetInCU: 0x20D47, offset: 0x20D47, size: 0x8, addend: 0x0, symName: __ZNK5Eigen5ArrayIiLin1ELin1ELi0ELin1ELin1EE11outerStrideEv, symObjAddr: 0x4604, symBinAddr: 0x100008054, symSize: 0x34 }
  - { offsetInCU: 0x20D6D, offset: 0x20D6D, size: 0x8, addend: 0x0, symName: __ZNK5Eigen9DenseBaseINS_5ArrayIiLin1ELin1ELi0ELin1ELin1EEEE9innerSizeEv, symObjAddr: 0x4638, symBinAddr: 0x100008088, symSize: 0x24 }
  - { offsetInCU: 0x20D93, offset: 0x20D93, size: 0x8, addend: 0x0, symName: __ZNK5Eigen9EigenBaseINS_5ArrayIiLin1ELin1ELi0ELin1ELin1EEEE4rowsEv, symObjAddr: 0x465C, symBinAddr: 0x1000080AC, symSize: 0x28 }
  - { offsetInCU: 0x20DB9, offset: 0x20DB9, size: 0x8, addend: 0x0, symName: __ZN5Eigen8internal30plainobjectbase_evaluator_dataIiLin1EEC2EPKil, symObjAddr: 0x4684, symBinAddr: 0x1000080D4, symSize: 0x2C }
  - { offsetInCU: 0x20DFF, offset: 0x20DFF, size: 0x8, addend: 0x0, symName: '__ZN5Eigen8internal31generic_dense_assignment_kernelINS0_9evaluatorINS_5ArrayIiLin1ELin1ELi0ELin1ELin1EEEEENS2_INS_12CwiseUnaryOpIZ4mainE3$_0KNS_14CwiseNullaryOpINS0_16scalar_random_opIiEES4_EEEEEENS0_9assign_opIiiEELi0EEC2ERS5_RKSE_RKSG_RS4_', symObjAddr: 0x46B0, symBinAddr: 0x100008100, symSize: 0x44 }
  - { offsetInCU: 0x20E65, offset: 0x20E65, size: 0x8, addend: 0x0, symName: '__ZNK5Eigen8internal31generic_dense_assignment_kernelINS0_9evaluatorINS_5ArrayIiLin1ELin1ELi0ELin1ELin1EEEEENS2_INS_12CwiseUnaryOpIZ4mainE3$_0KNS_14CwiseNullaryOpINS0_16scalar_random_opIiEES4_EEEEEENS0_9assign_opIiiEELi0EE4sizeEv', symObjAddr: 0x46F4, symBinAddr: 0x100008144, symSize: 0x28 }
  - { offsetInCU: 0x20E8B, offset: 0x20E8B, size: 0x8, addend: 0x0, symName: '__ZN5Eigen8internal31generic_dense_assignment_kernelINS0_9evaluatorINS_5ArrayIiLin1ELin1ELi0ELin1ELin1EEEEENS2_INS_12CwiseUnaryOpIZ4mainE3$_0KNS_14CwiseNullaryOpINS0_16scalar_random_opIiEES4_EEEEEENS0_9assign_opIiiEELi0EE11assignCoeffEl', symObjAddr: 0x471C, symBinAddr: 0x10000816C, symSize: 0x68 }
  - { offsetInCU: 0x20EC0, offset: 0x20EC0, size: 0x8, addend: 0x0, symName: __ZNK5Eigen9EigenBaseINS_5ArrayIiLin1ELin1ELi0ELin1ELin1EEEE4sizeEv, symObjAddr: 0x4784, symBinAddr: 0x1000081D4, symSize: 0x44 }
  - { offsetInCU: 0x20EE6, offset: 0x20EE6, size: 0x8, addend: 0x0, symName: __ZNK5Eigen9EigenBaseINS_5ArrayIiLin1ELin1ELi0ELin1ELin1EEEE4colsEv, symObjAddr: 0x47C8, symBinAddr: 0x100008218, symSize: 0x28 }
  - { offsetInCU: 0x20F0C, offset: 0x20F0C, size: 0x8, addend: 0x0, symName: __ZNK5Eigen8internal9assign_opIiiE11assignCoeffERiRKi, symObjAddr: 0x47F0, symBinAddr: 0x100008240, symSize: 0x28 }
  - { offsetInCU: 0x20F4E, offset: 0x20F4E, size: 0x8, addend: 0x0, symName: __ZN5Eigen8internal9evaluatorINS_15PlainObjectBaseINS_5ArrayIiLin1ELin1ELi0ELin1ELin1EEEEEE8coeffRefEl, symObjAddr: 0x4818, symBinAddr: 0x100008268, symSize: 0x24 }
  - { offsetInCU: 0x20F82, offset: 0x20F82, size: 0x8, addend: 0x0, symName: '__ZNK5Eigen8internal15unary_evaluatorINS_12CwiseUnaryOpIZ4mainE3$_0KNS_14CwiseNullaryOpINS0_16scalar_random_opIiEENS_5ArrayIiLin1ELin1ELi0ELin1ELin1EEEEEEENS0_10IndexBasedEiE5coeffEl', symObjAddr: 0x483C, symBinAddr: 0x10000828C, symSize: 0x4C }
  - { offsetInCU: 0x20FB7, offset: 0x20FB7, size: 0x8, addend: 0x0, symName: '__ZNK5Eigen8internal15unary_evaluatorINS_12CwiseUnaryOpIZ4mainE3$_0KNS_14CwiseNullaryOpINS0_16scalar_random_opIiEENS_5ArrayIiLin1ELin1ELi0ELin1ELin1EEEEEEENS0_10IndexBasedEiE4Data4funcEv', symObjAddr: 0x4888, symBinAddr: 0x1000082D8, symSize: 0x14 }
  - { offsetInCU: 0x20FE2, offset: 0x20FE2, size: 0x8, addend: 0x0, symName: '__ZZ4mainENK3$_0clEi', symObjAddr: 0x489C, symBinAddr: 0x1000082EC, symSize: 0x2C }
  - { offsetInCU: 0x21024, offset: 0x21024, size: 0x8, addend: 0x0, symName: __ZNK5Eigen8internal9evaluatorINS_14CwiseNullaryOpINS0_16scalar_random_opIiEENS_5ArrayIiLin1ELin1ELi0ELin1ELin1EEEEEE5coeffIlEEiT_, symObjAddr: 0x48C8, symBinAddr: 0x100008318, symSize: 0x38 }
  - { offsetInCU: 0x21067, offset: 0x21067, size: 0x8, addend: 0x0, symName: __ZNK5Eigen8internal15nullary_wrapperIiNS0_16scalar_random_opIiEELb1ELb0ELb0EEclIlEEiRKS3_T_S8_, symObjAddr: 0x4900, symBinAddr: 0x100008350, symSize: 0x30 }
  - { offsetInCU: 0x210BB, offset: 0x210BB, size: 0x8, addend: 0x0, symName: __ZNK5Eigen8internal16scalar_random_opIiEclEv, symObjAddr: 0x4930, symBinAddr: 0x100008380, symSize: 0x20 }
  - { offsetInCU: 0x210E1, offset: 0x210E1, size: 0x8, addend: 0x0, symName: __ZN5Eigen8internal9evaluatorINS_5ArrayIiLin1ELin1ELi0ELin1ELin1EEEED2Ev, symObjAddr: 0x4984, symBinAddr: 0x1000083D4, symSize: 0x2C }
  - { offsetInCU: 0x2110E, offset: 0x2110E, size: 0x8, addend: 0x0, symName: __ZN5Eigen8internal9evaluatorINS_15PlainObjectBaseINS_5ArrayIiLin1ELin1ELi0ELin1ELin1EEEEEED2Ev, symObjAddr: 0x49B0, symBinAddr: 0x100008400, symSize: 0x2C }
  - { offsetInCU: 0x2113A, offset: 0x2113A, size: 0x8, addend: 0x0, symName: '__ZN5Eigen8internal9evaluatorINS_12CwiseUnaryOpIZ4mainE3$_0KNS_14CwiseNullaryOpINS0_16scalar_random_opIiEENS_5ArrayIiLin1ELin1ELi0ELin1ELin1EEEEEEEED2Ev', symObjAddr: 0x49DC, symBinAddr: 0x10000842C, symSize: 0x2C }
  - { offsetInCU: 0x21166, offset: 0x21166, size: 0x8, addend: 0x0, symName: '__ZN5Eigen8internal15unary_evaluatorINS_12CwiseUnaryOpIZ4mainE3$_0KNS_14CwiseNullaryOpINS0_16scalar_random_opIiEENS_5ArrayIiLin1ELin1ELi0ELin1ELin1EEEEEEENS0_10IndexBasedEiED2Ev', symObjAddr: 0x4A08, symBinAddr: 0x100008458, symSize: 0x34 }
  - { offsetInCU: 0x21192, offset: 0x21192, size: 0x8, addend: 0x0, symName: '__ZN5Eigen8internal15unary_evaluatorINS_12CwiseUnaryOpIZ4mainE3$_0KNS_14CwiseNullaryOpINS0_16scalar_random_opIiEENS_5ArrayIiLin1ELin1ELi0ELin1ELin1EEEEEEENS0_10IndexBasedEiE4DataD1Ev', symObjAddr: 0x4A3C, symBinAddr: 0x10000848C, symSize: 0x2C }
  - { offsetInCU: 0x211BF, offset: 0x211BF, size: 0x8, addend: 0x0, symName: '__ZN5Eigen8internal15unary_evaluatorINS_12CwiseUnaryOpIZ4mainE3$_0KNS_14CwiseNullaryOpINS0_16scalar_random_opIiEENS_5ArrayIiLin1ELin1ELi0ELin1ELin1EEEEEEENS0_10IndexBasedEiE4DataD2Ev', symObjAddr: 0x4A68, symBinAddr: 0x1000084B8, symSize: 0x30 }
  - { offsetInCU: 0x211EC, offset: 0x211EC, size: 0x8, addend: 0x0, symName: __ZN5Eigen8internal9evaluatorIKNS_14CwiseNullaryOpINS0_16scalar_random_opIiEENS_5ArrayIiLin1ELin1ELi0ELin1ELin1EEEEEED1Ev, symObjAddr: 0x4A98, symBinAddr: 0x1000084E8, symSize: 0x2C }
  - { offsetInCU: 0x21218, offset: 0x21218, size: 0x8, addend: 0x0, symName: __ZN5Eigen8internal9evaluatorIKNS_14CwiseNullaryOpINS0_16scalar_random_opIiEENS_5ArrayIiLin1ELin1ELi0ELin1ELin1EEEEEED2Ev, symObjAddr: 0x4AC4, symBinAddr: 0x100008514, symSize: 0x2C }
  - { offsetInCU: 0x21244, offset: 0x21244, size: 0x8, addend: 0x0, symName: __ZN5Eigen8internal9evaluatorINS_14CwiseNullaryOpINS0_16scalar_random_opIiEENS_5ArrayIiLin1ELin1ELi0ELin1ELin1EEEEEED2Ev, symObjAddr: 0x4AF0, symBinAddr: 0x100008540, symSize: 0x2C }
  - { offsetInCU: 0x21270, offset: 0x21270, size: 0x8, addend: 0x0, symName: __ZN5Eigen8internal9assign_opIiiEC2Ev, symObjAddr: 0x4B1C, symBinAddr: 0x10000856C, symSize: 0x14 }
  - { offsetInCU: 0x2129A, offset: 0x2129A, size: 0x8, addend: 0x0, symName: __ZNSt3__19basic_iosIcNS_11char_traitsIcEEEC2B8ue170006Ev, symObjAddr: 0x4B30, symBinAddr: 0x100008580, symSize: 0x44 }
  - { offsetInCU: 0x212C4, offset: 0x212C4, size: 0x8, addend: 0x0, symName: __ZNSt3__113basic_ostreamIcNS_11char_traitsIcEEEC2B8ue170006EPNS_15basic_streambufIcS2_EE, symObjAddr: 0x4B74, symBinAddr: 0x1000085C4, symSize: 0x60 }
  - { offsetInCU: 0x21309, offset: 0x21309, size: 0x8, addend: 0x0, symName: __ZNSt3__19basic_iosIcNS_11char_traitsIcEEE8setstateB8ue170006Ej, symObjAddr: 0x4BD4, symBinAddr: 0x100008624, symSize: 0x2C }
  - { offsetInCU: 0x2133E, offset: 0x2133E, size: 0x8, addend: 0x0, symName: __ZNSt3__18ios_baseC2B8ue170006Ev, symObjAddr: 0x4C00, symBinAddr: 0x100008650, symSize: 0x24 }
  - { offsetInCU: 0x21368, offset: 0x21368, size: 0x8, addend: 0x0, symName: __ZNSt3__19basic_iosIcNS_11char_traitsIcEEE4initB8ue170006EPNS_15basic_streambufIcS2_EE, symObjAddr: 0x4C24, symBinAddr: 0x100008674, symSize: 0x44 }
  - { offsetInCU: 0x2139F, offset: 0x2139F, size: 0x8, addend: 0x0, symName: __ZNSt3__111char_traitsIcE3eofB8ue170006Ev, symObjAddr: 0x4C68, symBinAddr: 0x1000086B8, symSize: 0x8 }
  - { offsetInCU: 0x213B3, offset: 0x213B3, size: 0x8, addend: 0x0, symName: __ZNSt3__18ios_base8setstateB8ue170006Ej, symObjAddr: 0x4C70, symBinAddr: 0x1000086C0, symSize: 0x34 }
  - { offsetInCU: 0x213EA, offset: 0x213EA, size: 0x8, addend: 0x0, symName: __ZN5Eigen5BlockINS_5ArrayIiLin1ELin1ELi0ELin1ELin1EEELi1ELin1ELb0EEC1ERS2_l, symObjAddr: 0x4CA4, symBinAddr: 0x1000086F4, symSize: 0x3C }
  - { offsetInCU: 0x21430, offset: 0x21430, size: 0x8, addend: 0x0, symName: __ZN5Eigen5BlockINS_5ArrayIiLin1ELin1ELi0ELin1ELin1EEELi1ELin1ELb0EEC2ERS2_l, symObjAddr: 0x4CE0, symBinAddr: 0x100008730, symSize: 0xCC }
  - { offsetInCU: 0x21476, offset: 0x21476, size: 0x8, addend: 0x0, symName: __ZN5Eigen9BlockImplINS_5ArrayIiLin1ELin1ELi0ELin1ELin1EEELi1ELin1ELb0ENS_5DenseEEC2ERS2_l, symObjAddr: 0x4DAC, symBinAddr: 0x1000087FC, symSize: 0x3C }
  - { offsetInCU: 0x214BC, offset: 0x214BC, size: 0x8, addend: 0x0, symName: __ZN5Eigen8internal15BlockImpl_denseINS_5ArrayIiLin1ELin1ELi0ELin1ELin1EEELi1ELin1ELb0ELb1EEC2ERS3_l, symObjAddr: 0x4DE8, symBinAddr: 0x100008838, symSize: 0xAC }
  - { offsetInCU: 0x21504, offset: 0x21504, size: 0x8, addend: 0x0, symName: __ZN5Eigen15PlainObjectBaseINS_5ArrayIiLin1ELin1ELi0ELin1ELin1EEEE4dataEv, symObjAddr: 0x4E94, symBinAddr: 0x1000088E4, symSize: 0x24 }
  - { offsetInCU: 0x2152A, offset: 0x2152A, size: 0x8, addend: 0x0, symName: __ZNK5Eigen5ArrayIiLin1ELin1ELi0ELin1ELin1EE11innerStrideEv, symObjAddr: 0x4EB8, symBinAddr: 0x100008908, symSize: 0x14 }
  - { offsetInCU: 0x21550, offset: 0x21550, size: 0x8, addend: 0x0, symName: __ZN5Eigen7MapBaseINS_5BlockINS_5ArrayIiLin1ELin1ELi0ELin1ELin1EEELi1ELin1ELb0EEELi1EEC2EPill, symObjAddr: 0x4ECC, symBinAddr: 0x10000891C, symSize: 0x44 }
  - { offsetInCU: 0x215A7, offset: 0x215A7, size: 0x8, addend: 0x0, symName: __ZN5Eigen8internal15BlockImpl_denseINS_5ArrayIiLin1ELin1ELi0ELin1ELin1EEELi1ELin1ELb0ELb1EE4initEv, symObjAddr: 0x4F10, symBinAddr: 0x100008960, symSize: 0x34 }
  - { offsetInCU: 0x215CD, offset: 0x215CD, size: 0x8, addend: 0x0, symName: __ZN5Eigen12DenseStorageIiLin1ELin1ELin1ELi0EE4dataEv, symObjAddr: 0x4F44, symBinAddr: 0x100008994, symSize: 0x18 }
  - { offsetInCU: 0x215F3, offset: 0x215F3, size: 0x8, addend: 0x0, symName: __ZN5Eigen7MapBaseINS_5BlockINS_5ArrayIiLin1ELin1ELi0ELin1ELin1EEELi1ELin1ELb0EEELi0EEC2EPill, symObjAddr: 0x4F5C, symBinAddr: 0x1000089AC, symSize: 0x130 }
  - { offsetInCU: 0x21647, offset: 0x21647, size: 0x8, addend: 0x0, symName: __ZN5Eigen9ArrayBaseINS_5BlockINS_5ArrayIiLin1ELin1ELi0ELin1ELin1EEELi1ELin1ELb0EEEEC2Ev, symObjAddr: 0x508C, symBinAddr: 0x100008ADC, symSize: 0x2C }
  - { offsetInCU: 0x21671, offset: 0x21671, size: 0x8, addend: 0x0, symName: __ZNK5Eigen7MapBaseINS_5BlockINS_5ArrayIiLin1ELin1ELi0ELin1ELin1EEELi1ELin1ELb0EEELi0EE11checkSanityIS4_EEvNS_8internal9enable_ifIXeqsr8internal6traitsIT_EE9AlignmentLi0EEPvE4typeE, symObjAddr: 0x50B8, symBinAddr: 0x100008B08, symSize: 0x14 }
  - { offsetInCU: 0x216AB, offset: 0x216AB, size: 0x8, addend: 0x0, symName: __ZN5Eigen9DenseBaseINS_5BlockINS_5ArrayIiLin1ELin1ELi0ELin1ELin1EEELi1ELin1ELb0EEEEC2Ev, symObjAddr: 0x50CC, symBinAddr: 0x100008B1C, symSize: 0x14 }
  - { offsetInCU: 0x216D5, offset: 0x216D5, size: 0x8, addend: 0x0, symName: __ZN5Eigen5ArrayIiLin1ELi1ELi0ELin1ELi1EEC2INS_5BlockINS0_IiLin1ELin1ELi0ELin1ELin1EEELi1ELin1ELb0EEEEERKNS_9EigenBaseIT_EENS_8internal9enable_ifIXsr8internal14is_convertibleINS7_6ScalarEiEE5valueENS1_11PrivateTypeEE4typeE, symObjAddr: 0x50E0, symBinAddr: 0x100008B30, symSize: 0x40 }
  - { offsetInCU: 0x21722, offset: 0x21722, size: 0x8, addend: 0x0, symName: __ZNK5Eigen9EigenBaseINS_5BlockINS_5ArrayIiLin1ELin1ELi0ELin1ELin1EEELi1ELin1ELb0EEEE7derivedEv, symObjAddr: 0x5120, symBinAddr: 0x100008B70, symSize: 0x14 }
  - { offsetInCU: 0x21748, offset: 0x21748, size: 0x8, addend: 0x0, symName: __ZN5Eigen15PlainObjectBaseINS_5ArrayIiLin1ELi1ELi0ELin1ELi1EEEEC2INS_5BlockINS1_IiLin1ELin1ELi0ELin1ELin1EEELi1ELin1ELb0EEEEERKNS_9DenseBaseIT_EE, symObjAddr: 0x5134, symBinAddr: 0x100008B84, symSize: 0x84 }
  - { offsetInCU: 0x2178A, offset: 0x2178A, size: 0x8, addend: 0x0, symName: __ZN5Eigen9ArrayBaseINS_5ArrayIiLin1ELi1ELi0ELin1ELi1EEEEC2Ev, symObjAddr: 0x51B8, symBinAddr: 0x100008C08, symSize: 0x2C }
  - { offsetInCU: 0x217B4, offset: 0x217B4, size: 0x8, addend: 0x0, symName: __ZN5Eigen12DenseStorageIiLin1ELin1ELi1ELi0EEC1Ev, symObjAddr: 0x51E4, symBinAddr: 0x100008C34, symSize: 0x2C }
  - { offsetInCU: 0x217DE, offset: 0x217DE, size: 0x8, addend: 0x0, symName: __ZN5Eigen15PlainObjectBaseINS_5ArrayIiLin1ELi1ELi0ELin1ELi1EEEE22_check_template_paramsEv, symObjAddr: 0x5210, symBinAddr: 0x100008C60, symSize: 0x4 }
  - { offsetInCU: 0x217F2, offset: 0x217F2, size: 0x8, addend: 0x0, symName: __ZN5Eigen15PlainObjectBaseINS_5ArrayIiLin1ELi1ELi0ELin1ELi1EEEE10resizeLikeINS_5BlockINS1_IiLin1ELin1ELi0ELin1ELin1EEELi1ELin1ELb0EEEEEvRKNS_9EigenBaseIT_EE, symObjAddr: 0x5214, symBinAddr: 0x100008C64, symSize: 0x170 }
  - { offsetInCU: 0x21886, offset: 0x21886, size: 0x8, addend: 0x0, symName: __ZN5Eigen15PlainObjectBaseINS_5ArrayIiLin1ELi1ELi0ELin1ELi1EEEE12_set_noaliasINS_5BlockINS1_IiLin1ELin1ELi0ELin1ELin1EEELi1ELin1ELb0EEEEERS2_RKNS_9DenseBaseIT_EE, symObjAddr: 0x5384, symBinAddr: 0x100008DD4, symSize: 0x60 }
  - { offsetInCU: 0x218C4, offset: 0x218C4, size: 0x8, addend: 0x0, symName: __ZN5Eigen9DenseBaseINS_5ArrayIiLin1ELi1ELi0ELin1ELi1EEEEC2Ev, symObjAddr: 0x53E4, symBinAddr: 0x100008E34, symSize: 0x14 }
  - { offsetInCU: 0x218EE, offset: 0x218EE, size: 0x8, addend: 0x0, symName: __ZN5Eigen12DenseStorageIiLin1ELin1ELi1ELi0EEC2Ev, symObjAddr: 0x53F8, symBinAddr: 0x100008E48, symSize: 0x1C }
  - { offsetInCU: 0x21918, offset: 0x21918, size: 0x8, addend: 0x0, symName: __ZNK5Eigen7MapBaseINS_5BlockINS_5ArrayIiLin1ELin1ELi0ELin1ELin1EEELi1ELin1ELb0EEELi0EE4rowsEv, symObjAddr: 0x5414, symBinAddr: 0x100008E64, symSize: 0x20 }
  - { offsetInCU: 0x2193E, offset: 0x2193E, size: 0x8, addend: 0x0, symName: __ZNK5Eigen7MapBaseINS_5BlockINS_5ArrayIiLin1ELin1ELi0ELin1ELin1EEELi1ELin1ELb0EEELi0EE4colsEv, symObjAddr: 0x5434, symBinAddr: 0x100008E84, symSize: 0x28 }
  - { offsetInCU: 0x21964, offset: 0x21964, size: 0x8, addend: 0x0, symName: __ZN5Eigen15PlainObjectBaseINS_5ArrayIiLin1ELi1ELi0ELin1ELi1EEEE6resizeEll, symObjAddr: 0x545C, symBinAddr: 0x100008EAC, symSize: 0x168 }
  - { offsetInCU: 0x219E0, offset: 0x219E0, size: 0x8, addend: 0x0, symName: __ZN5Eigen12DenseStorageIiLin1ELin1ELi1ELi0EE6resizeElll, symObjAddr: 0x55C4, symBinAddr: 0x100009014, symSize: 0xA4 }
  - { offsetInCU: 0x21A2F, offset: 0x21A2F, size: 0x8, addend: 0x0, symName: __ZN5Eigen9EigenBaseINS_5ArrayIiLin1ELi1ELi0ELin1ELi1EEEE7derivedEv, symObjAddr: 0x56AC, symBinAddr: 0x1000090FC, symSize: 0x14 }
  - { offsetInCU: 0x21A55, offset: 0x21A55, size: 0x8, addend: 0x0, symName: __ZN5Eigen9TransposeINS_5ArrayIiLin1ELi1ELi0ELin1ELi1EEEEC1ERS2_, symObjAddr: 0x56C0, symBinAddr: 0x100009110, symSize: 0x34 }
  - { offsetInCU: 0x21A8D, offset: 0x21A8D, size: 0x8, addend: 0x0, symName: __ZN5Eigen8internal10AssignmentINS_9TransposeINS_5ArrayIiLin1ELi1ELi0ELin1ELi1EEEEENS_5BlockINS3_IiLin1ELin1ELi0ELin1ELin1EEELi1ELin1ELb0EEENS0_9assign_opIiiEENS0_11Dense2DenseEvE3runERS5_RKS8_RKSA_, symObjAddr: 0x56F4, symBinAddr: 0x100009144, symSize: 0x40 }
  - { offsetInCU: 0x21ACF, offset: 0x21ACF, size: 0x8, addend: 0x0, symName: __ZN5Eigen9TransposeINS_5ArrayIiLin1ELi1ELi0ELin1ELi1EEEEC2ERS2_, symObjAddr: 0x5734, symBinAddr: 0x100009184, symSize: 0x38 }
  - { offsetInCU: 0x21B07, offset: 0x21B07, size: 0x8, addend: 0x0, symName: __ZN5Eigen13TransposeImplINS_5ArrayIiLin1ELi1ELi0ELin1ELi1EEENS_5DenseEEC2Ev, symObjAddr: 0x576C, symBinAddr: 0x1000091BC, symSize: 0x2C }
  - { offsetInCU: 0x21B31, offset: 0x21B31, size: 0x8, addend: 0x0, symName: __ZN5Eigen9ArrayBaseINS_9TransposeINS_5ArrayIiLin1ELi1ELi0ELin1ELi1EEEEEEC2Ev, symObjAddr: 0x5798, symBinAddr: 0x1000091E8, symSize: 0x2C }
  - { offsetInCU: 0x21B5B, offset: 0x21B5B, size: 0x8, addend: 0x0, symName: __ZN5Eigen9DenseBaseINS_9TransposeINS_5ArrayIiLin1ELi1ELi0ELin1ELi1EEEEEEC2Ev, symObjAddr: 0x57C4, symBinAddr: 0x100009214, symSize: 0x14 }
  - { offsetInCU: 0x21BA3, offset: 0x21BA3, size: 0x8, addend: 0x0, symName: __ZN5Eigen8internal9evaluatorINS_5BlockINS_5ArrayIiLin1ELin1ELi0ELin1ELin1EEELi1ELin1ELb0EEEEC1ERKS5_, symObjAddr: 0x58CC, symBinAddr: 0x10000931C, symSize: 0x34 }
  - { offsetInCU: 0x21C13, offset: 0x21C13, size: 0x8, addend: 0x0, symName: __ZN5Eigen8internal9evaluatorINS_9TransposeINS_5ArrayIiLin1ELi1ELi0ELin1ELi1EEEEEEC1ERKS5_, symObjAddr: 0x59F8, symBinAddr: 0x100009448, symSize: 0x34 }
  - { offsetInCU: 0x21C4B, offset: 0x21C4B, size: 0x8, addend: 0x0, symName: __ZNK5Eigen9EigenBaseINS_9TransposeINS_5ArrayIiLin1ELi1ELi0ELin1ELi1EEEEEE18const_cast_derivedEv, symObjAddr: 0x5A2C, symBinAddr: 0x10000947C, symSize: 0x14 }
  - { offsetInCU: 0x21C9E, offset: 0x21C9E, size: 0x8, addend: 0x0, symName: __ZN5Eigen8internal31generic_dense_assignment_kernelINS0_9evaluatorINS_9TransposeINS_5ArrayIiLin1ELi1ELi0ELin1ELi1EEEEEEENS2_INS_5BlockINS4_IiLin1ELin1ELi0ELin1ELin1EEELi1ELin1ELb0EEEEENS0_9assign_opIiiEELi0EEC1ERS7_RKSB_RKSD_RS6_, symObjAddr: 0x5A40, symBinAddr: 0x100009490, symSize: 0x4C }
  - { offsetInCU: 0x21D09, offset: 0x21D09, size: 0x8, addend: 0x0, symName: __ZN5Eigen8internal21dense_assignment_loopINS0_31generic_dense_assignment_kernelINS0_9evaluatorINS_9TransposeINS_5ArrayIiLin1ELi1ELi0ELin1ELi1EEEEEEENS3_INS_5BlockINS5_IiLin1ELin1ELi0ELin1ELin1EEELi1ELin1ELb0EEEEENS0_9assign_opIiiEELi0EEELi1ELi0EE3runERSF_, symObjAddr: 0x5A8C, symBinAddr: 0x1000094DC, symSize: 0x68 }
  - { offsetInCU: 0x21D59, offset: 0x21D59, size: 0x8, addend: 0x0, symName: __ZN5Eigen8internal9evaluatorINS_9TransposeINS_5ArrayIiLin1ELi1ELi0ELin1ELi1EEEEEED1Ev, symObjAddr: 0x5AF4, symBinAddr: 0x100009544, symSize: 0x2C }
  - { offsetInCU: 0x21D85, offset: 0x21D85, size: 0x8, addend: 0x0, symName: __ZN5Eigen8internal9evaluatorINS_5BlockINS_5ArrayIiLin1ELin1ELi0ELin1ELin1EEELi1ELin1ELb0EEEED1Ev, symObjAddr: 0x5B20, symBinAddr: 0x100009570, symSize: 0x2C }
  - { offsetInCU: 0x21DB2, offset: 0x21DB2, size: 0x8, addend: 0x0, symName: __ZN5Eigen8internal9evaluatorINS_5BlockINS_5ArrayIiLin1ELin1ELi0ELin1ELin1EEELi1ELin1ELb0EEEEC2ERKS5_, symObjAddr: 0x5B4C, symBinAddr: 0x10000959C, symSize: 0x34 }
  - { offsetInCU: 0x21DEB, offset: 0x21DEB, size: 0x8, addend: 0x0, symName: __ZN5Eigen8internal15block_evaluatorINS_5ArrayIiLin1ELin1ELi0ELin1ELin1EEELi1ELin1ELb0ELb1EEC2ERKNS_5BlockIS3_Li1ELin1ELb0EEE, symObjAddr: 0x5B80, symBinAddr: 0x1000095D0, symSize: 0xDC }
  - { offsetInCU: 0x21E24, offset: 0x21E24, size: 0x8, addend: 0x0, symName: __ZN5Eigen8internal17mapbase_evaluatorINS_5BlockINS_5ArrayIiLin1ELin1ELi0ELin1ELin1EEELi1ELin1ELb0EEENS3_IiLi1ELin1ELi1ELi1ELin1EEEEC2ERKS5_, symObjAddr: 0x5C5C, symBinAddr: 0x1000096AC, symSize: 0xB0 }
  - { offsetInCU: 0x21E5D, offset: 0x21E5D, size: 0x8, addend: 0x0, symName: __ZNK5Eigen7MapBaseINS_5BlockINS_5ArrayIiLin1ELin1ELi0ELin1ELin1EEELi1ELin1ELb0EEELi1EE4dataEv, symObjAddr: 0x5D0C, symBinAddr: 0x10000975C, symSize: 0x18 }
  - { offsetInCU: 0x21E83, offset: 0x21E83, size: 0x8, addend: 0x0, symName: __ZN5Eigen8internal17mapbase_evaluatorINS_5BlockINS_5ArrayIiLin1ELin1ELi0ELin1ELin1EEELi1ELin1ELb0EEENS3_IiLi1ELin1ELi1ELi1ELin1EEEED2Ev, symObjAddr: 0x5D24, symBinAddr: 0x100009774, symSize: 0x2C }
  - { offsetInCU: 0x21EB0, offset: 0x21EB0, size: 0x8, addend: 0x0, symName: __ZN5Eigen8internal14evaluator_baseINS_5BlockINS_5ArrayIiLin1ELin1ELi0ELin1ELin1EEELi1ELin1ELb0EEEEC2Ev, symObjAddr: 0x5D50, symBinAddr: 0x1000097A0, symSize: 0x14 }
  - { offsetInCU: 0x21EDA, offset: 0x21EDA, size: 0x8, addend: 0x0, symName: __ZNK5Eigen8internal15BlockImpl_denseINS_5ArrayIiLin1ELin1ELi0ELin1ELin1EEELi1ELin1ELb0ELb1EE11innerStrideEv, symObjAddr: 0x5D64, symBinAddr: 0x1000097B4, symSize: 0x28 }
  - { offsetInCU: 0x21F00, offset: 0x21F00, size: 0x8, addend: 0x0, symName: __ZNK5Eigen8internal15BlockImpl_denseINS_5ArrayIiLin1ELin1ELi0ELin1ELin1EEELi1ELin1ELb0ELb1EE11outerStrideEv, symObjAddr: 0x5D8C, symBinAddr: 0x1000097DC, symSize: 0x28 }
  - { offsetInCU: 0x21F26, offset: 0x21F26, size: 0x8, addend: 0x0, symName: __ZN5Eigen8internal14evaluator_baseINS_5BlockINS_5ArrayIiLin1ELin1ELi0ELin1ELin1EEELi1ELin1ELb0EEEED2Ev, symObjAddr: 0x5DB4, symBinAddr: 0x100009804, symSize: 0x14 }
  - { offsetInCU: 0x21F50, offset: 0x21F50, size: 0x8, addend: 0x0, symName: __ZNK5Eigen9TransposeINS_5ArrayIiLin1ELi1ELi0ELin1ELi1EEEE4rowsEv, symObjAddr: 0x5DC8, symBinAddr: 0x100009818, symSize: 0x28 }
  - { offsetInCU: 0x21F76, offset: 0x21F76, size: 0x8, addend: 0x0, symName: __ZNK5Eigen9TransposeINS_5ArrayIiLin1ELi1ELi0ELin1ELi1EEEE4colsEv, symObjAddr: 0x5DF0, symBinAddr: 0x100009840, symSize: 0x28 }
  - { offsetInCU: 0x21F9C, offset: 0x21F9C, size: 0x8, addend: 0x0, symName: __ZN5Eigen9TransposeINS_5ArrayIiLin1ELi1ELi0ELin1ELi1EEEE6resizeEll, symObjAddr: 0x5E18, symBinAddr: 0x100009868, symSize: 0x38 }
  - { offsetInCU: 0x21FDE, offset: 0x21FDE, size: 0x8, addend: 0x0, symName: __ZN5Eigen8internal9evaluatorINS_9TransposeINS_5ArrayIiLin1ELi1ELi0ELin1ELi1EEEEEEC2ERKS5_, symObjAddr: 0x5E50, symBinAddr: 0x1000098A0, symSize: 0x34 }
  - { offsetInCU: 0x22016, offset: 0x22016, size: 0x8, addend: 0x0, symName: __ZN5Eigen8internal15unary_evaluatorINS_9TransposeINS_5ArrayIiLin1ELi1ELi0ELin1ELi1EEEEENS0_10IndexBasedEiEC2ERKS5_, symObjAddr: 0x5E84, symBinAddr: 0x1000098D4, symSize: 0x74 }
  - { offsetInCU: 0x2204F, offset: 0x2204F, size: 0x8, addend: 0x0, symName: __ZN5Eigen8internal14evaluator_baseINS_9TransposeINS_5ArrayIiLin1ELi1ELi0ELin1ELi1EEEEEEC2Ev, symObjAddr: 0x5EF8, symBinAddr: 0x100009948, symSize: 0x14 }
  - { offsetInCU: 0x22079, offset: 0x22079, size: 0x8, addend: 0x0, symName: __ZNK5Eigen9TransposeINS_5ArrayIiLin1ELi1ELi0ELin1ELi1EEEE16nestedExpressionEv, symObjAddr: 0x5F0C, symBinAddr: 0x10000995C, symSize: 0x18 }
  - { offsetInCU: 0x2209F, offset: 0x2209F, size: 0x8, addend: 0x0, symName: __ZN5Eigen8internal14evaluator_baseINS_9TransposeINS_5ArrayIiLin1ELi1ELi0ELin1ELi1EEEEEED2Ev, symObjAddr: 0x5F24, symBinAddr: 0x100009974, symSize: 0x14 }
  - { offsetInCU: 0x220C9, offset: 0x220C9, size: 0x8, addend: 0x0, symName: __ZN5Eigen8internal31generic_dense_assignment_kernelINS0_9evaluatorINS_9TransposeINS_5ArrayIiLin1ELi1ELi0ELin1ELi1EEEEEEENS2_INS_5BlockINS4_IiLin1ELin1ELi0ELin1ELin1EEELi1ELin1ELb0EEEEENS0_9assign_opIiiEELi0EEC2ERS7_RKSB_RKSD_RS6_, symObjAddr: 0x5F38, symBinAddr: 0x100009988, symSize: 0x44 }
  - { offsetInCU: 0x2212F, offset: 0x2212F, size: 0x8, addend: 0x0, symName: __ZNK5Eigen8internal31generic_dense_assignment_kernelINS0_9evaluatorINS_9TransposeINS_5ArrayIiLin1ELi1ELi0ELin1ELi1EEEEEEENS2_INS_5BlockINS4_IiLin1ELin1ELi0ELin1ELin1EEELi1ELin1ELb0EEEEENS0_9assign_opIiiEELi0EE4sizeEv, symObjAddr: 0x5F7C, symBinAddr: 0x1000099CC, symSize: 0x28 }
  - { offsetInCU: 0x22155, offset: 0x22155, size: 0x8, addend: 0x0, symName: __ZN5Eigen8internal31generic_dense_assignment_kernelINS0_9evaluatorINS_9TransposeINS_5ArrayIiLin1ELi1ELi0ELin1ELi1EEEEEEENS2_INS_5BlockINS4_IiLin1ELin1ELi0ELin1ELin1EEELi1ELin1ELb0EEEEENS0_9assign_opIiiEELi0EE11assignCoeffEl, symObjAddr: 0x5FA4, symBinAddr: 0x1000099F4, symSize: 0x60 }
  - { offsetInCU: 0x2218A, offset: 0x2218A, size: 0x8, addend: 0x0, symName: __ZNK5Eigen9EigenBaseINS_9TransposeINS_5ArrayIiLin1ELi1ELi0ELin1ELi1EEEEEE4sizeEv, symObjAddr: 0x6004, symBinAddr: 0x100009A54, symSize: 0x44 }
  - { offsetInCU: 0x221B0, offset: 0x221B0, size: 0x8, addend: 0x0, symName: __ZNK5Eigen9EigenBaseINS_9TransposeINS_5ArrayIiLin1ELi1ELi0ELin1ELi1EEEEEE4rowsEv, symObjAddr: 0x6048, symBinAddr: 0x100009A98, symSize: 0x38 }
  - { offsetInCU: 0x221D6, offset: 0x221D6, size: 0x8, addend: 0x0, symName: __ZNK5Eigen9EigenBaseINS_9TransposeINS_5ArrayIiLin1ELi1ELi0ELin1ELi1EEEEEE4colsEv, symObjAddr: 0x6080, symBinAddr: 0x100009AD0, symSize: 0x28 }
  - { offsetInCU: 0x221FC, offset: 0x221FC, size: 0x8, addend: 0x0, symName: __ZNK5Eigen9EigenBaseINS_9TransposeINS_5ArrayIiLin1ELi1ELi0ELin1ELi1EEEEEE7derivedEv, symObjAddr: 0x60A8, symBinAddr: 0x100009AF8, symSize: 0x14 }
  - { offsetInCU: 0x22222, offset: 0x22222, size: 0x8, addend: 0x0, symName: __ZN5Eigen8internal15unary_evaluatorINS_9TransposeINS_5ArrayIiLin1ELi1ELi0ELin1ELi1EEEEENS0_10IndexBasedEiE8coeffRefEl, symObjAddr: 0x60BC, symBinAddr: 0x100009B0C, symSize: 0x2C }
  - { offsetInCU: 0x22257, offset: 0x22257, size: 0x8, addend: 0x0, symName: __ZNK5Eigen8internal17mapbase_evaluatorINS_5BlockINS_5ArrayIiLin1ELin1ELi0ELin1ELin1EEELi1ELin1ELb0EEENS3_IiLi1ELin1ELi1ELi1ELin1EEEE5coeffEl, symObjAddr: 0x60E8, symBinAddr: 0x100009B38, symSize: 0x4C }
  - { offsetInCU: 0x2228C, offset: 0x2228C, size: 0x8, addend: 0x0, symName: __ZN5Eigen8internal9evaluatorINS_15PlainObjectBaseINS_5ArrayIiLin1ELi1ELi0ELin1ELi1EEEEEE8coeffRefEl, symObjAddr: 0x6134, symBinAddr: 0x100009B84, symSize: 0x24 }
  - { offsetInCU: 0x222C0, offset: 0x222C0, size: 0x8, addend: 0x0, symName: __ZN5Eigen8internal9evaluatorINS_9TransposeINS_5ArrayIiLin1ELi1ELi0ELin1ELi1EEEEEED2Ev, symObjAddr: 0x6158, symBinAddr: 0x100009BA8, symSize: 0x2C }
  - { offsetInCU: 0x222EC, offset: 0x222EC, size: 0x8, addend: 0x0, symName: __ZN5Eigen8internal15unary_evaluatorINS_9TransposeINS_5ArrayIiLin1ELi1ELi0ELin1ELi1EEEEENS0_10IndexBasedEiED2Ev, symObjAddr: 0x6184, symBinAddr: 0x100009BD4, symSize: 0x34 }
  - { offsetInCU: 0x22318, offset: 0x22318, size: 0x8, addend: 0x0, symName: __ZN5Eigen8internal9evaluatorINS_5BlockINS_5ArrayIiLin1ELin1ELi0ELin1ELin1EEELi1ELin1ELb0EEEED2Ev, symObjAddr: 0x61B8, symBinAddr: 0x100009C08, symSize: 0x2C }
  - { offsetInCU: 0x22345, offset: 0x22345, size: 0x8, addend: 0x0, symName: __ZN5Eigen8internal15block_evaluatorINS_5ArrayIiLin1ELin1ELi0ELin1ELin1EEELi1ELin1ELb0ELb1EED2Ev, symObjAddr: 0x61E4, symBinAddr: 0x100009C34, symSize: 0x2C }
  - { offsetInCU: 0x22372, offset: 0x22372, size: 0x8, addend: 0x0, symName: __ZNSt3__111char_traitsIcE6lengthB8ue170006EPKc, symObjAddr: 0x63FC, symBinAddr: 0x100009E4C, symSize: 0x34 }
  - { offsetInCU: 0x223B3, offset: 0x223B3, size: 0x8, addend: 0x0, symName: __ZNKSt3__113basic_ostreamIcNS_11char_traitsIcEEE6sentrycvbB8ue170006Ev, symObjAddr: 0x6430, symBinAddr: 0x100009E80, symSize: 0x1C }
  - { offsetInCU: 0x223D9, offset: 0x223D9, size: 0x8, addend: 0x0, symName: __ZNSt3__119ostreambuf_iteratorIcNS_11char_traitsIcEEEC1B8ue170006ERNS_13basic_ostreamIcS2_EE, symObjAddr: 0x668C, symBinAddr: 0x10000A0DC, symSize: 0x34 }
  - { offsetInCU: 0x22411, offset: 0x22411, size: 0x8, addend: 0x0, symName: __ZNKSt3__18ios_base5flagsB8ue170006Ev, symObjAddr: 0x66C0, symBinAddr: 0x10000A110, symSize: 0x18 }
  - { offsetInCU: 0x22439, offset: 0x22439, size: 0x8, addend: 0x0, symName: __ZNKSt3__19basic_iosIcNS_11char_traitsIcEEE4fillB8ue170006Ev, symObjAddr: 0x66D8, symBinAddr: 0x10000A128, symSize: 0x64 }
  - { offsetInCU: 0x22461, offset: 0x22461, size: 0x8, addend: 0x0, symName: __ZNKSt3__119ostreambuf_iteratorIcNS_11char_traitsIcEEE6failedB8ue170006Ev, symObjAddr: 0x673C, symBinAddr: 0x10000A18C, symSize: 0x24 }
  - { offsetInCU: 0x22487, offset: 0x22487, size: 0x8, addend: 0x0, symName: __ZNKSt3__18ios_base5widthB8ue170006Ev, symObjAddr: 0x6760, symBinAddr: 0x10000A1B0, symSize: 0x18 }
  - { offsetInCU: 0x224AF, offset: 0x224AF, size: 0x8, addend: 0x0, symName: __ZNSt3__115basic_streambufIcNS_11char_traitsIcEEE5sputnB8ue170006EPKcl, symObjAddr: 0x6778, symBinAddr: 0x10000A1C8, symSize: 0x3C }
  - { offsetInCU: 0x224F1, offset: 0x224F1, size: 0x8, addend: 0x0, symName: __ZNSt3__112basic_stringIcNS_11char_traitsIcEENS_9allocatorIcEEEC1B8ue170006Emc, symObjAddr: 0x67B4, symBinAddr: 0x10000A204, symSize: 0x3C }
  - { offsetInCU: 0x22539, offset: 0x22539, size: 0x8, addend: 0x0, symName: __ZNKSt3__112basic_stringIcNS_11char_traitsIcEENS_9allocatorIcEEE4dataB8ue170006Ev, symObjAddr: 0x67F0, symBinAddr: 0x10000A240, symSize: 0x28 }
  - { offsetInCU: 0x2255F, offset: 0x2255F, size: 0x8, addend: 0x0, symName: __ZNSt3__18ios_base5widthB8ue170006El, symObjAddr: 0x6818, symBinAddr: 0x10000A268, symSize: 0x2C }
  - { offsetInCU: 0x225A5, offset: 0x225A5, size: 0x8, addend: 0x0, symName: __ZNSt3__112basic_stringIcNS_11char_traitsIcEENS_9allocatorIcEEEC2B8ue170006Emc, symObjAddr: 0x6844, symBinAddr: 0x10000A294, symSize: 0x4C }
  - { offsetInCU: 0x225F3, offset: 0x225F3, size: 0x8, addend: 0x0, symName: __ZNSt3__117__compressed_pairINS_12basic_stringIcNS_11char_traitsIcEENS_9allocatorIcEEE5__repES5_EC1B8ue170006INS_18__default_init_tagESA_EEOT_OT0_, symObjAddr: 0x6890, symBinAddr: 0x10000A2E0, symSize: 0x3C }
  - { offsetInCU: 0x2264B, offset: 0x2264B, size: 0x8, addend: 0x0, symName: __ZNSt3__117__compressed_pairINS_12basic_stringIcNS_11char_traitsIcEENS_9allocatorIcEEE5__repES5_EC2B8ue170006INS_18__default_init_tagESA_EEOT_OT0_, symObjAddr: 0x68CC, symBinAddr: 0x10000A31C, symSize: 0x3C }
  - { offsetInCU: 0x226A3, offset: 0x226A3, size: 0x8, addend: 0x0, symName: __ZNSt3__122__compressed_pair_elemINS_12basic_stringIcNS_11char_traitsIcEENS_9allocatorIcEEE5__repELi0ELb0EEC2B8ue170006ENS_18__default_init_tagE, symObjAddr: 0x6908, symBinAddr: 0x10000A358, symSize: 0x14 }
  - { offsetInCU: 0x226D8, offset: 0x226D8, size: 0x8, addend: 0x0, symName: __ZNSt3__122__compressed_pair_elemINS_9allocatorIcEELi1ELb1EEC2B8ue170006ENS_18__default_init_tagE, symObjAddr: 0x691C, symBinAddr: 0x10000A36C, symSize: 0x2C }
  - { offsetInCU: 0x2270D, offset: 0x2270D, size: 0x8, addend: 0x0, symName: __ZNSt3__19allocatorIcEC2B8ue170006Ev, symObjAddr: 0x6948, symBinAddr: 0x10000A398, symSize: 0x2C }
  - { offsetInCU: 0x22737, offset: 0x22737, size: 0x8, addend: 0x0, symName: __ZNSt3__116__non_trivial_ifILb1ENS_9allocatorIcEEEC2B8ue170006Ev, symObjAddr: 0x6974, symBinAddr: 0x10000A3C4, symSize: 0x14 }
  - { offsetInCU: 0x22761, offset: 0x22761, size: 0x8, addend: 0x0, symName: __ZNKSt3__112basic_stringIcNS_11char_traitsIcEENS_9allocatorIcEEE13__get_pointerB8ue170006Ev, symObjAddr: 0x699C, symBinAddr: 0x10000A3EC, symSize: 0x54 }
  - { offsetInCU: 0x22787, offset: 0x22787, size: 0x8, addend: 0x0, symName: __ZNKSt3__112basic_stringIcNS_11char_traitsIcEENS_9allocatorIcEEE9__is_longB8ue170006Ev, symObjAddr: 0x69F0, symBinAddr: 0x10000A440, symSize: 0x38 }
  - { offsetInCU: 0x227AD, offset: 0x227AD, size: 0x8, addend: 0x0, symName: __ZNKSt3__112basic_stringIcNS_11char_traitsIcEENS_9allocatorIcEEE18__get_long_pointerB8ue170006Ev, symObjAddr: 0x6A28, symBinAddr: 0x10000A478, symSize: 0x28 }
  - { offsetInCU: 0x227D3, offset: 0x227D3, size: 0x8, addend: 0x0, symName: __ZNKSt3__112basic_stringIcNS_11char_traitsIcEENS_9allocatorIcEEE19__get_short_pointerB8ue170006Ev, symObjAddr: 0x6A50, symBinAddr: 0x10000A4A0, symSize: 0x28 }
  - { offsetInCU: 0x227F9, offset: 0x227F9, size: 0x8, addend: 0x0, symName: __ZNKSt3__117__compressed_pairINS_12basic_stringIcNS_11char_traitsIcEENS_9allocatorIcEEE5__repES5_E5firstB8ue170006Ev, symObjAddr: 0x6A78, symBinAddr: 0x10000A4C8, symSize: 0x24 }
  - { offsetInCU: 0x2281F, offset: 0x2281F, size: 0x8, addend: 0x0, symName: __ZNKSt3__122__compressed_pair_elemINS_12basic_stringIcNS_11char_traitsIcEENS_9allocatorIcEEE5__repELi0ELb0EE5__getB8ue170006Ev, symObjAddr: 0x6A9C, symBinAddr: 0x10000A4EC, symSize: 0x14 }
  - { offsetInCU: 0x22845, offset: 0x22845, size: 0x8, addend: 0x0, symName: __ZNSt3__114pointer_traitsIPKcE10pointer_toB8ue170006ERS1_, symObjAddr: 0x6AB0, symBinAddr: 0x10000A500, symSize: 0x14 }
  - { offsetInCU: 0x22868, offset: 0x22868, size: 0x8, addend: 0x0, symName: __ZNSt3__119ostreambuf_iteratorIcNS_11char_traitsIcEEEC2B8ue170006ERNS_13basic_ostreamIcS2_EE, symObjAddr: 0x6AC4, symBinAddr: 0x10000A514, symSize: 0x54 }
  - { offsetInCU: 0x228A0, offset: 0x228A0, size: 0x8, addend: 0x0, symName: __ZNKSt3__19basic_iosIcNS_11char_traitsIcEEE5rdbufB8ue170006Ev, symObjAddr: 0x6B18, symBinAddr: 0x10000A568, symSize: 0x24 }
  - { offsetInCU: 0x228C8, offset: 0x228C8, size: 0x8, addend: 0x0, symName: __ZNKSt3__18ios_base5rdbufB8ue170006Ev, symObjAddr: 0x6B3C, symBinAddr: 0x10000A58C, symSize: 0x18 }
  - { offsetInCU: 0x228EE, offset: 0x228EE, size: 0x8, addend: 0x0, symName: __ZNSt3__111char_traitsIcE11eq_int_typeB8ue170006Eii, symObjAddr: 0x6B54, symBinAddr: 0x10000A5A4, symSize: 0x28 }
  - { offsetInCU: 0x22921, offset: 0x22921, size: 0x8, addend: 0x0, symName: __ZNKSt3__19basic_iosIcNS_11char_traitsIcEEE5widenB8ue170006Ec, symObjAddr: 0x6B7C, symBinAddr: 0x10000A5CC, symSize: 0x84 }
  - { offsetInCU: 0x2298F, offset: 0x2298F, size: 0x8, addend: 0x0, symName: __ZNKSt3__15ctypeIcE5widenB8ue170006Ec, symObjAddr: 0x6C2C, symBinAddr: 0x10000A67C, symSize: 0x38 }
...
