---
triple:          'arm64-apple-darwin'
binary-path:     '/Users/haolong/Documents/GitHub/demos_v_matrix/tutorial/mortality'
relocations:
  - { offsetInCU: 0x44, offset: 0x44, size: 0x8, addend: 0x0, symName: __ZN5EigenL4lastE, symObjAddr: 0xC3B2F, symBinAddr: 0x100014000, symSize: 0x0 }
  - { offsetInCU: 0x2534, offset: 0x2534, size: 0x8, addend: 0x0, symName: __ZN5Eigen8internal31conditional_aligned_delete_autoIiLb1EEEvPT_m, symObjAddr: 0x18EC, symBinAddr: 0x100005070, symSize: 0x28 }
  - { offsetInCU: 0x2580, offset: 0x2580, size: 0x8, addend: 0x0, symName: __ZN5Eigen8internal24conditional_aligned_freeILb1EEEvPv, symObjAddr: 0x1914, symBinAddr: 0x100005098, symSize: 0x24 }
  - { offsetInCU: 0x25B4, offset: 0x25B4, size: 0x8, addend: 0x0, symName: __ZN5Eigen8internal12aligned_freeEPv, symObjAddr: 0x1938, symBinAddr: 0x1000050BC, symSize: 0x24 }
  - { offsetInCU: 0x27A6, offset: 0x27A6, size: 0x8, addend: 0x0, symName: __ZN5Eigen8internal22ignore_unused_variableIlEEvRKT_, symObjAddr: 0x221C, symBinAddr: 0x1000059A0, symSize: 0x10 }
  - { offsetInCU: 0x27D5, offset: 0x27D5, size: 0x8, addend: 0x0, symName: __ZN5Eigen8internalL21first_default_alignedINS_5ArrayIiLin1ELi1ELi0ELin1ELi1EEEEElRKNS_9DenseBaseIT_EE, symObjAddr: 0x222C, symBinAddr: 0x1000059B0, symSize: 0x24 }
  - { offsetInCU: 0x285D, offset: 0x285D, size: 0x8, addend: 0x0, symName: __ZN5Eigen8internalL13first_alignedILi16ENS_5ArrayIiLin1ELi1ELi0ELin1ELi1EEEEElRKNS_9DenseBaseIT0_EE, symObjAddr: 0x2334, symBinAddr: 0x100005AB8, symSize: 0x28 }
  - { offsetInCU: 0x28DC, offset: 0x28DC, size: 0x8, addend: 0x0, symName: __ZN5Eigen8internal5ploadI17__simd128_int32_tEET_PKNS0_15unpacket_traitsIS3_E4typeE, symObjAddr: 0x2370, symBinAddr: 0x100005AF4, symSize: 0x28 }
  - { offsetInCU: 0x2930, offset: 0x2930, size: 0x8, addend: 0x0, symName: __ZN5Eigen8internal4paddI17__simd128_int32_tEET_RKS3_S5_, symObjAddr: 0x2398, symBinAddr: 0x100005B1C, symSize: 0x40 }
  - { offsetInCU: 0x2976, offset: 0x2976, size: 0x8, addend: 0x0, symName: __ZN5Eigen8internal6preduxI17__simd128_int32_tEENS0_15unpacket_traitsIT_E4typeERKS4_, symObjAddr: 0x23D8, symBinAddr: 0x100005B5C, symSize: 0xAC }
  - { offsetInCU: 0x29E8, offset: 0x29E8, size: 0x8, addend: 0x0, symName: __ZN5Eigen8internal17get_runtime_valueIlEElRKT_, symObjAddr: 0x251C, symBinAddr: 0x100005CA0, symSize: 0x18 }
  - { offsetInCU: 0x2BE8, offset: 0x2BE8, size: 0x8, addend: 0x0, symName: __ZN5Eigen8internalL21first_default_alignedINS_5BlockIKNS_5ArrayIiLin1ELi1ELi0ELin1ELi1EEELin1ELi1ELb0EEEEElRKNS_9DenseBaseIT_EE, symObjAddr: 0x351C, symBinAddr: 0x100006CA0, symSize: 0x24 }
  - { offsetInCU: 0x2C50, offset: 0x2C50, size: 0x8, addend: 0x0, symName: __ZN5Eigen8internalL13first_alignedILi16ENS_5BlockIKNS_5ArrayIiLin1ELi1ELi0ELin1ELi1EEELin1ELi1ELb0EEEEElRKNS_9DenseBaseIT0_EE, symObjAddr: 0x35DC, symBinAddr: 0x100006D60, symSize: 0x28 }
  - { offsetInCU: 0x2CCF, offset: 0x2CCF, size: 0x8, addend: 0x0, symName: __ZN5Eigen8internal13first_alignedILi16EilEET1_PKT0_S2_, symObjAddr: 0x3640, symBinAddr: 0x100006DC4, symSize: 0xA4 }
  - { offsetInCU: 0x2D72, offset: 0x2D72, size: 0x8, addend: 0x0, symName: __ZN5Eigen8internal6ploaduI17__simd128_int32_tEET_PKNS0_15unpacket_traitsIS3_E4typeE, symObjAddr: 0x36E4, symBinAddr: 0x100006E68, symSize: 0x28 }
  - { offsetInCU: 0x2DF9, offset: 0x2DF9, size: 0x8, addend: 0x0, symName: __ZN5Eigen8internal19throw_std_bad_allocEv, symObjAddr: 0x5B48, symBinAddr: 0x1000092CC, symSize: 0x34 }
  - { offsetInCU: 0x2E35, offset: 0x2E35, size: 0x8, addend: 0x0, symName: __ZN5Eigen8internal28conditional_aligned_new_autoIiLb1EEEPT_m, symObjAddr: 0x5C20, symBinAddr: 0x1000093A4, symSize: 0x84 }
  - { offsetInCU: 0x2EA3, offset: 0x2EA3, size: 0x8, addend: 0x0, symName: __ZN5Eigen8internal26conditional_aligned_mallocILb1EEEPvm, symObjAddr: 0x5CA4, symBinAddr: 0x100009428, symSize: 0x24 }
  - { offsetInCU: 0x2ED9, offset: 0x2ED9, size: 0x8, addend: 0x0, symName: __ZN5Eigen8internal14aligned_mallocEm, symObjAddr: 0x5CC8, symBinAddr: 0x10000944C, symSize: 0xDC }
  - { offsetInCU: 0x2F1A, offset: 0x2F1A, size: 0x8, addend: 0x0, symName: __ZN5Eigen8internal28check_that_malloc_is_allowedEv, symObjAddr: 0x5DA4, symBinAddr: 0x100009528, symSize: 0x4 }
  - { offsetInCU: 0x2F33, offset: 0x2F33, size: 0x8, addend: 0x0, symName: __ZN5Eigen8internal24call_assignment_no_aliasINS_5ArrayIiLin1ELi1ELi0ELin1ELi1EEENS_5BlockINS2_IiLin1ELin1ELi0ELin1ELin1EEELi1ELin1ELb0EEENS0_9assign_opIiiEEEEvRT_RKT0_RKT1_, symObjAddr: 0x5DA8, symBinAddr: 0x10000952C, symSize: 0x44 }
  - { offsetInCU: 0x3061, offset: 0x3061, size: 0x8, addend: 0x0, symName: __ZN5Eigen8internal18check_for_aliasingINS_9TransposeINS_5ArrayIiLin1ELi1ELi0ELin1ELi1EEEEENS_5BlockINS3_IiLin1ELin1ELi0ELin1ELin1EEELi1ELin1ELb0EEEEEvRKT_RKT0_, symObjAddr: 0x5F44, symBinAddr: 0x1000096C8, symSize: 0x14 }
  - { offsetInCU: 0x30AC, offset: 0x30AC, size: 0x8, addend: 0x0, symName: __ZN5Eigen8internal26call_dense_assignment_loopINS_9TransposeINS_5ArrayIiLin1ELi1ELi0ELin1ELi1EEEEENS_5BlockINS3_IiLin1ELin1ELi0ELin1ELin1EEELi1ELin1ELb0EEENS0_9assign_opIiiEEEEvRT_RKT0_RKT1_, symObjAddr: 0x5F58, symBinAddr: 0x1000096DC, symSize: 0xE0 }
  - { offsetInCU: 0x3210, offset: 0x3210, size: 0x8, addend: 0x0, symName: __ZN5Eigen8internal17resize_if_allowedINS_9TransposeINS_5ArrayIiLin1ELi1ELi0ELin1ELi1EEEEENS_5BlockINS3_IiLin1ELin1ELi0ELin1ELin1EEELi1ELin1ELb0EEEiiEEvRT_RKT0_RKNS0_9assign_opIT1_T2_EE, symObjAddr: 0x606C, symBinAddr: 0x1000097F0, symSize: 0xF8 }
  - { offsetInCU: 0x3675, offset: 0x3675, size: 0x8, addend: 0x0, symName: __ZN5Eigen8internal17get_runtime_valueIiEElRKT_, symObjAddr: 0x6A70, symBinAddr: 0x10000A1F4, symSize: 0x18 }
  - { offsetInCU: 0x36AA, offset: 0x36AA, size: 0x8, addend: 0x0, symName: __ZN5Eigen8internal15call_assignmentINS_5BlockINS2_INS_5ArrayIiLin1ELin1ELi0ELin1ELin1EEELi1ELin1ELb0EEELi1ELin1ELb0EEENS_14CwiseNullaryOpINS0_18scalar_constant_opIiEENS3_IiLi1ELin1ELi1ELi1ELin1EEEEEEEvRT_RKT0_, symObjAddr: 0x752C, symBinAddr: 0x10000ACB0, symSize: 0x50 }
  - { offsetInCU: 0x36F5, offset: 0x36F5, size: 0x8, addend: 0x0, symName: __ZN5Eigen8internal15call_assignmentINS_5BlockINS2_INS_5ArrayIiLin1ELin1ELi0ELin1ELin1EEELi1ELin1ELb0EEELi1ELin1ELb0EEENS_14CwiseNullaryOpINS0_18scalar_constant_opIiEENS3_IiLi1ELin1ELi1ELi1ELin1EEEEENS0_9assign_opIiiEEEEvRT_RKT0_RKT1_NS0_9enable_ifIXntsr25evaluator_assume_aliasingISG_EE5valueEPvE4typeE, symObjAddr: 0x757C, symBinAddr: 0x10000AD00, symSize: 0x38 }
  - { offsetInCU: 0x3763, offset: 0x3763, size: 0x8, addend: 0x0, symName: __ZN5Eigen8internal24call_assignment_no_aliasINS_5BlockINS2_INS_5ArrayIiLin1ELin1ELi0ELin1ELin1EEELi1ELin1ELb0EEELi1ELin1ELb0EEENS_14CwiseNullaryOpINS0_18scalar_constant_opIiEENS3_IiLi1ELin1ELi1ELi1ELin1EEEEENS0_9assign_opIiiEEEEvRT_RKT0_RKT1_, symObjAddr: 0x75B4, symBinAddr: 0x10000AD38, symSize: 0x3C }
  - { offsetInCU: 0x3831, offset: 0x3831, size: 0x8, addend: 0x0, symName: __ZN5Eigen8internal18check_for_aliasingINS_5BlockINS2_INS_5ArrayIiLin1ELin1ELi0ELin1ELin1EEELi1ELin1ELb0EEELi1ELin1ELb0EEENS_14CwiseNullaryOpINS0_18scalar_constant_opIiEENS3_IiLi1ELin1ELi1ELi1ELin1EEEEEEEvRKT_RKT0_, symObjAddr: 0x7630, symBinAddr: 0x10000ADB4, symSize: 0x14 }
  - { offsetInCU: 0x387C, offset: 0x387C, size: 0x8, addend: 0x0, symName: __ZN5Eigen8internal26call_dense_assignment_loopINS_5BlockINS2_INS_5ArrayIiLin1ELin1ELi0ELin1ELin1EEELi1ELin1ELb0EEELi1ELin1ELb0EEENS_14CwiseNullaryOpINS0_18scalar_constant_opIiEENS3_IiLi1ELin1ELi1ELi1ELin1EEEEENS0_9assign_opIiiEEEEvRT_RKT0_RKT1_, symObjAddr: 0x7644, symBinAddr: 0x10000ADC8, symSize: 0xE0 }
  - { offsetInCU: 0x3A84, offset: 0x3A84, size: 0x8, addend: 0x0, symName: __ZN5Eigen8internal17resize_if_allowedINS_5BlockINS2_INS_5ArrayIiLin1ELin1ELi0ELin1ELin1EEELi1ELin1ELb0EEELi1ELin1ELb0EEENS_14CwiseNullaryOpINS0_18scalar_constant_opIiEENS3_IiLi1ELin1ELi1ELi1ELin1EEEEEiiEEvRT_RKT0_RKNS0_9assign_opIT1_T2_EE, symObjAddr: 0x7758, symBinAddr: 0x10000AEDC, symSize: 0xF8 }
  - { offsetInCU: 0x3E42, offset: 0x3E42, size: 0x8, addend: 0x0, symName: __ZN5Eigen8internal12print_matrixINS_5ArrayIiLin1ELin1ELi0ELin1ELin1EEEEERNSt3__113basic_ostreamIcNS4_11char_traitsIcEEEES9_RKT_RKNS_8IOFormatE, symObjAddr: 0x9270, symBinAddr: 0x10000C9F4, symSize: 0x574 }
  - { offsetInCU: 0x40D1, offset: 0x40D1, size: 0x8, addend: 0x0, symName: __ZN5EigenL6lastp1E, symObjAddr: 0xC3B30, symBinAddr: 0x100014001, symSize: 0x0 }
  - { offsetInCU: 0x40EA, offset: 0x40EA, size: 0x8, addend: 0x0, symName: __ZN5EigenL3allE, symObjAddr: 0xC3B33, symBinAddr: 0x100014004, symSize: 0x0 }
  - { offsetInCU: 0x4103, offset: 0x4103, size: 0x8, addend: 0x0, symName: __ZN5EigenL3fixILi1EEE, symObjAddr: 0xC3B32, symBinAddr: 0x100014003, symSize: 0x0 }
  - { offsetInCU: 0x16298, offset: 0x16298, size: 0x8, addend: 0x0, symName: __ZN5EigenlsINS_5ArrayIiLin1ELin1ELi0ELin1ELin1EEEEERNSt3__113basic_ostreamIcNS3_11char_traitsIcEEEES8_RKNS_9DenseBaseIT_EE, symObjAddr: 0x12A0, symBinAddr: 0x100004A24, symSize: 0x208 }
  - { offsetInCU: 0x1DD5A, offset: 0x1DD5A, size: 0x8, addend: 0x0, symName: __ZNSt3__124__put_character_sequenceB8ue170006IcNS_11char_traitsIcEEEERNS_13basic_ostreamIT_T0_EES7_PKS4_m, symObjAddr: 0x87F8, symBinAddr: 0x10000BF7C, symSize: 0x1EC }
  - { offsetInCU: 0x1F8CC, offset: 0x1F8CC, size: 0x8, addend: 0x0, symName: __ZNSt3__13minB8ue170006IlEERKT_S3_S3_, symObjAddr: 0x300, symBinAddr: 0x100003A84, symSize: 0x2C }
  - { offsetInCU: 0x20120, offset: 0x20120, size: 0x8, addend: 0x0, symName: __ZNSt3__1lsB8ue170006INS_11char_traitsIcEEEERNS_13basic_ostreamIcT_EES6_PKc, symObjAddr: 0x14A8, symBinAddr: 0x100004C2C, symSize: 0x48 }
  - { offsetInCU: 0x20166, offset: 0x20166, size: 0x8, addend: 0x0, symName: __ZNSt3__14endlB8ue170006IcNS_11char_traitsIcEEEERNS_13basic_ostreamIT_T0_EES7_, symObjAddr: 0x151C, symBinAddr: 0x100004CA0, symSize: 0x58 }
  - { offsetInCU: 0x201B1, offset: 0x201B1, size: 0x8, addend: 0x0, symName: __ZNSt3__13minB8ue170006IlNS_6__lessIvvEEEERKT_S5_S5_T0_, symObjAddr: 0x176C, symBinAddr: 0x100004EF0, symSize: 0x54 }
  - { offsetInCU: 0x20281, offset: 0x20281, size: 0x8, addend: 0x0, symName: __ZNSt3__122__make_exception_guardB8ue170006INS_6vectorIiNS_9allocatorIiEEE16__destroy_vectorEEENS_28__exception_guard_exceptionsIT_EES7_, symObjAddr: 0x3960, symBinAddr: 0x1000070E4, symSize: 0x40 }
  - { offsetInCU: 0x202B6, offset: 0x202B6, size: 0x8, addend: 0x0, symName: __ZNSt3__119__allocate_at_leastB8ue170006INS_9allocatorIiEEEENS_19__allocation_resultINS_16allocator_traitsIT_E7pointerEEERS5_m, symObjAddr: 0x3D54, symBinAddr: 0x1000074D8, symSize: 0x40 }
  - { offsetInCU: 0x202F9, offset: 0x202F9, size: 0x8, addend: 0x0, symName: __ZNSt3__13minB8ue170006ImEERKT_S3_S3_, symObjAddr: 0x3E90, symBinAddr: 0x100007614, symSize: 0x2C }
  - { offsetInCU: 0x2053D, offset: 0x2053D, size: 0x8, addend: 0x0, symName: __ZNSt3__13minB8ue170006ImNS_6__lessIvvEEEERKT_S5_S5_T0_, symObjAddr: 0x3F1C, symBinAddr: 0x1000076A0, symSize: 0x54 }
  - { offsetInCU: 0x20598, offset: 0x20598, size: 0x8, addend: 0x0, symName: __ZNSt3__120__throw_length_errorB8ue170006EPKc, symObjAddr: 0x3FF8, symBinAddr: 0x10000777C, symSize: 0x64 }
  - { offsetInCU: 0x205C2, offset: 0x205C2, size: 0x8, addend: 0x0, symName: __ZNSt3__117__libcpp_allocateB8ue170006Emm, symObjAddr: 0x4168, symBinAddr: 0x1000078EC, symSize: 0x28 }
  - { offsetInCU: 0x205FF, offset: 0x205FF, size: 0x8, addend: 0x0, symName: __ZNSt3__121__libcpp_operator_newB8ue170006IJmEEEPvDpT_, symObjAddr: 0x4190, symBinAddr: 0x100007914, symSize: 0x24 }
  - { offsetInCU: 0x20638, offset: 0x20638, size: 0x8, addend: 0x0, symName: __ZNSt3__112__to_addressB8ue170006IiEEPT_S2_, symObjAddr: 0x42AC, symBinAddr: 0x100007A30, symSize: 0x14 }
  - { offsetInCU: 0x2066D, offset: 0x2066D, size: 0x8, addend: 0x0, symName: __ZNSt3__119__libcpp_deallocateB8ue170006EPvmm, symObjAddr: 0x4770, symBinAddr: 0x100007EF4, symSize: 0x30 }
  - { offsetInCU: 0x206B5, offset: 0x206B5, size: 0x8, addend: 0x0, symName: __ZNSt3__127__do_deallocate_handle_sizeB8ue170006IJEEEvPvmDpT_, symObjAddr: 0x47A0, symBinAddr: 0x100007F24, symSize: 0x28 }
  - { offsetInCU: 0x206F4, offset: 0x206F4, size: 0x8, addend: 0x0, symName: __ZNSt3__124__libcpp_operator_deleteB8ue170006IJPvEEEvDpT_, symObjAddr: 0x47C8, symBinAddr: 0x100007F4C, symSize: 0x24 }
  - { offsetInCU: 0x20876, offset: 0x20876, size: 0x8, addend: 0x0, symName: __ZNSt3__116__pad_and_outputB8ue170006IcNS_11char_traitsIcEEEENS_19ostreambuf_iteratorIT_T0_EES6_PKS4_S8_S8_RNS_8ios_baseES4_, symObjAddr: 0x8A34, symBinAddr: 0x10000C1B8, symSize: 0x240 }
  - { offsetInCU: 0x20945, offset: 0x20945, size: 0x8, addend: 0x0, symName: __ZNSt3__112__to_addressB8ue170006IKcEEPT_S3_, symObjAddr: 0x8F70, symBinAddr: 0x10000C6F4, symSize: 0x14 }
  - { offsetInCU: 0x209AD, offset: 0x209AD, size: 0x8, addend: 0x0, symName: __ZNSt3__19use_facetB8ue170006INS_5ctypeIcEEEERKT_RKNS_6localeE, symObjAddr: 0x91E8, symBinAddr: 0x10000C96C, symSize: 0x2C }
  - { offsetInCU: 0x20E7A, offset: 0x20E7A, size: 0x8, addend: 0x0, symName: __ZNSt3__118__constexpr_strlenB8ue170006EPKc, symObjAddr: 0x924C, symBinAddr: 0x10000C9D0, symSize: 0x24 }
  - { offsetInCU: 0x20EA6, offset: 0x20EA6, size: 0x8, addend: 0x0, symName: __ZNSt3__1lsB8ue170006IcNS_11char_traitsIcEENS_9allocatorIcEEEERNS_13basic_ostreamIT_T0_EES9_RKNS_12basic_stringIS6_S7_T1_EE, symObjAddr: 0x9934, symBinAddr: 0x10000D0B8, symSize: 0x4C }
  - { offsetInCU: 0x2183A, offset: 0x2183A, size: 0x8, addend: 0x0, symName: __ZNSt3__13maxB8ue170006IlEERKT_S3_S3_, symObjAddr: 0x9B1C, symBinAddr: 0x10000D2A0, symSize: 0x2C }
  - { offsetInCU: 0x21888, offset: 0x21888, size: 0x8, addend: 0x0, symName: __ZNSt3__13maxB8ue170006IlNS_6__lessIvvEEEERKT_S5_S5_T0_, symObjAddr: 0xA004, symBinAddr: 0x10000D788, symSize: 0x54 }
  - { offsetInCU: 0x21CA6, offset: 0x21CA6, size: 0x8, addend: 0x0, symName: __ZSt28__throw_bad_array_new_lengthB8ue170006v, symObjAddr: 0x4134, symBinAddr: 0x1000078B8, symSize: 0x34 }
  - { offsetInCU: 0x2625D, offset: 0x2625D, size: 0x8, addend: 0x0, symName: __ZN5Eigen8symbolic10SymbolExprINS_8internal17symbolic_last_tagEEC1Ev, symObjAddr: 0x0, symBinAddr: 0x100003784, symSize: 0x2C }
  - { offsetInCU: 0x26287, offset: 0x26287, size: 0x8, addend: 0x0, symName: __ZNK5Eigen8symbolic8BaseExprINS0_10SymbolExprINS_8internal17symbolic_last_tagEEEEplILi1EEENS0_7AddExprIS5_NS0_9ValueExprINS3_8FixedIntIXT_EEEEEEESB_, symObjAddr: 0x2C, symBinAddr: 0x1000037B0, symSize: 0x48 }
  - { offsetInCU: 0x262C2, offset: 0x262C2, size: 0x8, addend: 0x0, symName: __ZNK5Eigen8internal8FixedIntILi1EEclEv, symObjAddr: 0x74, symBinAddr: 0x1000037F8, symSize: 0x10 }
  - { offsetInCU: 0x262E8, offset: 0x262E8, size: 0x8, addend: 0x0, symName: __ZN5Eigen8internal5all_tC1Ev, symObjAddr: 0x84, symBinAddr: 0x100003808, symSize: 0x2C }
  - { offsetInCU: 0x26311, offset: 0x26311, size: 0x8, addend: 0x0, symName: __Z13findFirstZeroRKN5Eigen5ArrayIiLin1ELi1ELi0ELin1ELi1EEE, symObjAddr: 0xB0, symBinAddr: 0x100003834, symSize: 0x19C }
  - { offsetInCU: 0x263AE, offset: 0x263AE, size: 0x8, addend: 0x0, symName: __ZNK5Eigen9DenseBaseINS_5ArrayIiLin1ELi1ELi0ELin1ELi1EEEE3sumEv, symObjAddr: 0x24C, symBinAddr: 0x1000039D0, symSize: 0x70 }
  - { offsetInCU: 0x263D7, offset: 0x263D7, size: 0x8, addend: 0x0, symName: __ZNK5Eigen9EigenBaseINS_5ArrayIiLin1ELi1ELi0ELin1ELi1EEEE4sizeEv, symObjAddr: 0x2BC, symBinAddr: 0x100003A40, symSize: 0x44 }
  - { offsetInCU: 0x2640C, offset: 0x2640C, size: 0x8, addend: 0x0, symName: __ZNK5Eigen9DenseBaseINS_5ArrayIiLin1ELi1ELi0ELin1ELi1EEEE7segmentIlEEKNS3_27ConstFixedSegmentReturnTypeIXsr8internal15get_fixed_valueIT_EE5valueEE4TypeElS6_, symObjAddr: 0x32C, symBinAddr: 0x100003AB0, symSize: 0x64 }
  - { offsetInCU: 0x26459, offset: 0x26459, size: 0x8, addend: 0x0, symName: __ZNK5Eigen9DenseBaseINS_5BlockIKNS_5ArrayIiLin1ELi1ELi0ELin1ELi1EEELin1ELi1ELb0EEEE3sumEv, symObjAddr: 0x390, symBinAddr: 0x100003B14, symSize: 0x70 }
  - { offsetInCU: 0x26482, offset: 0x26482, size: 0x8, addend: 0x0, symName: __ZNK5Eigen15DenseCoeffsBaseINS_5ArrayIiLin1ELi1ELi0ELin1ELi1EEELi0EEixEl, symObjAddr: 0x400, symBinAddr: 0x100003B84, symSize: 0xA4 }
  - { offsetInCU: 0x264B5, offset: 0x264B5, size: 0x8, addend: 0x0, symName: __Z8ZeroRestRN5Eigen5ArrayIiLin1ELin1ELi0ELin1ELin1EEE, symObjAddr: 0x4A4, symBinAddr: 0x100003C28, symSize: 0x188 }
  - { offsetInCU: 0x26543, offset: 0x26543, size: 0x8, addend: 0x0, symName: __ZNK5Eigen15PlainObjectBaseINS_5ArrayIiLin1ELin1ELi0ELin1ELin1EEEE4rowsEv, symObjAddr: 0x62C, symBinAddr: 0x100003DB0, symSize: 0x24 }
  - { offsetInCU: 0x26569, offset: 0x26569, size: 0x8, addend: 0x0, symName: __ZNK5Eigen15PlainObjectBaseINS_5ArrayIiLin1ELin1ELi0ELin1ELin1EEEE4colsEv, symObjAddr: 0x650, symBinAddr: 0x100003DD4, symSize: 0x24 }
  - { offsetInCU: 0x2658F, offset: 0x2658F, size: 0x8, addend: 0x0, symName: __ZNSt3__16vectorIiNS_9allocatorIiEEEC1EmRKi, symObjAddr: 0x674, symBinAddr: 0x100003DF8, symSize: 0x3C }
  - { offsetInCU: 0x265D9, offset: 0x265D9, size: 0x8, addend: 0x0, symName: __ZNSt3__13mapIiNS_3setIiNS_4lessIiEENS_9allocatorIiEEEES3_NS4_INS_4pairIKiS6_EEEEEC1B8ue170006Ev, symObjAddr: 0x6B0, symBinAddr: 0x100003E34, symSize: 0x2C }
  - { offsetInCU: 0x26603, offset: 0x26603, size: 0x8, addend: 0x0, symName: __ZN5Eigen9DenseBaseINS_5ArrayIiLin1ELin1ELi0ELin1ELin1EEEE3rowEl, symObjAddr: 0x6DC, symBinAddr: 0x100003E60, symSize: 0x3C }
  - { offsetInCU: 0x2663D, offset: 0x2663D, size: 0x8, addend: 0x0, symName: __ZN5Eigen5ArrayIiLin1ELi1ELi0ELin1ELi1EEC1INS_5BlockINS0_IiLin1ELin1ELi0ELin1ELin1EEELi1ELin1ELb0EEEEERKNS_9EigenBaseIT_EENS_8internal9enable_ifIXsr8internal14is_convertibleINS7_6ScalarEiEE5valueENS1_11PrivateTypeEE4typeE, symObjAddr: 0x718, symBinAddr: 0x100003E9C, symSize: 0x34 }
  - { offsetInCU: 0x2668A, offset: 0x2668A, size: 0x8, addend: 0x0, symName: __ZN5Eigen5ArrayIiLin1ELi1ELi0ELin1ELi1EED1Ev, symObjAddr: 0x74C, symBinAddr: 0x100003ED0, symSize: 0x2C }
  - { offsetInCU: 0x266BB, offset: 0x266BB, size: 0x8, addend: 0x0, symName: __ZN5Eigen9DenseBaseINS_5BlockINS_5ArrayIiLin1ELin1ELi0ELin1ELin1EEELi1ELin1ELb0EEEE7segmentIiEENS5_22FixedSegmentReturnTypeIXsr8internal15get_fixed_valueIT_EE5valueEE4TypeElS8_, symObjAddr: 0x778, symBinAddr: 0x100003EFC, symSize: 0x64 }
  - { offsetInCU: 0x26708, offset: 0x26708, size: 0x8, addend: 0x0, symName: __ZN5Eigen9DenseBaseINS_5BlockINS1_INS_5ArrayIiLin1ELin1ELi0ELin1ELin1EEELi1ELin1ELb0EEELi1ELin1ELb0EEEE7setZeroEv, symObjAddr: 0x7DC, symBinAddr: 0x100003F60, symSize: 0x2C }
  - { offsetInCU: 0x26731, offset: 0x26731, size: 0x8, addend: 0x0, symName: __ZNSt3__13mapIiNS_3setIiNS_4lessIiEENS_9allocatorIiEEEES3_NS4_INS_4pairIKiS6_EEEEED1B8ue170006Ev, symObjAddr: 0x808, symBinAddr: 0x100003F8C, symSize: 0x2C }
  - { offsetInCU: 0x2675B, offset: 0x2675B, size: 0x8, addend: 0x0, symName: __ZNSt3__16vectorIiNS_9allocatorIiEEED1B8ue170006Ev, symObjAddr: 0x834, symBinAddr: 0x100003FB8, symSize: 0x2C }
  - { offsetInCU: 0x26785, offset: 0x26785, size: 0x8, addend: 0x0, symName: _main, symObjAddr: 0x860, symBinAddr: 0x100003FE4, symSize: 0x674 }
  - { offsetInCU: 0x2685A, offset: 0x2685A, size: 0x8, addend: 0x0, symName: __ZNSt3__114basic_ofstreamIcNS_11char_traitsIcEEEC1EPKcj, symObjAddr: 0xED4, symBinAddr: 0x100004658, symSize: 0x16C }
  - { offsetInCU: 0x268A4, offset: 0x268A4, size: 0x8, addend: 0x0, symName: __ZN5Eigen5ArrayIiLin1ELin1ELi0ELin1ELin1EEC1IiiEERKT_RKT0_, symObjAddr: 0x1040, symBinAddr: 0x1000047C4, symSize: 0x3C }
  - { offsetInCU: 0x268FC, offset: 0x268FC, size: 0x8, addend: 0x0, symName: __ZN5Eigen9DenseBaseINS_5ArrayIiLin1ELin1ELi0ELin1ELin1EEEElsERKi, symObjAddr: 0x107C, symBinAddr: 0x100004800, symSize: 0x40 }
  - { offsetInCU: 0x26933, offset: 0x26933, size: 0x8, addend: 0x0, symName: __ZN5Eigen16CommaInitializerINS_5ArrayIiLin1ELin1ELi0ELin1ELin1EEEEcmERKi, symObjAddr: 0x10BC, symBinAddr: 0x100004840, symSize: 0x1B8 }
  - { offsetInCU: 0x26967, offset: 0x26967, size: 0x8, addend: 0x0, symName: __ZN5Eigen16CommaInitializerINS_5ArrayIiLin1ELin1ELi0ELin1ELin1EEEED1Ev, symObjAddr: 0x1274, symBinAddr: 0x1000049F8, symSize: 0x2C }
  - { offsetInCU: 0x26991, offset: 0x26991, size: 0x8, addend: 0x0, symName: __ZNSt3__113basic_ostreamIcNS_11char_traitsIcEEElsB8ue170006EPFRS3_S4_E, symObjAddr: 0x14F0, symBinAddr: 0x100004C74, symSize: 0x2C }
  - { offsetInCU: 0x269C5, offset: 0x269C5, size: 0x8, addend: 0x0, symName: __ZNSt3__114basic_ofstreamIcNS_11char_traitsIcEEE5closeEv, symObjAddr: 0x1574, symBinAddr: 0x100004CF8, symSize: 0x58 }
  - { offsetInCU: 0x269ED, offset: 0x269ED, size: 0x8, addend: 0x0, symName: __ZN5Eigen5ArrayIiLin1ELin1ELi0ELin1ELin1EED1Ev, symObjAddr: 0x15CC, symBinAddr: 0x100004D50, symSize: 0x2C }
  - { offsetInCU: 0x26A1E, offset: 0x26A1E, size: 0x8, addend: 0x0, symName: __ZNSt3__114basic_ofstreamIcNS_11char_traitsIcEEED1Ev, symObjAddr: 0x15F8, symBinAddr: 0x100004D7C, symSize: 0x40 }
  - { offsetInCU: 0x26A4B, offset: 0x26A4B, size: 0x8, addend: 0x0, symName: __ZN5Eigen8internal8FixedIntILi1EEC1Ev, symObjAddr: 0x1638, symBinAddr: 0x100004DBC, symSize: 0x2C }
  - { offsetInCU: 0x26A75, offset: 0x26A75, size: 0x8, addend: 0x0, symName: __ZN5Eigen8internal5all_tC2Ev, symObjAddr: 0x1664, symBinAddr: 0x100004DE8, symSize: 0x14 }
  - { offsetInCU: 0x26A9F, offset: 0x26A9F, size: 0x8, addend: 0x0, symName: __ZNK5Eigen9EigenBaseINS_5ArrayIiLin1ELi1ELi0ELin1ELi1EEEE4rowsEv, symObjAddr: 0x1678, symBinAddr: 0x100004DFC, symSize: 0x38 }
  - { offsetInCU: 0x26AC5, offset: 0x26AC5, size: 0x8, addend: 0x0, symName: __ZNK5Eigen9EigenBaseINS_5ArrayIiLin1ELi1ELi0ELin1ELi1EEEE4colsEv, symObjAddr: 0x16B0, symBinAddr: 0x100004E34, symSize: 0x28 }
  - { offsetInCU: 0x26AEB, offset: 0x26AEB, size: 0x8, addend: 0x0, symName: __ZNK5Eigen9EigenBaseINS_5ArrayIiLin1ELi1ELi0ELin1ELi1EEEE7derivedEv, symObjAddr: 0x16D8, symBinAddr: 0x100004E5C, symSize: 0x14 }
  - { offsetInCU: 0x26B11, offset: 0x26B11, size: 0x8, addend: 0x0, symName: __ZNK5Eigen15PlainObjectBaseINS_5ArrayIiLin1ELi1ELi0ELin1ELi1EEEE4rowsEv, symObjAddr: 0x16F8, symBinAddr: 0x100004E7C, symSize: 0x24 }
  - { offsetInCU: 0x26B37, offset: 0x26B37, size: 0x8, addend: 0x0, symName: __ZNK5Eigen12DenseStorageIiLin1ELin1ELi1ELi0EE4rowsEv, symObjAddr: 0x171C, symBinAddr: 0x100004EA0, symSize: 0x18 }
  - { offsetInCU: 0x26B5D, offset: 0x26B5D, size: 0x8, addend: 0x0, symName: __ZNK5Eigen15PlainObjectBaseINS_5ArrayIiLin1ELi1ELi0ELin1ELi1EEEE4colsEv, symObjAddr: 0x1734, symBinAddr: 0x100004EB8, symSize: 0x30 }
  - { offsetInCU: 0x26B83, offset: 0x26B83, size: 0x8, addend: 0x0, symName: __ZN5Eigen12DenseStorageIiLin1ELin1ELi1ELi0EE4colsEv, symObjAddr: 0x1764, symBinAddr: 0x100004EE8, symSize: 0x8 }
  - { offsetInCU: 0x26BAB, offset: 0x26BAB, size: 0x8, addend: 0x0, symName: __ZNKSt3__16__lessIvvEclB8ue170006IllEEbRKT_RKT0_, symObjAddr: 0x17C0, symBinAddr: 0x100004F44, symSize: 0x34 }
  - { offsetInCU: 0x26BFF, offset: 0x26BFF, size: 0x8, addend: 0x0, symName: __ZNK5Eigen12DenseStorageIiLin1ELin1ELin1ELi0EE4rowsEv, symObjAddr: 0x17F4, symBinAddr: 0x100004F78, symSize: 0x18 }
  - { offsetInCU: 0x26C25, offset: 0x26C25, size: 0x8, addend: 0x0, symName: __ZNK5Eigen12DenseStorageIiLin1ELin1ELin1ELi0EE4colsEv, symObjAddr: 0x180C, symBinAddr: 0x100004F90, symSize: 0x18 }
  - { offsetInCU: 0x26C4B, offset: 0x26C4B, size: 0x8, addend: 0x0, symName: __ZN5Eigen5ArrayIiLin1ELi1ELi0ELin1ELi1EED2Ev, symObjAddr: 0x1824, symBinAddr: 0x100004FA8, symSize: 0x2C }
  - { offsetInCU: 0x26C77, offset: 0x26C77, size: 0x8, addend: 0x0, symName: __ZN5Eigen15PlainObjectBaseINS_5ArrayIiLin1ELi1ELi0ELin1ELi1EEEED2Ev, symObjAddr: 0x1850, symBinAddr: 0x100004FD4, symSize: 0x2C }
  - { offsetInCU: 0x26CA3, offset: 0x26CA3, size: 0x8, addend: 0x0, symName: __ZN5Eigen12DenseStorageIiLin1ELin1ELi1ELi0EED1Ev, symObjAddr: 0x187C, symBinAddr: 0x100005000, symSize: 0x2C }
  - { offsetInCU: 0x26CCD, offset: 0x26CCD, size: 0x8, addend: 0x0, symName: __ZN5Eigen12DenseStorageIiLin1ELin1ELi1ELi0EED2Ev, symObjAddr: 0x18A8, symBinAddr: 0x10000502C, symSize: 0x44 }
  - { offsetInCU: 0x26CF7, offset: 0x26CF7, size: 0x8, addend: 0x0, symName: __ZN5Eigen5ArrayIiLin1ELin1ELi0ELin1ELin1EED2Ev, symObjAddr: 0x195C, symBinAddr: 0x1000050E0, symSize: 0x2C }
  - { offsetInCU: 0x26D23, offset: 0x26D23, size: 0x8, addend: 0x0, symName: __ZN5Eigen15PlainObjectBaseINS_5ArrayIiLin1ELin1ELi0ELin1ELin1EEEED2Ev, symObjAddr: 0x1988, symBinAddr: 0x10000510C, symSize: 0x2C }
  - { offsetInCU: 0x26D4F, offset: 0x26D4F, size: 0x8, addend: 0x0, symName: __ZN5Eigen12DenseStorageIiLin1ELin1ELin1ELi0EED1Ev, symObjAddr: 0x19B4, symBinAddr: 0x100005138, symSize: 0x2C }
  - { offsetInCU: 0x26D79, offset: 0x26D79, size: 0x8, addend: 0x0, symName: __ZN5Eigen12DenseStorageIiLin1ELin1ELin1ELi0EED2Ev, symObjAddr: 0x19E0, symBinAddr: 0x100005164, symSize: 0x44 }
  - { offsetInCU: 0x26DA3, offset: 0x26DA3, size: 0x8, addend: 0x0, symName: __ZNSt3__114basic_ofstreamIcNS_11char_traitsIcEEED2Ev, symObjAddr: 0x1A24, symBinAddr: 0x1000051A8, symSize: 0x64 }
  - { offsetInCU: 0x26DDD, offset: 0x26DDD, size: 0x8, addend: 0x0, symName: __ZTv0_n24_NSt3__114basic_ofstreamIcNS_11char_traitsIcEEED1Ev, symObjAddr: 0x1A88, symBinAddr: 0x10000520C, symSize: 0x28 }
  - { offsetInCU: 0x26DF4, offset: 0x26DF4, size: 0x8, addend: 0x0, symName: __ZN5Eigen8symbolic10SymbolExprINS_8internal17symbolic_last_tagEEC2Ev, symObjAddr: 0x1AB0, symBinAddr: 0x100005234, symSize: 0x14 }
  - { offsetInCU: 0x26E1E, offset: 0x26E1E, size: 0x8, addend: 0x0, symName: __ZN5Eigen8internal8FixedIntILi1EEC2Ev, symObjAddr: 0x1AC4, symBinAddr: 0x100005248, symSize: 0x14 }
  - { offsetInCU: 0x26E48, offset: 0x26E48, size: 0x8, addend: 0x0, symName: __ZNK5Eigen8symbolic8BaseExprINS0_10SymbolExprINS_8internal17symbolic_last_tagEEEE7derivedEv, symObjAddr: 0x1AD8, symBinAddr: 0x10000525C, symSize: 0x14 }
  - { offsetInCU: 0x26E6E, offset: 0x26E6E, size: 0x8, addend: 0x0, symName: __ZN5Eigen8symbolic9ValueExprINS_8internal8FixedIntILi1EEEEC1Ev, symObjAddr: 0x1AEC, symBinAddr: 0x100005270, symSize: 0x2C }
  - { offsetInCU: 0x26E98, offset: 0x26E98, size: 0x8, addend: 0x0, symName: __ZN5Eigen8symbolic7AddExprINS0_10SymbolExprINS_8internal17symbolic_last_tagEEENS0_9ValueExprINS3_8FixedIntILi1EEEEEEC1ERKS5_RKS9_, symObjAddr: 0x1B18, symBinAddr: 0x10000529C, symSize: 0x3C }
  - { offsetInCU: 0x26EDE, offset: 0x26EDE, size: 0x8, addend: 0x0, symName: __ZN5Eigen8symbolic9ValueExprINS_8internal8FixedIntILi1EEEEC2Ev, symObjAddr: 0x1B54, symBinAddr: 0x1000052D8, symSize: 0x14 }
  - { offsetInCU: 0x26F08, offset: 0x26F08, size: 0x8, addend: 0x0, symName: __ZN5Eigen8symbolic7AddExprINS0_10SymbolExprINS_8internal17symbolic_last_tagEEENS0_9ValueExprINS3_8FixedIntILi1EEEEEEC2ERKS5_RKS9_, symObjAddr: 0x1B68, symBinAddr: 0x1000052EC, symSize: 0x1C }
  - { offsetInCU: 0x26F62, offset: 0x26F62, size: 0x8, addend: 0x0, symName: __ZNK5Eigen9DenseBaseINS_5ArrayIiLin1ELi1ELi0ELin1ELi1EEEE5reduxINS_8internal13scalar_sum_opIiiEEEEiRKT_, symObjAddr: 0x1B84, symBinAddr: 0x100005308, symSize: 0x10C }
  - { offsetInCU: 0x26FBE, offset: 0x26FBE, size: 0x8, addend: 0x0, symName: __ZN5Eigen8internal13scalar_sum_opIiiEC1Ev, symObjAddr: 0x1C90, symBinAddr: 0x100005414, symSize: 0x2C }
  - { offsetInCU: 0x27001, offset: 0x27001, size: 0x8, addend: 0x0, symName: __ZN5Eigen8internal15redux_evaluatorINS_5ArrayIiLin1ELi1ELi0ELin1ELi1EEEEC1ERKS3_, symObjAddr: 0x1CBC, symBinAddr: 0x100005440, symSize: 0x34 }
  - { offsetInCU: 0x2703F, offset: 0x2703F, size: 0x8, addend: 0x0, symName: __ZN5Eigen8internal10redux_implINS0_13scalar_sum_opIiiEENS0_15redux_evaluatorINS_5ArrayIiLin1ELi1ELi0ELin1ELi1EEEEELi3ELi0EE3runIS6_EEiRKS7_RKS3_RKT_, symObjAddr: 0x1CF0, symBinAddr: 0x100005474, symSize: 0x340 }
  - { offsetInCU: 0x271BB, offset: 0x271BB, size: 0x8, addend: 0x0, symName: __ZN5Eigen8internal15redux_evaluatorINS_5ArrayIiLin1ELi1ELi0ELin1ELi1EEEED1Ev, symObjAddr: 0x2030, symBinAddr: 0x1000057B4, symSize: 0x2C }
  - { offsetInCU: 0x271E8, offset: 0x271E8, size: 0x8, addend: 0x0, symName: __ZN5Eigen8internal15redux_evaluatorINS_5ArrayIiLin1ELi1ELi0ELin1ELi1EEEEC2ERKS3_, symObjAddr: 0x205C, symBinAddr: 0x1000057E0, symSize: 0x34 }
  - { offsetInCU: 0x27221, offset: 0x27221, size: 0x8, addend: 0x0, symName: __ZN5Eigen8internal9evaluatorINS_5ArrayIiLin1ELi1ELi0ELin1ELi1EEEEC2ERKS3_, symObjAddr: 0x2090, symBinAddr: 0x100005814, symSize: 0x34 }
  - { offsetInCU: 0x2725A, offset: 0x2725A, size: 0x8, addend: 0x0, symName: __ZN5Eigen8internal9evaluatorINS_15PlainObjectBaseINS_5ArrayIiLin1ELi1ELi0ELin1ELi1EEEEEEC2ERKS5_, symObjAddr: 0x20C4, symBinAddr: 0x100005848, symSize: 0x78 }
  - { offsetInCU: 0x27292, offset: 0x27292, size: 0x8, addend: 0x0, symName: __ZN5Eigen8internal14evaluator_baseINS_5ArrayIiLin1ELi1ELi0ELin1ELi1EEEEC2Ev, symObjAddr: 0x213C, symBinAddr: 0x1000058C0, symSize: 0x14 }
  - { offsetInCU: 0x272BC, offset: 0x272BC, size: 0x8, addend: 0x0, symName: __ZNK5Eigen15PlainObjectBaseINS_5ArrayIiLin1ELi1ELi0ELin1ELi1EEEE4dataEv, symObjAddr: 0x2150, symBinAddr: 0x1000058D4, symSize: 0x24 }
  - { offsetInCU: 0x272E2, offset: 0x272E2, size: 0x8, addend: 0x0, symName: __ZN5Eigen8internal30plainobjectbase_evaluator_dataIiLi0EEC1EPKil, symObjAddr: 0x2174, symBinAddr: 0x1000058F8, symSize: 0x3C }
  - { offsetInCU: 0x27328, offset: 0x27328, size: 0x8, addend: 0x0, symName: __ZN5Eigen8internal14evaluator_baseINS_5ArrayIiLin1ELi1ELi0ELin1ELi1EEEED2Ev, symObjAddr: 0x21B0, symBinAddr: 0x100005934, symSize: 0x14 }
  - { offsetInCU: 0x27352, offset: 0x27352, size: 0x8, addend: 0x0, symName: __ZNK5Eigen12DenseStorageIiLin1ELin1ELi1ELi0EE4dataEv, symObjAddr: 0x21C4, symBinAddr: 0x100005948, symSize: 0x18 }
  - { offsetInCU: 0x27378, offset: 0x27378, size: 0x8, addend: 0x0, symName: __ZN5Eigen8internal30plainobjectbase_evaluator_dataIiLi0EEC2EPKil, symObjAddr: 0x21DC, symBinAddr: 0x100005960, symSize: 0x40 }
  - { offsetInCU: 0x273D6, offset: 0x273D6, size: 0x8, addend: 0x0, symName: __ZNK5Eigen8internal9evaluatorINS_15PlainObjectBaseINS_5ArrayIiLin1ELi1ELi0ELin1ELi1EEEEEE6packetILi16E17__simd128_int32_tEET0_l, symObjAddr: 0x2250, symBinAddr: 0x1000059D4, symSize: 0x3C }
  - { offsetInCU: 0x27445, offset: 0x27445, size: 0x8, addend: 0x0, symName: __ZNK5Eigen8internal13scalar_sum_opIiiE8packetOpI17__simd128_int32_tEET_RKS5_S7_, symObjAddr: 0x228C, symBinAddr: 0x100005A10, symSize: 0x30 }
  - { offsetInCU: 0x27490, offset: 0x27490, size: 0x8, addend: 0x0, symName: __ZNK5Eigen8internal13scalar_sum_opIiiE6preduxI17__simd128_int32_tEEiRKT_, symObjAddr: 0x22BC, symBinAddr: 0x100005A40, symSize: 0x28 }
  - { offsetInCU: 0x274CD, offset: 0x274CD, size: 0x8, addend: 0x0, symName: __ZNK5Eigen8internal13scalar_sum_opIiiEclERKiS4_, symObjAddr: 0x22E4, symBinAddr: 0x100005A68, symSize: 0x2C }
  - { offsetInCU: 0x2750F, offset: 0x2750F, size: 0x8, addend: 0x0, symName: __ZNK5Eigen8internal9evaluatorINS_15PlainObjectBaseINS_5ArrayIiLin1ELi1ELi0ELin1ELi1EEEEEE5coeffEl, symObjAddr: 0x2310, symBinAddr: 0x100005A94, symSize: 0x24 }
  - { offsetInCU: 0x27543, offset: 0x27543, size: 0x8, addend: 0x0, symName: __ZN5Eigen8internal18first_aligned_implILi16ENS_5ArrayIiLin1ELi1ELi0ELin1ELi1EEELb1EE3runERKS3_, symObjAddr: 0x235C, symBinAddr: 0x100005AE0, symSize: 0x14 }
  - { offsetInCU: 0x27563, offset: 0x27563, size: 0x8, addend: 0x0, symName: __ZN5Eigen8internal15redux_evaluatorINS_5ArrayIiLin1ELi1ELi0ELin1ELi1EEEED2Ev, symObjAddr: 0x2484, symBinAddr: 0x100005C08, symSize: 0x2C }
  - { offsetInCU: 0x27590, offset: 0x27590, size: 0x8, addend: 0x0, symName: __ZN5Eigen8internal9evaluatorINS_5ArrayIiLin1ELi1ELi0ELin1ELi1EEEED2Ev, symObjAddr: 0x24B0, symBinAddr: 0x100005C34, symSize: 0x2C }
  - { offsetInCU: 0x275BD, offset: 0x275BD, size: 0x8, addend: 0x0, symName: __ZN5Eigen8internal9evaluatorINS_15PlainObjectBaseINS_5ArrayIiLin1ELi1ELi0ELin1ELi1EEEEEED2Ev, symObjAddr: 0x24DC, symBinAddr: 0x100005C60, symSize: 0x2C }
  - { offsetInCU: 0x275E9, offset: 0x275E9, size: 0x8, addend: 0x0, symName: __ZN5Eigen8internal13scalar_sum_opIiiEC2Ev, symObjAddr: 0x2508, symBinAddr: 0x100005C8C, symSize: 0x14 }
  - { offsetInCU: 0x27613, offset: 0x27613, size: 0x8, addend: 0x0, symName: __ZN5Eigen11VectorBlockIKNS_5ArrayIiLin1ELi1ELi0ELin1ELi1EEELin1EEC1ERS3_ll, symObjAddr: 0x2534, symBinAddr: 0x100005CB8, symSize: 0x44 }
  - { offsetInCU: 0x27667, offset: 0x27667, size: 0x8, addend: 0x0, symName: __ZN5Eigen11VectorBlockIKNS_5ArrayIiLin1ELi1ELi0ELin1ELi1EEELin1EEC2ERS3_ll, symObjAddr: 0x2578, symBinAddr: 0x100005CFC, symSize: 0x4C }
  - { offsetInCU: 0x276BB, offset: 0x276BB, size: 0x8, addend: 0x0, symName: __ZN5Eigen5BlockIKNS_5ArrayIiLin1ELi1ELi0ELin1ELi1EEELin1ELi1ELb0EEC2ERS3_llll, symObjAddr: 0x25C4, symBinAddr: 0x100005D48, symSize: 0x190 }
  - { offsetInCU: 0x2772B, offset: 0x2772B, size: 0x8, addend: 0x0, symName: __ZN5Eigen9BlockImplIKNS_5ArrayIiLin1ELi1ELi0ELin1ELi1EEELin1ELi1ELb0ENS_5DenseEEC2ERS3_llll, symObjAddr: 0x2754, symBinAddr: 0x100005ED8, symSize: 0x54 }
  - { offsetInCU: 0x2779B, offset: 0x2779B, size: 0x8, addend: 0x0, symName: __ZN5Eigen8internal15BlockImpl_denseIKNS_5ArrayIiLin1ELi1ELi0ELin1ELi1EEELin1ELi1ELb0ELb1EEC2ERS4_llll, symObjAddr: 0x27A8, symBinAddr: 0x100005F2C, symSize: 0xC4 }
  - { offsetInCU: 0x27810, offset: 0x27810, size: 0x8, addend: 0x0, symName: __ZNK5Eigen5ArrayIiLin1ELi1ELi0ELin1ELi1EE11innerStrideEv, symObjAddr: 0x286C, symBinAddr: 0x100005FF0, symSize: 0x14 }
  - { offsetInCU: 0x27836, offset: 0x27836, size: 0x8, addend: 0x0, symName: __ZNK5Eigen5ArrayIiLin1ELi1ELi0ELin1ELi1EE11outerStrideEv, symObjAddr: 0x2880, symBinAddr: 0x100006004, symSize: 0x34 }
  - { offsetInCU: 0x2785C, offset: 0x2785C, size: 0x8, addend: 0x0, symName: __ZN5Eigen7MapBaseINS_5BlockIKNS_5ArrayIiLin1ELi1ELi0ELin1ELi1EEELin1ELi1ELb0EEELi0EEC2EPKill, symObjAddr: 0x28B4, symBinAddr: 0x100006038, symSize: 0x11C }
  - { offsetInCU: 0x278B0, offset: 0x278B0, size: 0x8, addend: 0x0, symName: __ZN5Eigen8internal19variable_if_dynamicIlLin1EEC1El, symObjAddr: 0x29D0, symBinAddr: 0x100006154, symSize: 0x34 }
  - { offsetInCU: 0x278E8, offset: 0x278E8, size: 0x8, addend: 0x0, symName: __ZN5Eigen8internal19variable_if_dynamicIlLi0EEC1El, symObjAddr: 0x2A04, symBinAddr: 0x100006188, symSize: 0x34 }
  - { offsetInCU: 0x27920, offset: 0x27920, size: 0x8, addend: 0x0, symName: __ZN5Eigen8internal15BlockImpl_denseIKNS_5ArrayIiLin1ELi1ELi0ELin1ELi1EEELin1ELi1ELb0ELb1EE4initEv, symObjAddr: 0x2A38, symBinAddr: 0x1000061BC, symSize: 0x34 }
  - { offsetInCU: 0x27946, offset: 0x27946, size: 0x8, addend: 0x0, symName: __ZNK5Eigen9DenseBaseINS_5ArrayIiLin1ELi1ELi0ELin1ELi1EEEE9innerSizeEv, symObjAddr: 0x2A6C, symBinAddr: 0x1000061F0, symSize: 0x24 }
  - { offsetInCU: 0x2796C, offset: 0x2796C, size: 0x8, addend: 0x0, symName: __ZN5Eigen9ArrayBaseINS_5BlockIKNS_5ArrayIiLin1ELi1ELi0ELin1ELi1EEELin1ELi1ELb0EEEEC2Ev, symObjAddr: 0x2A90, symBinAddr: 0x100006214, symSize: 0x2C }
  - { offsetInCU: 0x27996, offset: 0x27996, size: 0x8, addend: 0x0, symName: __ZN5Eigen8internal19variable_if_dynamicIlLi1EEC1El, symObjAddr: 0x2ABC, symBinAddr: 0x100006240, symSize: 0x34 }
  - { offsetInCU: 0x279CE, offset: 0x279CE, size: 0x8, addend: 0x0, symName: __ZNK5Eigen7MapBaseINS_5BlockIKNS_5ArrayIiLin1ELi1ELi0ELin1ELi1EEELin1ELi1ELb0EEELi0EE11checkSanityIS5_EEvNS_8internal9enable_ifIXeqsr8internal6traitsIT_EE9AlignmentLi0EEPvE4typeE, symObjAddr: 0x2AF0, symBinAddr: 0x100006274, symSize: 0x14 }
  - { offsetInCU: 0x27A08, offset: 0x27A08, size: 0x8, addend: 0x0, symName: __ZN5Eigen9DenseBaseINS_5BlockIKNS_5ArrayIiLin1ELi1ELi0ELin1ELi1EEELin1ELi1ELb0EEEEC2Ev, symObjAddr: 0x2B04, symBinAddr: 0x100006288, symSize: 0x14 }
  - { offsetInCU: 0x27A32, offset: 0x27A32, size: 0x8, addend: 0x0, symName: __ZN5Eigen8internal19variable_if_dynamicIlLi1EEC2El, symObjAddr: 0x2B18, symBinAddr: 0x10000629C, symSize: 0x64 }
  - { offsetInCU: 0x27A6A, offset: 0x27A6A, size: 0x8, addend: 0x0, symName: __ZN5Eigen8internal19variable_if_dynamicIlLin1EEC2El, symObjAddr: 0x2B7C, symBinAddr: 0x100006300, symSize: 0x20 }
  - { offsetInCU: 0x27AA2, offset: 0x27AA2, size: 0x8, addend: 0x0, symName: __ZN5Eigen8internal19variable_if_dynamicIlLi0EEC2El, symObjAddr: 0x2B9C, symBinAddr: 0x100006320, symSize: 0x64 }
  - { offsetInCU: 0x27ADA, offset: 0x27ADA, size: 0x8, addend: 0x0, symName: __ZNK5Eigen9EigenBaseINS_5BlockIKNS_5ArrayIiLin1ELi1ELi0ELin1ELi1EEELin1ELi1ELb0EEEE4sizeEv, symObjAddr: 0x2C00, symBinAddr: 0x100006384, symSize: 0x44 }
  - { offsetInCU: 0x27B00, offset: 0x27B00, size: 0x8, addend: 0x0, symName: __ZNK5Eigen9EigenBaseINS_5BlockIKNS_5ArrayIiLin1ELi1ELi0ELin1ELi1EEELin1ELi1ELb0EEEE7derivedEv, symObjAddr: 0x2C44, symBinAddr: 0x1000063C8, symSize: 0x14 }
  - { offsetInCU: 0x27B26, offset: 0x27B26, size: 0x8, addend: 0x0, symName: __ZNK5Eigen9DenseBaseINS_5BlockIKNS_5ArrayIiLin1ELi1ELi0ELin1ELi1EEELin1ELi1ELb0EEEE5reduxINS_8internal13scalar_sum_opIiiEEEEiRKT_, symObjAddr: 0x2C58, symBinAddr: 0x1000063DC, symSize: 0x10C }
  - { offsetInCU: 0x27B82, offset: 0x27B82, size: 0x8, addend: 0x0, symName: __ZNK5Eigen9EigenBaseINS_5BlockIKNS_5ArrayIiLin1ELi1ELi0ELin1ELi1EEELin1ELi1ELb0EEEE4rowsEv, symObjAddr: 0x2D64, symBinAddr: 0x1000064E8, symSize: 0x38 }
  - { offsetInCU: 0x27BA8, offset: 0x27BA8, size: 0x8, addend: 0x0, symName: __ZNK5Eigen9EigenBaseINS_5BlockIKNS_5ArrayIiLin1ELi1ELi0ELin1ELi1EEELin1ELi1ELb0EEEE4colsEv, symObjAddr: 0x2D9C, symBinAddr: 0x100006520, symSize: 0x38 }
  - { offsetInCU: 0x27BCE, offset: 0x27BCE, size: 0x8, addend: 0x0, symName: __ZNK5Eigen7MapBaseINS_5BlockIKNS_5ArrayIiLin1ELi1ELi0ELin1ELi1EEELin1ELi1ELb0EEELi0EE4rowsEv, symObjAddr: 0x2DD4, symBinAddr: 0x100006558, symSize: 0x38 }
  - { offsetInCU: 0x27BF4, offset: 0x27BF4, size: 0x8, addend: 0x0, symName: __ZNK5Eigen8internal19variable_if_dynamicIlLin1EE5valueEv, symObjAddr: 0x2E0C, symBinAddr: 0x100006590, symSize: 0x18 }
  - { offsetInCU: 0x27C1A, offset: 0x27C1A, size: 0x8, addend: 0x0, symName: __ZNK5Eigen7MapBaseINS_5BlockIKNS_5ArrayIiLin1ELi1ELi0ELin1ELi1EEELin1ELi1ELb0EEELi0EE4colsEv, symObjAddr: 0x2E24, symBinAddr: 0x1000065A8, symSize: 0x30 }
  - { offsetInCU: 0x27C40, offset: 0x27C40, size: 0x8, addend: 0x0, symName: __ZN5Eigen8internal19variable_if_dynamicIlLi1EE5valueEv, symObjAddr: 0x2E54, symBinAddr: 0x1000065D8, symSize: 0x8 }
  - { offsetInCU: 0x27C8B, offset: 0x27C8B, size: 0x8, addend: 0x0, symName: __ZN5Eigen8internal15redux_evaluatorINS_5BlockIKNS_5ArrayIiLin1ELi1ELi0ELin1ELi1EEELin1ELi1ELb0EEEEC1ERKS6_, symObjAddr: 0x2E5C, symBinAddr: 0x1000065E0, symSize: 0x34 }
  - { offsetInCU: 0x27CC9, offset: 0x27CC9, size: 0x8, addend: 0x0, symName: __ZN5Eigen8internal10redux_implINS0_13scalar_sum_opIiiEENS0_15redux_evaluatorINS_5BlockIKNS_5ArrayIiLin1ELi1ELi0ELin1ELi1EEELin1ELi1ELb0EEEEELi3ELi0EE3runIS9_EEiRKSA_RKS3_RKT_, symObjAddr: 0x2E90, symBinAddr: 0x100006614, symSize: 0x3B0 }
  - { offsetInCU: 0x27E46, offset: 0x27E46, size: 0x8, addend: 0x0, symName: __ZN5Eigen8internal15redux_evaluatorINS_5BlockIKNS_5ArrayIiLin1ELi1ELi0ELin1ELi1EEELin1ELi1ELb0EEEED1Ev, symObjAddr: 0x3240, symBinAddr: 0x1000069C4, symSize: 0x2C }
  - { offsetInCU: 0x27E73, offset: 0x27E73, size: 0x8, addend: 0x0, symName: __ZN5Eigen8internal15redux_evaluatorINS_5BlockIKNS_5ArrayIiLin1ELi1ELi0ELin1ELi1EEELin1ELi1ELb0EEEEC2ERKS6_, symObjAddr: 0x326C, symBinAddr: 0x1000069F0, symSize: 0x34 }
  - { offsetInCU: 0x27EAC, offset: 0x27EAC, size: 0x8, addend: 0x0, symName: __ZN5Eigen8internal9evaluatorINS_5BlockIKNS_5ArrayIiLin1ELi1ELi0ELin1ELi1EEELin1ELi1ELb0EEEEC2ERKS6_, symObjAddr: 0x32A0, symBinAddr: 0x100006A24, symSize: 0x34 }
  - { offsetInCU: 0x27EE5, offset: 0x27EE5, size: 0x8, addend: 0x0, symName: __ZN5Eigen8internal15block_evaluatorIKNS_5ArrayIiLin1ELi1ELi0ELin1ELi1EEELin1ELi1ELb0ELb1EEC2ERKNS_5BlockIS4_Lin1ELi1ELb0EEE, symObjAddr: 0x32D4, symBinAddr: 0x100006A58, symSize: 0xDC }
  - { offsetInCU: 0x27F1E, offset: 0x27F1E, size: 0x8, addend: 0x0, symName: __ZN5Eigen8internal17mapbase_evaluatorINS_5BlockIKNS_5ArrayIiLin1ELi1ELi0ELin1ELi1EEELin1ELi1ELb0EEES4_EC2ERKS6_, symObjAddr: 0x33B0, symBinAddr: 0x100006B34, symSize: 0xB0 }
  - { offsetInCU: 0x27F57, offset: 0x27F57, size: 0x8, addend: 0x0, symName: __ZNK5Eigen7MapBaseINS_5BlockIKNS_5ArrayIiLin1ELi1ELi0ELin1ELi1EEELin1ELi1ELb0EEELi0EE4dataEv, symObjAddr: 0x3460, symBinAddr: 0x100006BE4, symSize: 0x18 }
  - { offsetInCU: 0x27F7D, offset: 0x27F7D, size: 0x8, addend: 0x0, symName: __ZN5Eigen8internal17mapbase_evaluatorINS_5BlockIKNS_5ArrayIiLin1ELi1ELi0ELin1ELi1EEELin1ELi1ELb0EEES4_ED2Ev, symObjAddr: 0x3478, symBinAddr: 0x100006BFC, symSize: 0x2C }
  - { offsetInCU: 0x27FAA, offset: 0x27FAA, size: 0x8, addend: 0x0, symName: __ZN5Eigen8internal14evaluator_baseINS_5BlockIKNS_5ArrayIiLin1ELi1ELi0ELin1ELi1EEELin1ELi1ELb0EEEEC2Ev, symObjAddr: 0x34A4, symBinAddr: 0x100006C28, symSize: 0x14 }
  - { offsetInCU: 0x27FD4, offset: 0x27FD4, size: 0x8, addend: 0x0, symName: __ZNK5Eigen8internal15BlockImpl_denseIKNS_5ArrayIiLin1ELi1ELi0ELin1ELi1EEELin1ELi1ELb0ELb1EE11innerStrideEv, symObjAddr: 0x34B8, symBinAddr: 0x100006C3C, symSize: 0x28 }
  - { offsetInCU: 0x27FFA, offset: 0x27FFA, size: 0x8, addend: 0x0, symName: __ZNK5Eigen8internal15BlockImpl_denseIKNS_5ArrayIiLin1ELi1ELi0ELin1ELi1EEELin1ELi1ELb0ELb1EE11outerStrideEv, symObjAddr: 0x34E0, symBinAddr: 0x100006C64, symSize: 0x28 }
  - { offsetInCU: 0x28020, offset: 0x28020, size: 0x8, addend: 0x0, symName: __ZN5Eigen8internal14evaluator_baseINS_5BlockIKNS_5ArrayIiLin1ELi1ELi0ELin1ELi1EEELin1ELi1ELb0EEEED2Ev, symObjAddr: 0x3508, symBinAddr: 0x100006C8C, symSize: 0x14 }
  - { offsetInCU: 0x2804A, offset: 0x2804A, size: 0x8, addend: 0x0, symName: __ZNK5Eigen8internal17mapbase_evaluatorINS_5BlockIKNS_5ArrayIiLin1ELi1ELi0ELin1ELi1EEELin1ELi1ELb0EEES4_E6packetILi0E17__simd128_int32_tEET0_l, symObjAddr: 0x3540, symBinAddr: 0x100006CC4, symSize: 0x54 }
  - { offsetInCU: 0x280B0, offset: 0x280B0, size: 0x8, addend: 0x0, symName: __ZNK5Eigen8internal17mapbase_evaluatorINS_5BlockIKNS_5ArrayIiLin1ELi1ELi0ELin1ELi1EEELin1ELi1ELb0EEES4_E5coeffEl, symObjAddr: 0x3594, symBinAddr: 0x100006D18, symSize: 0x48 }
  - { offsetInCU: 0x280E5, offset: 0x280E5, size: 0x8, addend: 0x0, symName: __ZN5Eigen8internal18first_aligned_implILi16ENS_5BlockIKNS_5ArrayIiLin1ELi1ELi0ELin1ELi1EEELin1ELi1ELb0EEELb0EE3runERKS6_, symObjAddr: 0x3604, symBinAddr: 0x100006D88, symSize: 0x3C }
  - { offsetInCU: 0x28109, offset: 0x28109, size: 0x8, addend: 0x0, symName: __ZN5Eigen8internal15redux_evaluatorINS_5BlockIKNS_5ArrayIiLin1ELi1ELi0ELin1ELi1EEELin1ELi1ELb0EEEED2Ev, symObjAddr: 0x370C, symBinAddr: 0x100006E90, symSize: 0x2C }
  - { offsetInCU: 0x28136, offset: 0x28136, size: 0x8, addend: 0x0, symName: __ZN5Eigen8internal9evaluatorINS_5BlockIKNS_5ArrayIiLin1ELi1ELi0ELin1ELi1EEELin1ELi1ELb0EEEED2Ev, symObjAddr: 0x3738, symBinAddr: 0x100006EBC, symSize: 0x2C }
  - { offsetInCU: 0x28163, offset: 0x28163, size: 0x8, addend: 0x0, symName: __ZN5Eigen8internal15block_evaluatorIKNS_5ArrayIiLin1ELi1ELi0ELin1ELi1EEELin1ELi1ELb0ELb1EED2Ev, symObjAddr: 0x3764, symBinAddr: 0x100006EE8, symSize: 0x2C }
  - { offsetInCU: 0x28190, offset: 0x28190, size: 0x8, addend: 0x0, symName: __ZNK5Eigen15DenseCoeffsBaseINS_5ArrayIiLin1ELi1ELi0ELin1ELi1EEELi0EE5coeffEl, symObjAddr: 0x3790, symBinAddr: 0x100006F14, symSize: 0x58 }
  - { offsetInCU: 0x281C4, offset: 0x281C4, size: 0x8, addend: 0x0, symName: __ZN5Eigen8internal9evaluatorINS_5ArrayIiLin1ELi1ELi0ELin1ELi1EEEEC1ERKS3_, symObjAddr: 0x37E8, symBinAddr: 0x100006F6C, symSize: 0x34 }
  - { offsetInCU: 0x281FD, offset: 0x281FD, size: 0x8, addend: 0x0, symName: __ZN5Eigen8internal9evaluatorINS_5ArrayIiLin1ELi1ELi0ELin1ELi1EEEED1Ev, symObjAddr: 0x381C, symBinAddr: 0x100006FA0, symSize: 0x2C }
  - { offsetInCU: 0x2822A, offset: 0x2822A, size: 0x8, addend: 0x0, symName: __ZNSt3__16vectorIiNS_9allocatorIiEEEC2EmRKi, symObjAddr: 0x3848, symBinAddr: 0x100006FCC, symSize: 0xDC }
  - { offsetInCU: 0x28295, offset: 0x28295, size: 0x8, addend: 0x0, symName: __ZNSt3__117__compressed_pairIPiNS_9allocatorIiEEEC1B8ue170006IDnNS_18__default_init_tagEEEOT_OT0_, symObjAddr: 0x3924, symBinAddr: 0x1000070A8, symSize: 0x3C }
  - { offsetInCU: 0x282ED, offset: 0x282ED, size: 0x8, addend: 0x0, symName: __ZNSt3__16vectorIiNS_9allocatorIiEEE16__destroy_vectorC1B8ue170006ERS3_, symObjAddr: 0x39A0, symBinAddr: 0x100007124, symSize: 0x34 }
  - { offsetInCU: 0x28326, offset: 0x28326, size: 0x8, addend: 0x0, symName: __ZNSt3__16vectorIiNS_9allocatorIiEEE11__vallocateB8ue170006Em, symObjAddr: 0x39D4, symBinAddr: 0x100007158, symSize: 0xAC }
  - { offsetInCU: 0x2836A, offset: 0x2836A, size: 0x8, addend: 0x0, symName: __ZNSt3__16vectorIiNS_9allocatorIiEEE18__construct_at_endEmRKi, symObjAddr: 0x3A80, symBinAddr: 0x100007204, symSize: 0xD0 }
  - { offsetInCU: 0x283EB, offset: 0x283EB, size: 0x8, addend: 0x0, symName: __ZNSt3__128__exception_guard_exceptionsINS_6vectorIiNS_9allocatorIiEEE16__destroy_vectorEE10__completeB8ue170006Ev, symObjAddr: 0x3B50, symBinAddr: 0x1000072D4, symSize: 0x1C }
  - { offsetInCU: 0x28411, offset: 0x28411, size: 0x8, addend: 0x0, symName: __ZNSt3__128__exception_guard_exceptionsINS_6vectorIiNS_9allocatorIiEEE16__destroy_vectorEED1B8ue170006Ev, symObjAddr: 0x3B6C, symBinAddr: 0x1000072F0, symSize: 0x2C }
  - { offsetInCU: 0x2843B, offset: 0x2843B, size: 0x8, addend: 0x0, symName: __ZNSt3__117__compressed_pairIPiNS_9allocatorIiEEEC2B8ue170006IDnNS_18__default_init_tagEEEOT_OT0_, symObjAddr: 0x3B98, symBinAddr: 0x10000731C, symSize: 0x40 }
  - { offsetInCU: 0x28493, offset: 0x28493, size: 0x8, addend: 0x0, symName: __ZNSt3__122__compressed_pair_elemIPiLi0ELb0EEC2B8ue170006IDnvEEOT_, symObjAddr: 0x3BD8, symBinAddr: 0x10000735C, symSize: 0x1C }
  - { offsetInCU: 0x284D5, offset: 0x284D5, size: 0x8, addend: 0x0, symName: __ZNSt3__122__compressed_pair_elemINS_9allocatorIiEELi1ELb1EEC2B8ue170006ENS_18__default_init_tagE, symObjAddr: 0x3BF4, symBinAddr: 0x100007378, symSize: 0x2C }
  - { offsetInCU: 0x2850A, offset: 0x2850A, size: 0x8, addend: 0x0, symName: __ZNSt3__19allocatorIiEC2B8ue170006Ev, symObjAddr: 0x3C20, symBinAddr: 0x1000073A4, symSize: 0x2C }
  - { offsetInCU: 0x28534, offset: 0x28534, size: 0x8, addend: 0x0, symName: __ZNSt3__116__non_trivial_ifILb1ENS_9allocatorIiEEEC2B8ue170006Ev, symObjAddr: 0x3C4C, symBinAddr: 0x1000073D0, symSize: 0x14 }
  - { offsetInCU: 0x2855E, offset: 0x2855E, size: 0x8, addend: 0x0, symName: __ZNSt3__128__exception_guard_exceptionsINS_6vectorIiNS_9allocatorIiEEE16__destroy_vectorEEC1B8ue170006ES5_, symObjAddr: 0x3C60, symBinAddr: 0x1000073E4, symSize: 0x34 }
  - { offsetInCU: 0x28596, offset: 0x28596, size: 0x8, addend: 0x0, symName: __ZNSt3__128__exception_guard_exceptionsINS_6vectorIiNS_9allocatorIiEEE16__destroy_vectorEEC2B8ue170006ES5_, symObjAddr: 0x3C94, symBinAddr: 0x100007418, symSize: 0x24 }
  - { offsetInCU: 0x285CE, offset: 0x285CE, size: 0x8, addend: 0x0, symName: __ZNSt3__16vectorIiNS_9allocatorIiEEE16__destroy_vectorC2B8ue170006ERS3_, symObjAddr: 0x3CB8, symBinAddr: 0x10000743C, symSize: 0x20 }
  - { offsetInCU: 0x28607, offset: 0x28607, size: 0x8, addend: 0x0, symName: __ZNKSt3__16vectorIiNS_9allocatorIiEEE8max_sizeEv, symObjAddr: 0x3CD8, symBinAddr: 0x10000745C, symSize: 0x60 }
  - { offsetInCU: 0x2862F, offset: 0x2862F, size: 0x8, addend: 0x0, symName: __ZNKSt3__16vectorIiNS_9allocatorIiEEE20__throw_length_errorB8ue170006Ev, symObjAddr: 0x3D38, symBinAddr: 0x1000074BC, symSize: 0x1C }
  - { offsetInCU: 0x28655, offset: 0x28655, size: 0x8, addend: 0x0, symName: __ZNSt3__16vectorIiNS_9allocatorIiEEE7__allocB8ue170006Ev, symObjAddr: 0x3D94, symBinAddr: 0x100007518, symSize: 0x28 }
  - { offsetInCU: 0x2867B, offset: 0x2867B, size: 0x8, addend: 0x0, symName: __ZNSt3__16vectorIiNS_9allocatorIiEEE9__end_capB8ue170006Ev, symObjAddr: 0x3DBC, symBinAddr: 0x100007540, symSize: 0x28 }
  - { offsetInCU: 0x286A1, offset: 0x286A1, size: 0x8, addend: 0x0, symName: __ZNKSt3__16vectorIiNS_9allocatorIiEEE14__annotate_newB8ue170006Em, symObjAddr: 0x3DE4, symBinAddr: 0x100007568, symSize: 0xAC }
  - { offsetInCU: 0x286E0, offset: 0x286E0, size: 0x8, addend: 0x0, symName: __ZNSt3__116allocator_traitsINS_9allocatorIiEEE8max_sizeB8ue170006IS2_vEEmRKS2_, symObjAddr: 0x3EBC, symBinAddr: 0x100007640, symSize: 0x24 }
  - { offsetInCU: 0x2870E, offset: 0x2870E, size: 0x8, addend: 0x0, symName: __ZNKSt3__16vectorIiNS_9allocatorIiEEE7__allocB8ue170006Ev, symObjAddr: 0x3EE0, symBinAddr: 0x100007664, symSize: 0x28 }
  - { offsetInCU: 0x28734, offset: 0x28734, size: 0x8, addend: 0x0, symName: __ZNSt3__114numeric_limitsIlE3maxB8ue170006Ev, symObjAddr: 0x3F08, symBinAddr: 0x10000768C, symSize: 0x14 }
  - { offsetInCU: 0x28748, offset: 0x28748, size: 0x8, addend: 0x0, symName: __ZNKSt3__16__lessIvvEclB8ue170006ImmEEbRKT_RKT0_, symObjAddr: 0x3F70, symBinAddr: 0x1000076F4, symSize: 0x34 }
  - { offsetInCU: 0x2879C, offset: 0x2879C, size: 0x8, addend: 0x0, symName: __ZNKSt3__19allocatorIiE8max_sizeB8ue170006Ev, symObjAddr: 0x3FA4, symBinAddr: 0x100007728, symSize: 0x14 }
  - { offsetInCU: 0x287C2, offset: 0x287C2, size: 0x8, addend: 0x0, symName: __ZNKSt3__117__compressed_pairIPiNS_9allocatorIiEEE6secondB8ue170006Ev, symObjAddr: 0x3FB8, symBinAddr: 0x10000773C, symSize: 0x24 }
  - { offsetInCU: 0x287E8, offset: 0x287E8, size: 0x8, addend: 0x0, symName: __ZNKSt3__122__compressed_pair_elemINS_9allocatorIiEELi1ELb1EE5__getB8ue170006Ev, symObjAddr: 0x3FDC, symBinAddr: 0x100007760, symSize: 0x14 }
  - { offsetInCU: 0x2880E, offset: 0x2880E, size: 0x8, addend: 0x0, symName: __ZNSt3__123__libcpp_numeric_limitsIlLb1EE3maxB8ue170006Ev, symObjAddr: 0x3FF0, symBinAddr: 0x100007774, symSize: 0x8 }
  - { offsetInCU: 0x28822, offset: 0x28822, size: 0x8, addend: 0x0, symName: __ZNSt12length_errorC1B8ue170006EPKc, symObjAddr: 0x405C, symBinAddr: 0x1000077E0, symSize: 0x34 }
  - { offsetInCU: 0x2885A, offset: 0x2885A, size: 0x8, addend: 0x0, symName: __ZNSt12length_errorC2B8ue170006EPKc, symObjAddr: 0x4090, symBinAddr: 0x100007814, symSize: 0x4C }
  - { offsetInCU: 0x28892, offset: 0x28892, size: 0x8, addend: 0x0, symName: __ZNSt3__19allocatorIiE8allocateB8ue170006Em, symObjAddr: 0x40DC, symBinAddr: 0x100007860, symSize: 0x58 }
  - { offsetInCU: 0x288C6, offset: 0x288C6, size: 0x8, addend: 0x0, symName: __ZNSt3__117__compressed_pairIPiNS_9allocatorIiEEE6secondB8ue170006Ev, symObjAddr: 0x41B4, symBinAddr: 0x100007938, symSize: 0x24 }
  - { offsetInCU: 0x288EC, offset: 0x288EC, size: 0x8, addend: 0x0, symName: __ZNSt3__122__compressed_pair_elemINS_9allocatorIiEELi1ELb1EE5__getB8ue170006Ev, symObjAddr: 0x41D8, symBinAddr: 0x10000795C, symSize: 0x14 }
  - { offsetInCU: 0x28912, offset: 0x28912, size: 0x8, addend: 0x0, symName: __ZNSt3__117__compressed_pairIPiNS_9allocatorIiEEE5firstB8ue170006Ev, symObjAddr: 0x41EC, symBinAddr: 0x100007970, symSize: 0x24 }
  - { offsetInCU: 0x28938, offset: 0x28938, size: 0x8, addend: 0x0, symName: __ZNSt3__122__compressed_pair_elemIPiLi0ELb0EE5__getB8ue170006Ev, symObjAddr: 0x4210, symBinAddr: 0x100007994, symSize: 0x14 }
  - { offsetInCU: 0x2895E, offset: 0x2895E, size: 0x8, addend: 0x0, symName: __ZNKSt3__16vectorIiNS_9allocatorIiEEE31__annotate_contiguous_containerB8ue170006EPKvS5_S5_S5_, symObjAddr: 0x4224, symBinAddr: 0x1000079A8, symSize: 0x20 }
  - { offsetInCU: 0x289B0, offset: 0x289B0, size: 0x8, addend: 0x0, symName: __ZNKSt3__16vectorIiNS_9allocatorIiEEE4dataB8ue170006Ev, symObjAddr: 0x4244, symBinAddr: 0x1000079C8, symSize: 0x28 }
  - { offsetInCU: 0x289D6, offset: 0x289D6, size: 0x8, addend: 0x0, symName: __ZNKSt3__16vectorIiNS_9allocatorIiEEE8capacityB8ue170006Ev, symObjAddr: 0x426C, symBinAddr: 0x1000079F0, symSize: 0x40 }
  - { offsetInCU: 0x289FC, offset: 0x289FC, size: 0x8, addend: 0x0, symName: __ZNKSt3__16vectorIiNS_9allocatorIiEEE9__end_capB8ue170006Ev, symObjAddr: 0x42C0, symBinAddr: 0x100007A44, symSize: 0x28 }
  - { offsetInCU: 0x28A22, offset: 0x28A22, size: 0x8, addend: 0x0, symName: __ZNKSt3__117__compressed_pairIPiNS_9allocatorIiEEE5firstB8ue170006Ev, symObjAddr: 0x42E8, symBinAddr: 0x100007A6C, symSize: 0x24 }
  - { offsetInCU: 0x28A48, offset: 0x28A48, size: 0x8, addend: 0x0, symName: __ZNKSt3__122__compressed_pair_elemIPiLi0ELb0EE5__getB8ue170006Ev, symObjAddr: 0x430C, symBinAddr: 0x100007A90, symSize: 0x14 }
  - { offsetInCU: 0x28A87, offset: 0x28A87, size: 0x8, addend: 0x0, symName: __ZNSt3__16vectorIiNS_9allocatorIiEEE21_ConstructTransactionC1B8ue170006ERS3_m, symObjAddr: 0x4320, symBinAddr: 0x100007AA4, symSize: 0x3C }
  - { offsetInCU: 0x28ACF, offset: 0x28ACF, size: 0x8, addend: 0x0, symName: __ZNSt3__116allocator_traitsINS_9allocatorIiEEE9constructB8ue170006IiJRKiEvEEvRS2_PT_DpOT0_, symObjAddr: 0x435C, symBinAddr: 0x100007AE0, symSize: 0x34 }
  - { offsetInCU: 0x28B26, offset: 0x28B26, size: 0x8, addend: 0x0, symName: __ZNSt3__16vectorIiNS_9allocatorIiEEE21_ConstructTransactionD1B8ue170006Ev, symObjAddr: 0x4390, symBinAddr: 0x100007B14, symSize: 0x2C }
  - { offsetInCU: 0x28B50, offset: 0x28B50, size: 0x8, addend: 0x0, symName: __ZNSt3__16vectorIiNS_9allocatorIiEEE21_ConstructTransactionC2B8ue170006ERS3_m, symObjAddr: 0x43BC, symBinAddr: 0x100007B40, symSize: 0x44 }
  - { offsetInCU: 0x28B98, offset: 0x28B98, size: 0x8, addend: 0x0, symName: __ZNSt3__19allocatorIiE9constructB8ue170006IiJRKiEEEvPT_DpOT0_, symObjAddr: 0x4400, symBinAddr: 0x100007B84, symSize: 0x28 }
  - { offsetInCU: 0x28BEE, offset: 0x28BEE, size: 0x8, addend: 0x0, symName: __ZNSt3__16vectorIiNS_9allocatorIiEEE21_ConstructTransactionD2B8ue170006Ev, symObjAddr: 0x4428, symBinAddr: 0x100007BAC, symSize: 0x20 }
  - { offsetInCU: 0x28C18, offset: 0x28C18, size: 0x8, addend: 0x0, symName: __ZNSt3__128__exception_guard_exceptionsINS_6vectorIiNS_9allocatorIiEEE16__destroy_vectorEED2B8ue170006Ev, symObjAddr: 0x4448, symBinAddr: 0x100007BCC, symSize: 0x50 }
  - { offsetInCU: 0x28C42, offset: 0x28C42, size: 0x8, addend: 0x0, symName: __ZNSt3__16vectorIiNS_9allocatorIiEEE16__destroy_vectorclB8ue170006Ev, symObjAddr: 0x4498, symBinAddr: 0x100007C1C, symSize: 0x90 }
  - { offsetInCU: 0x28C68, offset: 0x28C68, size: 0x8, addend: 0x0, symName: __ZNSt3__16vectorIiNS_9allocatorIiEEE7__clearB8ue170006Ev, symObjAddr: 0x4528, symBinAddr: 0x100007CAC, symSize: 0x28 }
  - { offsetInCU: 0x28C8E, offset: 0x28C8E, size: 0x8, addend: 0x0, symName: __ZNKSt3__16vectorIiNS_9allocatorIiEEE17__annotate_deleteB8ue170006Ev, symObjAddr: 0x4550, symBinAddr: 0x100007CD4, symSize: 0xB8 }
  - { offsetInCU: 0x28CB4, offset: 0x28CB4, size: 0x8, addend: 0x0, symName: __ZNSt3__116allocator_traitsINS_9allocatorIiEEE10deallocateB8ue170006ERS2_Pim, symObjAddr: 0x4608, symBinAddr: 0x100007D8C, symSize: 0x34 }
  - { offsetInCU: 0x28CF6, offset: 0x28CF6, size: 0x8, addend: 0x0, symName: __ZNSt3__16vectorIiNS_9allocatorIiEEE22__base_destruct_at_endB8ue170006EPi, symObjAddr: 0x463C, symBinAddr: 0x100007DC0, symSize: 0x8C }
  - { offsetInCU: 0x28D3A, offset: 0x28D3A, size: 0x8, addend: 0x0, symName: __ZNSt3__116allocator_traitsINS_9allocatorIiEEE7destroyB8ue170006IivEEvRS2_PT_, symObjAddr: 0x46C8, symBinAddr: 0x100007E4C, symSize: 0x2C }
  - { offsetInCU: 0x28D77, offset: 0x28D77, size: 0x8, addend: 0x0, symName: __ZNSt3__19allocatorIiE7destroyB8ue170006EPi, symObjAddr: 0x46F4, symBinAddr: 0x100007E78, symSize: 0x14 }
  - { offsetInCU: 0x28DAB, offset: 0x28DAB, size: 0x8, addend: 0x0, symName: __ZNKSt3__16vectorIiNS_9allocatorIiEEE4sizeB8ue170006Ev, symObjAddr: 0x4708, symBinAddr: 0x100007E8C, symSize: 0x28 }
  - { offsetInCU: 0x28DD1, offset: 0x28DD1, size: 0x8, addend: 0x0, symName: __ZNSt3__19allocatorIiE10deallocateB8ue170006EPim, symObjAddr: 0x4730, symBinAddr: 0x100007EB4, symSize: 0x40 }
  - { offsetInCU: 0x28E13, offset: 0x28E13, size: 0x8, addend: 0x0, symName: __ZNSt3__16vectorIiNS_9allocatorIiEEED2B8ue170006Ev, symObjAddr: 0x47EC, symBinAddr: 0x100007F70, symSize: 0x40 }
  - { offsetInCU: 0x28E3D, offset: 0x28E3D, size: 0x8, addend: 0x0, symName: __ZNSt3__13mapIiNS_3setIiNS_4lessIiEENS_9allocatorIiEEEES3_NS4_INS_4pairIKiS6_EEEEEC2B8ue170006Ev, symObjAddr: 0x482C, symBinAddr: 0x100007FB0, symSize: 0x40 }
  - { offsetInCU: 0x28E67, offset: 0x28E67, size: 0x8, addend: 0x0, symName: __ZNSt3__119__map_value_compareIiNS_12__value_typeIiNS_3setIiNS_4lessIiEENS_9allocatorIiEEEEEES4_Lb1EEC1B8ue170006ES4_, symObjAddr: 0x486C, symBinAddr: 0x100007FF0, symSize: 0x2C }
  - { offsetInCU: 0x28EA0, offset: 0x28EA0, size: 0x8, addend: 0x0, symName: __ZNSt3__16__treeINS_12__value_typeIiNS_3setIiNS_4lessIiEENS_9allocatorIiEEEEEENS_19__map_value_compareIiS8_S4_Lb1EEENS5_IS8_EEEC1ERKSA_, symObjAddr: 0x4898, symBinAddr: 0x10000801C, symSize: 0x34 }
  - { offsetInCU: 0x28EDB, offset: 0x28EDB, size: 0x8, addend: 0x0, symName: __ZNSt3__119__map_value_compareIiNS_12__value_typeIiNS_3setIiNS_4lessIiEENS_9allocatorIiEEEEEES4_Lb1EEC2B8ue170006ES4_, symObjAddr: 0x48CC, symBinAddr: 0x100008050, symSize: 0x14 }
  - { offsetInCU: 0x28F14, offset: 0x28F14, size: 0x8, addend: 0x0, symName: __ZNSt3__16__treeINS_12__value_typeIiNS_3setIiNS_4lessIiEENS_9allocatorIiEEEEEENS_19__map_value_compareIiS8_S4_Lb1EEENS5_IS8_EEEC2ERKSA_, symObjAddr: 0x48E0, symBinAddr: 0x100008064, symSize: 0x7C }
  - { offsetInCU: 0x28F4F, offset: 0x28F4F, size: 0x8, addend: 0x0, symName: __ZNSt3__117__compressed_pairINS_15__tree_end_nodeIPNS_16__tree_node_baseIPvEEEENS_9allocatorINS_11__tree_nodeINS_12__value_typeIiNS_3setIiNS_4lessIiEENS7_IiEEEEEES3_EEEEEC1B8ue170006ILb1EvEEv, symObjAddr: 0x495C, symBinAddr: 0x1000080E0, symSize: 0x2C }
  - { offsetInCU: 0x28F8A, offset: 0x28F8A, size: 0x8, addend: 0x0, symName: __ZNSt3__117__compressed_pairImNS_19__map_value_compareIiNS_12__value_typeIiNS_3setIiNS_4lessIiEENS_9allocatorIiEEEEEES5_Lb1EEEEC1B8ue170006IiRKSA_EEOT_OT0_, symObjAddr: 0x4988, symBinAddr: 0x10000810C, symSize: 0x3C }
  - { offsetInCU: 0x28FE2, offset: 0x28FE2, size: 0x8, addend: 0x0, symName: __ZNSt3__16__treeINS_12__value_typeIiNS_3setIiNS_4lessIiEENS_9allocatorIiEEEEEENS_19__map_value_compareIiS8_S4_Lb1EEENS5_IS8_EEE10__end_nodeB8ue170006Ev, symObjAddr: 0x49C4, symBinAddr: 0x100008148, symSize: 0x2C }
  - { offsetInCU: 0x29008, offset: 0x29008, size: 0x8, addend: 0x0, symName: __ZNSt3__16__treeINS_12__value_typeIiNS_3setIiNS_4lessIiEENS_9allocatorIiEEEEEENS_19__map_value_compareIiS8_S4_Lb1EEENS5_IS8_EEE12__begin_nodeB8ue170006Ev, symObjAddr: 0x49F0, symBinAddr: 0x100008174, symSize: 0x14 }
  - { offsetInCU: 0x2902E, offset: 0x2902E, size: 0x8, addend: 0x0, symName: __ZNSt3__117__compressed_pairINS_15__tree_end_nodeIPNS_16__tree_node_baseIPvEEEENS_9allocatorINS_11__tree_nodeINS_12__value_typeIiNS_3setIiNS_4lessIiEENS7_IiEEEEEES3_EEEEEC2B8ue170006ILb1EvEEv, symObjAddr: 0x4A04, symBinAddr: 0x100008188, symSize: 0x34 }
  - { offsetInCU: 0x29063, offset: 0x29063, size: 0x8, addend: 0x0, symName: __ZNSt3__122__compressed_pair_elemINS_15__tree_end_nodeIPNS_16__tree_node_baseIPvEEEELi0ELb0EEC2B8ue170006ENS_16__value_init_tagE, symObjAddr: 0x4A38, symBinAddr: 0x1000081BC, symSize: 0x2C }
  - { offsetInCU: 0x29098, offset: 0x29098, size: 0x8, addend: 0x0, symName: __ZNSt3__122__compressed_pair_elemINS_9allocatorINS_11__tree_nodeINS_12__value_typeIiNS_3setIiNS_4lessIiEENS1_IiEEEEEEPvEEEELi1ELb1EEC2B8ue170006ENS_16__value_init_tagE, symObjAddr: 0x4A64, symBinAddr: 0x1000081E8, symSize: 0x2C }
  - { offsetInCU: 0x290CD, offset: 0x290CD, size: 0x8, addend: 0x0, symName: __ZNSt3__115__tree_end_nodeIPNS_16__tree_node_baseIPvEEEC1B8ue170006Ev, symObjAddr: 0x4A90, symBinAddr: 0x100008214, symSize: 0x2C }
  - { offsetInCU: 0x290F7, offset: 0x290F7, size: 0x8, addend: 0x0, symName: __ZNSt3__115__tree_end_nodeIPNS_16__tree_node_baseIPvEEEC2B8ue170006Ev, symObjAddr: 0x4ABC, symBinAddr: 0x100008240, symSize: 0x18 }
  - { offsetInCU: 0x29121, offset: 0x29121, size: 0x8, addend: 0x0, symName: __ZNSt3__19allocatorINS_11__tree_nodeINS_12__value_typeIiNS_3setIiNS_4lessIiEENS0_IiEEEEEEPvEEEC2B8ue170006Ev, symObjAddr: 0x4AD4, symBinAddr: 0x100008258, symSize: 0x2C }
  - { offsetInCU: 0x2914B, offset: 0x2914B, size: 0x8, addend: 0x0, symName: __ZNSt3__116__non_trivial_ifILb1ENS_9allocatorINS_11__tree_nodeINS_12__value_typeIiNS_3setIiNS_4lessIiEENS1_IiEEEEEEPvEEEEEC2B8ue170006Ev, symObjAddr: 0x4B00, symBinAddr: 0x100008284, symSize: 0x14 }
  - { offsetInCU: 0x29175, offset: 0x29175, size: 0x8, addend: 0x0, symName: __ZNSt3__117__compressed_pairImNS_19__map_value_compareIiNS_12__value_typeIiNS_3setIiNS_4lessIiEENS_9allocatorIiEEEEEES5_Lb1EEEEC2B8ue170006IiRKSA_EEOT_OT0_, symObjAddr: 0x4B14, symBinAddr: 0x100008298, symSize: 0x44 }
  - { offsetInCU: 0x291CD, offset: 0x291CD, size: 0x8, addend: 0x0, symName: __ZNSt3__122__compressed_pair_elemImLi0ELb0EEC2B8ue170006IivEEOT_, symObjAddr: 0x4B58, symBinAddr: 0x1000082DC, symSize: 0x24 }
  - { offsetInCU: 0x2920F, offset: 0x2920F, size: 0x8, addend: 0x0, symName: __ZNSt3__122__compressed_pair_elemINS_19__map_value_compareIiNS_12__value_typeIiNS_3setIiNS_4lessIiEENS_9allocatorIiEEEEEES5_Lb1EEELi1ELb1EEC2B8ue170006IRKSA_vEEOT_, symObjAddr: 0x4B7C, symBinAddr: 0x100008300, symSize: 0x18 }
  - { offsetInCU: 0x29251, offset: 0x29251, size: 0x8, addend: 0x0, symName: __ZNSt3__114pointer_traitsIPNS_15__tree_end_nodeIPNS_16__tree_node_baseIPvEEEEE10pointer_toB8ue170006ERS6_, symObjAddr: 0x4B94, symBinAddr: 0x100008318, symSize: 0x14 }
  - { offsetInCU: 0x29274, offset: 0x29274, size: 0x8, addend: 0x0, symName: __ZNSt3__117__compressed_pairINS_15__tree_end_nodeIPNS_16__tree_node_baseIPvEEEENS_9allocatorINS_11__tree_nodeINS_12__value_typeIiNS_3setIiNS_4lessIiEENS7_IiEEEEEES3_EEEEE5firstB8ue170006Ev, symObjAddr: 0x4BA8, symBinAddr: 0x10000832C, symSize: 0x24 }
  - { offsetInCU: 0x2929A, offset: 0x2929A, size: 0x8, addend: 0x0, symName: __ZNSt3__122__compressed_pair_elemINS_15__tree_end_nodeIPNS_16__tree_node_baseIPvEEEELi0ELb0EE5__getB8ue170006Ev, symObjAddr: 0x4BCC, symBinAddr: 0x100008350, symSize: 0x14 }
  - { offsetInCU: 0x292C0, offset: 0x292C0, size: 0x8, addend: 0x0, symName: __ZNSt3__13mapIiNS_3setIiNS_4lessIiEENS_9allocatorIiEEEES3_NS4_INS_4pairIKiS6_EEEEED2B8ue170006Ev, symObjAddr: 0x4BE0, symBinAddr: 0x100008364, symSize: 0x2C }
  - { offsetInCU: 0x292EA, offset: 0x292EA, size: 0x8, addend: 0x0, symName: __ZNSt3__16__treeINS_12__value_typeIiNS_3setIiNS_4lessIiEENS_9allocatorIiEEEEEENS_19__map_value_compareIiS8_S4_Lb1EEENS5_IS8_EEED1Ev, symObjAddr: 0x4C0C, symBinAddr: 0x100008390, symSize: 0x2C }
  - { offsetInCU: 0x29316, offset: 0x29316, size: 0x8, addend: 0x0, symName: __ZNSt3__16__treeINS_12__value_typeIiNS_3setIiNS_4lessIiEENS_9allocatorIiEEEEEENS_19__map_value_compareIiS8_S4_Lb1EEENS5_IS8_EEED2Ev, symObjAddr: 0x4C38, symBinAddr: 0x1000083BC, symSize: 0x38 }
  - { offsetInCU: 0x29342, offset: 0x29342, size: 0x8, addend: 0x0, symName: __ZNSt3__16__treeINS_12__value_typeIiNS_3setIiNS_4lessIiEENS_9allocatorIiEEEEEENS_19__map_value_compareIiS8_S4_Lb1EEENS5_IS8_EEE7destroyEPNS_11__tree_nodeIS8_PvEE, symObjAddr: 0x4C70, symBinAddr: 0x1000083F4, symSize: 0xAC }
  - { offsetInCU: 0x2938E, offset: 0x2938E, size: 0x8, addend: 0x0, symName: __ZNKSt3__16__treeINS_12__value_typeIiNS_3setIiNS_4lessIiEENS_9allocatorIiEEEEEENS_19__map_value_compareIiS8_S4_Lb1EEENS5_IS8_EEE6__rootB8ue170006Ev, symObjAddr: 0x4D1C, symBinAddr: 0x1000084A0, symSize: 0x28 }
  - { offsetInCU: 0x293B4, offset: 0x293B4, size: 0x8, addend: 0x0, symName: __ZNSt3__16__treeINS_12__value_typeIiNS_3setIiNS_4lessIiEENS_9allocatorIiEEEEEENS_19__map_value_compareIiS8_S4_Lb1EEENS5_IS8_EEE12__node_allocB8ue170006Ev, symObjAddr: 0x4D44, symBinAddr: 0x1000084C8, symSize: 0x28 }
  - { offsetInCU: 0x293DF, offset: 0x293DF, size: 0x8, addend: 0x0, symName: __ZNSt3__116allocator_traitsINS_9allocatorINS_11__tree_nodeINS_12__value_typeIiNS_3setIiNS_4lessIiEENS1_IiEEEEEEPvEEEEE7destroyB8ue170006INS_4pairIKiS8_EEvvEEvRSC_PT_, symObjAddr: 0x4D6C, symBinAddr: 0x1000084F0, symSize: 0x28 }
  - { offsetInCU: 0x29419, offset: 0x29419, size: 0x8, addend: 0x0, symName: __ZNSt3__122__tree_key_value_typesINS_12__value_typeIiNS_3setIiNS_4lessIiEENS_9allocatorIiEEEEEEE9__get_ptrB8ue170006ERS8_, symObjAddr: 0x4D94, symBinAddr: 0x100008518, symSize: 0x24 }
  - { offsetInCU: 0x2943D, offset: 0x2943D, size: 0x8, addend: 0x0, symName: __ZNSt3__116allocator_traitsINS_9allocatorINS_11__tree_nodeINS_12__value_typeIiNS_3setIiNS_4lessIiEENS1_IiEEEEEEPvEEEEE10deallocateB8ue170006ERSC_PSB_m, symObjAddr: 0x4DB8, symBinAddr: 0x10000853C, symSize: 0x34 }
  - { offsetInCU: 0x2947F, offset: 0x2947F, size: 0x8, addend: 0x0, symName: __ZNSt3__117__compressed_pairINS_15__tree_end_nodeIPNS_16__tree_node_baseIPvEEEENS_9allocatorINS_11__tree_nodeINS_12__value_typeIiNS_3setIiNS_4lessIiEENS7_IiEEEEEES3_EEEEE6secondB8ue170006Ev, symObjAddr: 0x4DEC, symBinAddr: 0x100008570, symSize: 0x24 }
  - { offsetInCU: 0x294A5, offset: 0x294A5, size: 0x8, addend: 0x0, symName: __ZNSt3__122__compressed_pair_elemINS_9allocatorINS_11__tree_nodeINS_12__value_typeIiNS_3setIiNS_4lessIiEENS1_IiEEEEEEPvEEEELi1ELb1EE5__getB8ue170006Ev, symObjAddr: 0x4E10, symBinAddr: 0x100008594, symSize: 0x14 }
  - { offsetInCU: 0x294CB, offset: 0x294CB, size: 0x8, addend: 0x0, symName: __ZNSt3__14pairIKiNS_3setIiNS_4lessIiEENS_9allocatorIiEEEEED1Ev, symObjAddr: 0x4E24, symBinAddr: 0x1000085A8, symSize: 0x2C }
  - { offsetInCU: 0x294F7, offset: 0x294F7, size: 0x8, addend: 0x0, symName: __ZNSt3__14pairIKiNS_3setIiNS_4lessIiEENS_9allocatorIiEEEEED2Ev, symObjAddr: 0x4E50, symBinAddr: 0x1000085D4, symSize: 0x30 }
  - { offsetInCU: 0x29523, offset: 0x29523, size: 0x8, addend: 0x0, symName: __ZNSt3__13setIiNS_4lessIiEENS_9allocatorIiEEED1B8ue170006Ev, symObjAddr: 0x4E80, symBinAddr: 0x100008604, symSize: 0x2C }
  - { offsetInCU: 0x2954D, offset: 0x2954D, size: 0x8, addend: 0x0, symName: __ZNSt3__13setIiNS_4lessIiEENS_9allocatorIiEEED2B8ue170006Ev, symObjAddr: 0x4EAC, symBinAddr: 0x100008630, symSize: 0x2C }
  - { offsetInCU: 0x29577, offset: 0x29577, size: 0x8, addend: 0x0, symName: __ZNSt3__16__treeIiNS_4lessIiEENS_9allocatorIiEEED1Ev, symObjAddr: 0x4ED8, symBinAddr: 0x10000865C, symSize: 0x2C }
  - { offsetInCU: 0x295A3, offset: 0x295A3, size: 0x8, addend: 0x0, symName: __ZNSt3__16__treeIiNS_4lessIiEENS_9allocatorIiEEED2Ev, symObjAddr: 0x4F04, symBinAddr: 0x100008688, symSize: 0x38 }
  - { offsetInCU: 0x295CF, offset: 0x295CF, size: 0x8, addend: 0x0, symName: __ZNSt3__16__treeIiNS_4lessIiEENS_9allocatorIiEEE7destroyEPNS_11__tree_nodeIiPvEE, symObjAddr: 0x4F3C, symBinAddr: 0x1000086C0, symSize: 0xAC }
  - { offsetInCU: 0x2961B, offset: 0x2961B, size: 0x8, addend: 0x0, symName: __ZNKSt3__16__treeIiNS_4lessIiEENS_9allocatorIiEEE6__rootB8ue170006Ev, symObjAddr: 0x4FE8, symBinAddr: 0x10000876C, symSize: 0x28 }
  - { offsetInCU: 0x29641, offset: 0x29641, size: 0x8, addend: 0x0, symName: __ZNSt3__16__treeIiNS_4lessIiEENS_9allocatorIiEEE12__node_allocB8ue170006Ev, symObjAddr: 0x5010, symBinAddr: 0x100008794, symSize: 0x28 }
  - { offsetInCU: 0x2966C, offset: 0x2966C, size: 0x8, addend: 0x0, symName: __ZNSt3__116allocator_traitsINS_9allocatorINS_11__tree_nodeIiPvEEEEE7destroyB8ue170006IivvEEvRS5_PT_, symObjAddr: 0x5038, symBinAddr: 0x1000087BC, symSize: 0x14 }
  - { offsetInCU: 0x296A6, offset: 0x296A6, size: 0x8, addend: 0x0, symName: __ZNSt3__122__tree_key_value_typesIiE9__get_ptrB8ue170006ERi, symObjAddr: 0x504C, symBinAddr: 0x1000087D0, symSize: 0x14 }
  - { offsetInCU: 0x296CA, offset: 0x296CA, size: 0x8, addend: 0x0, symName: __ZNSt3__116allocator_traitsINS_9allocatorINS_11__tree_nodeIiPvEEEEE10deallocateB8ue170006ERS5_PS4_m, symObjAddr: 0x5060, symBinAddr: 0x1000087E4, symSize: 0x34 }
  - { offsetInCU: 0x2970C, offset: 0x2970C, size: 0x8, addend: 0x0, symName: __ZNSt3__117__compressed_pairINS_15__tree_end_nodeIPNS_16__tree_node_baseIPvEEEENS_9allocatorINS_11__tree_nodeIiS3_EEEEE6secondB8ue170006Ev, symObjAddr: 0x5094, symBinAddr: 0x100008818, symSize: 0x24 }
  - { offsetInCU: 0x29732, offset: 0x29732, size: 0x8, addend: 0x0, symName: __ZNSt3__122__compressed_pair_elemINS_9allocatorINS_11__tree_nodeIiPvEEEELi1ELb1EE5__getB8ue170006Ev, symObjAddr: 0x50B8, symBinAddr: 0x10000883C, symSize: 0x14 }
  - { offsetInCU: 0x29758, offset: 0x29758, size: 0x8, addend: 0x0, symName: __ZNSt3__19allocatorINS_11__tree_nodeIiPvEEE10deallocateB8ue170006EPS3_m, symObjAddr: 0x50CC, symBinAddr: 0x100008850, symSize: 0x40 }
  - { offsetInCU: 0x2979A, offset: 0x2979A, size: 0x8, addend: 0x0, symName: __ZNKSt3__16__treeIiNS_4lessIiEENS_9allocatorIiEEE10__end_nodeB8ue170006Ev, symObjAddr: 0x510C, symBinAddr: 0x100008890, symSize: 0x2C }
  - { offsetInCU: 0x297C0, offset: 0x297C0, size: 0x8, addend: 0x0, symName: __ZNKSt3__117__compressed_pairINS_15__tree_end_nodeIPNS_16__tree_node_baseIPvEEEENS_9allocatorINS_11__tree_nodeIiS3_EEEEE5firstB8ue170006Ev, symObjAddr: 0x5138, symBinAddr: 0x1000088BC, symSize: 0x24 }
  - { offsetInCU: 0x297E6, offset: 0x297E6, size: 0x8, addend: 0x0, symName: __ZNKSt3__122__compressed_pair_elemINS_15__tree_end_nodeIPNS_16__tree_node_baseIPvEEEELi0ELb0EE5__getB8ue170006Ev, symObjAddr: 0x515C, symBinAddr: 0x1000088E0, symSize: 0x14 }
  - { offsetInCU: 0x2980C, offset: 0x2980C, size: 0x8, addend: 0x0, symName: __ZNSt3__112__value_typeIiNS_3setIiNS_4lessIiEENS_9allocatorIiEEEEE11__get_valueB8ue170006Ev, symObjAddr: 0x5170, symBinAddr: 0x1000088F4, symSize: 0x14 }
  - { offsetInCU: 0x29832, offset: 0x29832, size: 0x8, addend: 0x0, symName: __ZNSt3__19allocatorINS_11__tree_nodeINS_12__value_typeIiNS_3setIiNS_4lessIiEENS0_IiEEEEEEPvEEE10deallocateB8ue170006EPSA_m, symObjAddr: 0x5184, symBinAddr: 0x100008908, symSize: 0x40 }
  - { offsetInCU: 0x29874, offset: 0x29874, size: 0x8, addend: 0x0, symName: __ZNKSt3__16__treeINS_12__value_typeIiNS_3setIiNS_4lessIiEENS_9allocatorIiEEEEEENS_19__map_value_compareIiS8_S4_Lb1EEENS5_IS8_EEE10__end_nodeB8ue170006Ev, symObjAddr: 0x51C4, symBinAddr: 0x100008948, symSize: 0x2C }
  - { offsetInCU: 0x2989A, offset: 0x2989A, size: 0x8, addend: 0x0, symName: __ZNKSt3__117__compressed_pairINS_15__tree_end_nodeIPNS_16__tree_node_baseIPvEEEENS_9allocatorINS_11__tree_nodeINS_12__value_typeIiNS_3setIiNS_4lessIiEENS7_IiEEEEEES3_EEEEE5firstB8ue170006Ev, symObjAddr: 0x51F0, symBinAddr: 0x100008974, symSize: 0x24 }
  - { offsetInCU: 0x298C0, offset: 0x298C0, size: 0x8, addend: 0x0, symName: __ZN5Eigen9EigenBaseINS_5ArrayIiLin1ELin1ELi0ELin1ELin1EEEE7derivedEv, symObjAddr: 0x5214, symBinAddr: 0x100008998, symSize: 0x14 }
  - { offsetInCU: 0x298E6, offset: 0x298E6, size: 0x8, addend: 0x0, symName: __ZN5Eigen5BlockINS_5ArrayIiLin1ELin1ELi0ELin1ELin1EEELi1ELin1ELb0EEC1ERS2_l, symObjAddr: 0x5228, symBinAddr: 0x1000089AC, symSize: 0x3C }
  - { offsetInCU: 0x2992C, offset: 0x2992C, size: 0x8, addend: 0x0, symName: __ZN5Eigen5BlockINS_5ArrayIiLin1ELin1ELi0ELin1ELin1EEELi1ELin1ELb0EEC2ERS2_l, symObjAddr: 0x5264, symBinAddr: 0x1000089E8, symSize: 0xCC }
  - { offsetInCU: 0x29972, offset: 0x29972, size: 0x8, addend: 0x0, symName: __ZN5Eigen9BlockImplINS_5ArrayIiLin1ELin1ELi0ELin1ELin1EEELi1ELin1ELb0ENS_5DenseEEC2ERS2_l, symObjAddr: 0x5330, symBinAddr: 0x100008AB4, symSize: 0x3C }
  - { offsetInCU: 0x299B8, offset: 0x299B8, size: 0x8, addend: 0x0, symName: __ZN5Eigen8internal15BlockImpl_denseINS_5ArrayIiLin1ELin1ELi0ELin1ELin1EEELi1ELin1ELb0ELb1EEC2ERS3_l, symObjAddr: 0x536C, symBinAddr: 0x100008AF0, symSize: 0xAC }
  - { offsetInCU: 0x29A00, offset: 0x29A00, size: 0x8, addend: 0x0, symName: __ZN5Eigen15PlainObjectBaseINS_5ArrayIiLin1ELin1ELi0ELin1ELin1EEEE4dataEv, symObjAddr: 0x5418, symBinAddr: 0x100008B9C, symSize: 0x24 }
  - { offsetInCU: 0x29A26, offset: 0x29A26, size: 0x8, addend: 0x0, symName: __ZNK5Eigen5ArrayIiLin1ELin1ELi0ELin1ELin1EE11innerStrideEv, symObjAddr: 0x543C, symBinAddr: 0x100008BC0, symSize: 0x14 }
  - { offsetInCU: 0x29A4C, offset: 0x29A4C, size: 0x8, addend: 0x0, symName: __ZN5Eigen7MapBaseINS_5BlockINS_5ArrayIiLin1ELin1ELi0ELin1ELin1EEELi1ELin1ELb0EEELi1EEC2EPill, symObjAddr: 0x5450, symBinAddr: 0x100008BD4, symSize: 0x44 }
  - { offsetInCU: 0x29AA3, offset: 0x29AA3, size: 0x8, addend: 0x0, symName: __ZN5Eigen8internal15BlockImpl_denseINS_5ArrayIiLin1ELin1ELi0ELin1ELin1EEELi1ELin1ELb0ELb1EE4initEv, symObjAddr: 0x5494, symBinAddr: 0x100008C18, symSize: 0x34 }
  - { offsetInCU: 0x29AC9, offset: 0x29AC9, size: 0x8, addend: 0x0, symName: __ZN5Eigen12DenseStorageIiLin1ELin1ELin1ELi0EE4dataEv, symObjAddr: 0x54C8, symBinAddr: 0x100008C4C, symSize: 0x18 }
  - { offsetInCU: 0x29AEF, offset: 0x29AEF, size: 0x8, addend: 0x0, symName: __ZN5Eigen7MapBaseINS_5BlockINS_5ArrayIiLin1ELin1ELi0ELin1ELin1EEELi1ELin1ELb0EEELi0EEC2EPill, symObjAddr: 0x54E0, symBinAddr: 0x100008C64, symSize: 0x130 }
  - { offsetInCU: 0x29B43, offset: 0x29B43, size: 0x8, addend: 0x0, symName: __ZN5Eigen9ArrayBaseINS_5BlockINS_5ArrayIiLin1ELin1ELi0ELin1ELin1EEELi1ELin1ELb0EEEEC2Ev, symObjAddr: 0x5610, symBinAddr: 0x100008D94, symSize: 0x2C }
  - { offsetInCU: 0x29B6D, offset: 0x29B6D, size: 0x8, addend: 0x0, symName: __ZNK5Eigen7MapBaseINS_5BlockINS_5ArrayIiLin1ELin1ELi0ELin1ELin1EEELi1ELin1ELb0EEELi0EE11checkSanityIS4_EEvNS_8internal9enable_ifIXeqsr8internal6traitsIT_EE9AlignmentLi0EEPvE4typeE, symObjAddr: 0x563C, symBinAddr: 0x100008DC0, symSize: 0x14 }
  - { offsetInCU: 0x29BA7, offset: 0x29BA7, size: 0x8, addend: 0x0, symName: __ZN5Eigen9DenseBaseINS_5BlockINS_5ArrayIiLin1ELin1ELi0ELin1ELin1EEELi1ELin1ELb0EEEEC2Ev, symObjAddr: 0x5650, symBinAddr: 0x100008DD4, symSize: 0x14 }
  - { offsetInCU: 0x29BD1, offset: 0x29BD1, size: 0x8, addend: 0x0, symName: __ZN5Eigen5ArrayIiLin1ELi1ELi0ELin1ELi1EEC2INS_5BlockINS0_IiLin1ELin1ELi0ELin1ELin1EEELi1ELin1ELb0EEEEERKNS_9EigenBaseIT_EENS_8internal9enable_ifIXsr8internal14is_convertibleINS7_6ScalarEiEE5valueENS1_11PrivateTypeEE4typeE, symObjAddr: 0x5664, symBinAddr: 0x100008DE8, symSize: 0x40 }
  - { offsetInCU: 0x29C1E, offset: 0x29C1E, size: 0x8, addend: 0x0, symName: __ZNK5Eigen9EigenBaseINS_5BlockINS_5ArrayIiLin1ELin1ELi0ELin1ELin1EEELi1ELin1ELb0EEEE7derivedEv, symObjAddr: 0x56A4, symBinAddr: 0x100008E28, symSize: 0x14 }
  - { offsetInCU: 0x29C44, offset: 0x29C44, size: 0x8, addend: 0x0, symName: __ZN5Eigen15PlainObjectBaseINS_5ArrayIiLin1ELi1ELi0ELin1ELi1EEEEC2INS_5BlockINS1_IiLin1ELin1ELi0ELin1ELin1EEELi1ELin1ELb0EEEEERKNS_9DenseBaseIT_EE, symObjAddr: 0x56B8, symBinAddr: 0x100008E3C, symSize: 0x84 }
  - { offsetInCU: 0x29C86, offset: 0x29C86, size: 0x8, addend: 0x0, symName: __ZN5Eigen9ArrayBaseINS_5ArrayIiLin1ELi1ELi0ELin1ELi1EEEEC2Ev, symObjAddr: 0x573C, symBinAddr: 0x100008EC0, symSize: 0x2C }
  - { offsetInCU: 0x29CB0, offset: 0x29CB0, size: 0x8, addend: 0x0, symName: __ZN5Eigen12DenseStorageIiLin1ELin1ELi1ELi0EEC1Ev, symObjAddr: 0x5768, symBinAddr: 0x100008EEC, symSize: 0x2C }
  - { offsetInCU: 0x29CDA, offset: 0x29CDA, size: 0x8, addend: 0x0, symName: __ZN5Eigen15PlainObjectBaseINS_5ArrayIiLin1ELi1ELi0ELin1ELi1EEEE22_check_template_paramsEv, symObjAddr: 0x5794, symBinAddr: 0x100008F18, symSize: 0x4 }
  - { offsetInCU: 0x29D2F, offset: 0x29D2F, size: 0x8, addend: 0x0, symName: __ZN5Eigen15PlainObjectBaseINS_5ArrayIiLin1ELi1ELi0ELin1ELi1EEEE10resizeLikeINS_5BlockINS1_IiLin1ELin1ELi0ELin1ELin1EEELi1ELin1ELb0EEEEEvRKNS_9EigenBaseIT_EE, symObjAddr: 0x5798, symBinAddr: 0x100008F1C, symSize: 0x170 }
  - { offsetInCU: 0x29DC3, offset: 0x29DC3, size: 0x8, addend: 0x0, symName: __ZN5Eigen15PlainObjectBaseINS_5ArrayIiLin1ELi1ELi0ELin1ELi1EEEE12_set_noaliasINS_5BlockINS1_IiLin1ELin1ELi0ELin1ELin1EEELi1ELin1ELb0EEEEERS2_RKNS_9DenseBaseIT_EE, symObjAddr: 0x5908, symBinAddr: 0x10000908C, symSize: 0x60 }
  - { offsetInCU: 0x29E01, offset: 0x29E01, size: 0x8, addend: 0x0, symName: __ZN5Eigen9DenseBaseINS_5ArrayIiLin1ELi1ELi0ELin1ELi1EEEEC2Ev, symObjAddr: 0x5968, symBinAddr: 0x1000090EC, symSize: 0x14 }
  - { offsetInCU: 0x29E2B, offset: 0x29E2B, size: 0x8, addend: 0x0, symName: __ZN5Eigen12DenseStorageIiLin1ELin1ELi1ELi0EEC2Ev, symObjAddr: 0x597C, symBinAddr: 0x100009100, symSize: 0x1C }
  - { offsetInCU: 0x29E55, offset: 0x29E55, size: 0x8, addend: 0x0, symName: __ZNK5Eigen7MapBaseINS_5BlockINS_5ArrayIiLin1ELin1ELi0ELin1ELin1EEELi1ELin1ELb0EEELi0EE4rowsEv, symObjAddr: 0x5998, symBinAddr: 0x10000911C, symSize: 0x20 }
  - { offsetInCU: 0x29E7B, offset: 0x29E7B, size: 0x8, addend: 0x0, symName: __ZNK5Eigen7MapBaseINS_5BlockINS_5ArrayIiLin1ELin1ELi0ELin1ELin1EEELi1ELin1ELb0EEELi0EE4colsEv, symObjAddr: 0x59B8, symBinAddr: 0x10000913C, symSize: 0x28 }
  - { offsetInCU: 0x29EA1, offset: 0x29EA1, size: 0x8, addend: 0x0, symName: __ZN5Eigen15PlainObjectBaseINS_5ArrayIiLin1ELi1ELi0ELin1ELi1EEEE6resizeEll, symObjAddr: 0x59E0, symBinAddr: 0x100009164, symSize: 0x168 }
  - { offsetInCU: 0x29F1D, offset: 0x29F1D, size: 0x8, addend: 0x0, symName: __ZN5Eigen12DenseStorageIiLin1ELin1ELi1ELi0EE6resizeElll, symObjAddr: 0x5B7C, symBinAddr: 0x100009300, symSize: 0xA4 }
  - { offsetInCU: 0x29F6C, offset: 0x29F6C, size: 0x8, addend: 0x0, symName: __ZN5Eigen9EigenBaseINS_5ArrayIiLin1ELi1ELi0ELin1ELi1EEEE7derivedEv, symObjAddr: 0x5DEC, symBinAddr: 0x100009570, symSize: 0x14 }
  - { offsetInCU: 0x29FA6, offset: 0x29FA6, size: 0x8, addend: 0x0, symName: __ZN5Eigen8internal9assign_opIiiEC1Ev, symObjAddr: 0x5E00, symBinAddr: 0x100009584, symSize: 0x2C }
  - { offsetInCU: 0x29FD0, offset: 0x29FD0, size: 0x8, addend: 0x0, symName: __ZN5Eigen9TransposeINS_5ArrayIiLin1ELi1ELi0ELin1ELi1EEEEC1ERS2_, symObjAddr: 0x5E2C, symBinAddr: 0x1000095B0, symSize: 0x34 }
  - { offsetInCU: 0x2A008, offset: 0x2A008, size: 0x8, addend: 0x0, symName: __ZN5Eigen8internal10AssignmentINS_9TransposeINS_5ArrayIiLin1ELi1ELi0ELin1ELi1EEEEENS_5BlockINS3_IiLin1ELin1ELi0ELin1ELin1EEELi1ELin1ELb0EEENS0_9assign_opIiiEENS0_11Dense2DenseEvE3runERS5_RKS8_RKSA_, symObjAddr: 0x5E60, symBinAddr: 0x1000095E4, symSize: 0x40 }
  - { offsetInCU: 0x2A04A, offset: 0x2A04A, size: 0x8, addend: 0x0, symName: __ZN5Eigen9TransposeINS_5ArrayIiLin1ELi1ELi0ELin1ELi1EEEEC2ERS2_, symObjAddr: 0x5EA0, symBinAddr: 0x100009624, symSize: 0x38 }
  - { offsetInCU: 0x2A082, offset: 0x2A082, size: 0x8, addend: 0x0, symName: __ZN5Eigen13TransposeImplINS_5ArrayIiLin1ELi1ELi0ELin1ELi1EEENS_5DenseEEC2Ev, symObjAddr: 0x5ED8, symBinAddr: 0x10000965C, symSize: 0x2C }
  - { offsetInCU: 0x2A0AC, offset: 0x2A0AC, size: 0x8, addend: 0x0, symName: __ZN5Eigen9ArrayBaseINS_9TransposeINS_5ArrayIiLin1ELi1ELi0ELin1ELi1EEEEEEC2Ev, symObjAddr: 0x5F04, symBinAddr: 0x100009688, symSize: 0x2C }
  - { offsetInCU: 0x2A0D6, offset: 0x2A0D6, size: 0x8, addend: 0x0, symName: __ZN5Eigen9DenseBaseINS_9TransposeINS_5ArrayIiLin1ELi1ELi0ELin1ELi1EEEEEEC2Ev, symObjAddr: 0x5F30, symBinAddr: 0x1000096B4, symSize: 0x14 }
  - { offsetInCU: 0x2A11E, offset: 0x2A11E, size: 0x8, addend: 0x0, symName: __ZN5Eigen8internal9evaluatorINS_5BlockINS_5ArrayIiLin1ELin1ELi0ELin1ELin1EEELi1ELin1ELb0EEEEC1ERKS5_, symObjAddr: 0x6038, symBinAddr: 0x1000097BC, symSize: 0x34 }
  - { offsetInCU: 0x2A18E, offset: 0x2A18E, size: 0x8, addend: 0x0, symName: __ZN5Eigen8internal9evaluatorINS_9TransposeINS_5ArrayIiLin1ELi1ELi0ELin1ELi1EEEEEEC1ERKS5_, symObjAddr: 0x6164, symBinAddr: 0x1000098E8, symSize: 0x34 }
  - { offsetInCU: 0x2A1C6, offset: 0x2A1C6, size: 0x8, addend: 0x0, symName: __ZNK5Eigen9EigenBaseINS_9TransposeINS_5ArrayIiLin1ELi1ELi0ELin1ELi1EEEEEE18const_cast_derivedEv, symObjAddr: 0x6198, symBinAddr: 0x10000991C, symSize: 0x14 }
  - { offsetInCU: 0x2A219, offset: 0x2A219, size: 0x8, addend: 0x0, symName: __ZN5Eigen8internal31generic_dense_assignment_kernelINS0_9evaluatorINS_9TransposeINS_5ArrayIiLin1ELi1ELi0ELin1ELi1EEEEEEENS2_INS_5BlockINS4_IiLin1ELin1ELi0ELin1ELin1EEELi1ELin1ELb0EEEEENS0_9assign_opIiiEELi0EEC1ERS7_RKSB_RKSD_RS6_, symObjAddr: 0x61AC, symBinAddr: 0x100009930, symSize: 0x4C }
  - { offsetInCU: 0x2A284, offset: 0x2A284, size: 0x8, addend: 0x0, symName: __ZN5Eigen8internal21dense_assignment_loopINS0_31generic_dense_assignment_kernelINS0_9evaluatorINS_9TransposeINS_5ArrayIiLin1ELi1ELi0ELin1ELi1EEEEEEENS3_INS_5BlockINS5_IiLin1ELin1ELi0ELin1ELin1EEELi1ELin1ELb0EEEEENS0_9assign_opIiiEELi0EEELi1ELi0EE3runERSF_, symObjAddr: 0x61F8, symBinAddr: 0x10000997C, symSize: 0x68 }
  - { offsetInCU: 0x2A2D4, offset: 0x2A2D4, size: 0x8, addend: 0x0, symName: __ZN5Eigen8internal9evaluatorINS_9TransposeINS_5ArrayIiLin1ELi1ELi0ELin1ELi1EEEEEED1Ev, symObjAddr: 0x6260, symBinAddr: 0x1000099E4, symSize: 0x2C }
  - { offsetInCU: 0x2A300, offset: 0x2A300, size: 0x8, addend: 0x0, symName: __ZN5Eigen8internal9evaluatorINS_5BlockINS_5ArrayIiLin1ELin1ELi0ELin1ELin1EEELi1ELin1ELb0EEEED1Ev, symObjAddr: 0x628C, symBinAddr: 0x100009A10, symSize: 0x2C }
  - { offsetInCU: 0x2A32D, offset: 0x2A32D, size: 0x8, addend: 0x0, symName: __ZN5Eigen8internal9evaluatorINS_5BlockINS_5ArrayIiLin1ELin1ELi0ELin1ELin1EEELi1ELin1ELb0EEEEC2ERKS5_, symObjAddr: 0x62B8, symBinAddr: 0x100009A3C, symSize: 0x34 }
  - { offsetInCU: 0x2A366, offset: 0x2A366, size: 0x8, addend: 0x0, symName: __ZN5Eigen8internal15block_evaluatorINS_5ArrayIiLin1ELin1ELi0ELin1ELin1EEELi1ELin1ELb0ELb1EEC2ERKNS_5BlockIS3_Li1ELin1ELb0EEE, symObjAddr: 0x62EC, symBinAddr: 0x100009A70, symSize: 0xDC }
  - { offsetInCU: 0x2A39F, offset: 0x2A39F, size: 0x8, addend: 0x0, symName: __ZN5Eigen8internal17mapbase_evaluatorINS_5BlockINS_5ArrayIiLin1ELin1ELi0ELin1ELin1EEELi1ELin1ELb0EEENS3_IiLi1ELin1ELi1ELi1ELin1EEEEC2ERKS5_, symObjAddr: 0x63C8, symBinAddr: 0x100009B4C, symSize: 0xB0 }
  - { offsetInCU: 0x2A3D8, offset: 0x2A3D8, size: 0x8, addend: 0x0, symName: __ZNK5Eigen7MapBaseINS_5BlockINS_5ArrayIiLin1ELin1ELi0ELin1ELin1EEELi1ELin1ELb0EEELi1EE4dataEv, symObjAddr: 0x6478, symBinAddr: 0x100009BFC, symSize: 0x18 }
  - { offsetInCU: 0x2A3FE, offset: 0x2A3FE, size: 0x8, addend: 0x0, symName: __ZN5Eigen8internal17mapbase_evaluatorINS_5BlockINS_5ArrayIiLin1ELin1ELi0ELin1ELin1EEELi1ELin1ELb0EEENS3_IiLi1ELin1ELi1ELi1ELin1EEEED2Ev, symObjAddr: 0x6490, symBinAddr: 0x100009C14, symSize: 0x2C }
  - { offsetInCU: 0x2A42B, offset: 0x2A42B, size: 0x8, addend: 0x0, symName: __ZN5Eigen8internal14evaluator_baseINS_5BlockINS_5ArrayIiLin1ELin1ELi0ELin1ELin1EEELi1ELin1ELb0EEEEC2Ev, symObjAddr: 0x64BC, symBinAddr: 0x100009C40, symSize: 0x14 }
  - { offsetInCU: 0x2A455, offset: 0x2A455, size: 0x8, addend: 0x0, symName: __ZNK5Eigen8internal15BlockImpl_denseINS_5ArrayIiLin1ELin1ELi0ELin1ELin1EEELi1ELin1ELb0ELb1EE11innerStrideEv, symObjAddr: 0x64D0, symBinAddr: 0x100009C54, symSize: 0x28 }
  - { offsetInCU: 0x2A47B, offset: 0x2A47B, size: 0x8, addend: 0x0, symName: __ZNK5Eigen8internal15BlockImpl_denseINS_5ArrayIiLin1ELin1ELi0ELin1ELin1EEELi1ELin1ELb0ELb1EE11outerStrideEv, symObjAddr: 0x64F8, symBinAddr: 0x100009C7C, symSize: 0x28 }
  - { offsetInCU: 0x2A4A1, offset: 0x2A4A1, size: 0x8, addend: 0x0, symName: __ZN5Eigen8internal14evaluator_baseINS_5BlockINS_5ArrayIiLin1ELin1ELi0ELin1ELin1EEELi1ELin1ELb0EEEED2Ev, symObjAddr: 0x6520, symBinAddr: 0x100009CA4, symSize: 0x14 }
  - { offsetInCU: 0x2A4CB, offset: 0x2A4CB, size: 0x8, addend: 0x0, symName: __ZNK5Eigen5ArrayIiLin1ELin1ELi0ELin1ELin1EE11outerStrideEv, symObjAddr: 0x6534, symBinAddr: 0x100009CB8, symSize: 0x34 }
  - { offsetInCU: 0x2A4F1, offset: 0x2A4F1, size: 0x8, addend: 0x0, symName: __ZNK5Eigen9DenseBaseINS_5ArrayIiLin1ELin1ELi0ELin1ELin1EEEE9innerSizeEv, symObjAddr: 0x6568, symBinAddr: 0x100009CEC, symSize: 0x24 }
  - { offsetInCU: 0x2A517, offset: 0x2A517, size: 0x8, addend: 0x0, symName: __ZNK5Eigen9EigenBaseINS_5ArrayIiLin1ELin1ELi0ELin1ELin1EEEE4rowsEv, symObjAddr: 0x658C, symBinAddr: 0x100009D10, symSize: 0x38 }
  - { offsetInCU: 0x2A53D, offset: 0x2A53D, size: 0x8, addend: 0x0, symName: __ZNK5Eigen9EigenBaseINS_5ArrayIiLin1ELin1ELi0ELin1ELin1EEEE7derivedEv, symObjAddr: 0x65C4, symBinAddr: 0x100009D48, symSize: 0x14 }
  - { offsetInCU: 0x2A563, offset: 0x2A563, size: 0x8, addend: 0x0, symName: __ZNK5Eigen9TransposeINS_5ArrayIiLin1ELi1ELi0ELin1ELi1EEEE4rowsEv, symObjAddr: 0x65D8, symBinAddr: 0x100009D5C, symSize: 0x28 }
  - { offsetInCU: 0x2A589, offset: 0x2A589, size: 0x8, addend: 0x0, symName: __ZNK5Eigen9TransposeINS_5ArrayIiLin1ELi1ELi0ELin1ELi1EEEE4colsEv, symObjAddr: 0x6600, symBinAddr: 0x100009D84, symSize: 0x28 }
  - { offsetInCU: 0x2A5AF, offset: 0x2A5AF, size: 0x8, addend: 0x0, symName: __ZN5Eigen9TransposeINS_5ArrayIiLin1ELi1ELi0ELin1ELi1EEEE6resizeEll, symObjAddr: 0x6628, symBinAddr: 0x100009DAC, symSize: 0x38 }
  - { offsetInCU: 0x2A5F1, offset: 0x2A5F1, size: 0x8, addend: 0x0, symName: __ZN5Eigen8internal9evaluatorINS_9TransposeINS_5ArrayIiLin1ELi1ELi0ELin1ELi1EEEEEEC2ERKS5_, symObjAddr: 0x6660, symBinAddr: 0x100009DE4, symSize: 0x34 }
  - { offsetInCU: 0x2A629, offset: 0x2A629, size: 0x8, addend: 0x0, symName: __ZN5Eigen8internal15unary_evaluatorINS_9TransposeINS_5ArrayIiLin1ELi1ELi0ELin1ELi1EEEEENS0_10IndexBasedEiEC2ERKS5_, symObjAddr: 0x6694, symBinAddr: 0x100009E18, symSize: 0x74 }
  - { offsetInCU: 0x2A662, offset: 0x2A662, size: 0x8, addend: 0x0, symName: __ZN5Eigen8internal14evaluator_baseINS_9TransposeINS_5ArrayIiLin1ELi1ELi0ELin1ELi1EEEEEEC2Ev, symObjAddr: 0x6708, symBinAddr: 0x100009E8C, symSize: 0x14 }
  - { offsetInCU: 0x2A68C, offset: 0x2A68C, size: 0x8, addend: 0x0, symName: __ZNK5Eigen9TransposeINS_5ArrayIiLin1ELi1ELi0ELin1ELi1EEEE16nestedExpressionEv, symObjAddr: 0x671C, symBinAddr: 0x100009EA0, symSize: 0x18 }
  - { offsetInCU: 0x2A6B2, offset: 0x2A6B2, size: 0x8, addend: 0x0, symName: __ZN5Eigen8internal14evaluator_baseINS_9TransposeINS_5ArrayIiLin1ELi1ELi0ELin1ELi1EEEEEED2Ev, symObjAddr: 0x6734, symBinAddr: 0x100009EB8, symSize: 0x14 }
  - { offsetInCU: 0x2A6DC, offset: 0x2A6DC, size: 0x8, addend: 0x0, symName: __ZN5Eigen8internal31generic_dense_assignment_kernelINS0_9evaluatorINS_9TransposeINS_5ArrayIiLin1ELi1ELi0ELin1ELi1EEEEEEENS2_INS_5BlockINS4_IiLin1ELin1ELi0ELin1ELin1EEELi1ELin1ELb0EEEEENS0_9assign_opIiiEELi0EEC2ERS7_RKSB_RKSD_RS6_, symObjAddr: 0x6748, symBinAddr: 0x100009ECC, symSize: 0x44 }
  - { offsetInCU: 0x2A742, offset: 0x2A742, size: 0x8, addend: 0x0, symName: __ZNK5Eigen8internal31generic_dense_assignment_kernelINS0_9evaluatorINS_9TransposeINS_5ArrayIiLin1ELi1ELi0ELin1ELi1EEEEEEENS2_INS_5BlockINS4_IiLin1ELin1ELi0ELin1ELin1EEELi1ELin1ELb0EEEEENS0_9assign_opIiiEELi0EE4sizeEv, symObjAddr: 0x678C, symBinAddr: 0x100009F10, symSize: 0x28 }
  - { offsetInCU: 0x2A768, offset: 0x2A768, size: 0x8, addend: 0x0, symName: __ZN5Eigen8internal31generic_dense_assignment_kernelINS0_9evaluatorINS_9TransposeINS_5ArrayIiLin1ELi1ELi0ELin1ELi1EEEEEEENS2_INS_5BlockINS4_IiLin1ELin1ELi0ELin1ELin1EEELi1ELin1ELb0EEEEENS0_9assign_opIiiEELi0EE11assignCoeffEl, symObjAddr: 0x67B4, symBinAddr: 0x100009F38, symSize: 0x60 }
  - { offsetInCU: 0x2A79D, offset: 0x2A79D, size: 0x8, addend: 0x0, symName: __ZNK5Eigen9EigenBaseINS_9TransposeINS_5ArrayIiLin1ELi1ELi0ELin1ELi1EEEEEE4sizeEv, symObjAddr: 0x6814, symBinAddr: 0x100009F98, symSize: 0x44 }
  - { offsetInCU: 0x2A7C3, offset: 0x2A7C3, size: 0x8, addend: 0x0, symName: __ZNK5Eigen9EigenBaseINS_9TransposeINS_5ArrayIiLin1ELi1ELi0ELin1ELi1EEEEEE4rowsEv, symObjAddr: 0x6858, symBinAddr: 0x100009FDC, symSize: 0x38 }
  - { offsetInCU: 0x2A7E9, offset: 0x2A7E9, size: 0x8, addend: 0x0, symName: __ZNK5Eigen9EigenBaseINS_9TransposeINS_5ArrayIiLin1ELi1ELi0ELin1ELi1EEEEEE4colsEv, symObjAddr: 0x6890, symBinAddr: 0x10000A014, symSize: 0x28 }
  - { offsetInCU: 0x2A80F, offset: 0x2A80F, size: 0x8, addend: 0x0, symName: __ZNK5Eigen9EigenBaseINS_9TransposeINS_5ArrayIiLin1ELi1ELi0ELin1ELi1EEEEEE7derivedEv, symObjAddr: 0x68B8, symBinAddr: 0x10000A03C, symSize: 0x14 }
  - { offsetInCU: 0x2A835, offset: 0x2A835, size: 0x8, addend: 0x0, symName: __ZNK5Eigen8internal9assign_opIiiE11assignCoeffERiRKi, symObjAddr: 0x68CC, symBinAddr: 0x10000A050, symSize: 0x28 }
  - { offsetInCU: 0x2A877, offset: 0x2A877, size: 0x8, addend: 0x0, symName: __ZN5Eigen8internal15unary_evaluatorINS_9TransposeINS_5ArrayIiLin1ELi1ELi0ELin1ELi1EEEEENS0_10IndexBasedEiE8coeffRefEl, symObjAddr: 0x68F4, symBinAddr: 0x10000A078, symSize: 0x2C }
  - { offsetInCU: 0x2A8AC, offset: 0x2A8AC, size: 0x8, addend: 0x0, symName: __ZNK5Eigen8internal17mapbase_evaluatorINS_5BlockINS_5ArrayIiLin1ELin1ELi0ELin1ELin1EEELi1ELin1ELb0EEENS3_IiLi1ELin1ELi1ELi1ELin1EEEE5coeffEl, symObjAddr: 0x6920, symBinAddr: 0x10000A0A4, symSize: 0x4C }
  - { offsetInCU: 0x2A8E1, offset: 0x2A8E1, size: 0x8, addend: 0x0, symName: __ZN5Eigen8internal9evaluatorINS_15PlainObjectBaseINS_5ArrayIiLin1ELi1ELi0ELin1ELi1EEEEEE8coeffRefEl, symObjAddr: 0x696C, symBinAddr: 0x10000A0F0, symSize: 0x24 }
  - { offsetInCU: 0x2A915, offset: 0x2A915, size: 0x8, addend: 0x0, symName: __ZN5Eigen8internal9evaluatorINS_9TransposeINS_5ArrayIiLin1ELi1ELi0ELin1ELi1EEEEEED2Ev, symObjAddr: 0x6990, symBinAddr: 0x10000A114, symSize: 0x2C }
  - { offsetInCU: 0x2A941, offset: 0x2A941, size: 0x8, addend: 0x0, symName: __ZN5Eigen8internal15unary_evaluatorINS_9TransposeINS_5ArrayIiLin1ELi1ELi0ELin1ELi1EEEEENS0_10IndexBasedEiED2Ev, symObjAddr: 0x69BC, symBinAddr: 0x10000A140, symSize: 0x34 }
  - { offsetInCU: 0x2A96D, offset: 0x2A96D, size: 0x8, addend: 0x0, symName: __ZN5Eigen8internal9evaluatorINS_5BlockINS_5ArrayIiLin1ELin1ELi0ELin1ELin1EEELi1ELin1ELb0EEEED2Ev, symObjAddr: 0x69F0, symBinAddr: 0x10000A174, symSize: 0x2C }
  - { offsetInCU: 0x2A99A, offset: 0x2A99A, size: 0x8, addend: 0x0, symName: __ZN5Eigen8internal15block_evaluatorINS_5ArrayIiLin1ELin1ELi0ELin1ELin1EEELi1ELin1ELb0ELb1EED2Ev, symObjAddr: 0x6A1C, symBinAddr: 0x10000A1A0, symSize: 0x2C }
  - { offsetInCU: 0x2A9C7, offset: 0x2A9C7, size: 0x8, addend: 0x0, symName: __ZN5Eigen8internal9assign_opIiiEC2Ev, symObjAddr: 0x6A48, symBinAddr: 0x10000A1CC, symSize: 0x14 }
  - { offsetInCU: 0x2A9F1, offset: 0x2A9F1, size: 0x8, addend: 0x0, symName: __ZN5Eigen9EigenBaseINS_5BlockINS_5ArrayIiLin1ELin1ELi0ELin1ELin1EEELi1ELin1ELb0EEEE7derivedEv, symObjAddr: 0x6A5C, symBinAddr: 0x10000A1E0, symSize: 0x14 }
  - { offsetInCU: 0x2AA17, offset: 0x2AA17, size: 0x8, addend: 0x0, symName: __ZN5Eigen11VectorBlockINS_5BlockINS_5ArrayIiLin1ELin1ELi0ELin1ELin1EEELi1ELin1ELb0EEELin1EEC1ERS4_ll, symObjAddr: 0x6A88, symBinAddr: 0x10000A20C, symSize: 0x44 }
  - { offsetInCU: 0x2AA6B, offset: 0x2AA6B, size: 0x8, addend: 0x0, symName: __ZN5Eigen11VectorBlockINS_5BlockINS_5ArrayIiLin1ELin1ELi0ELin1ELin1EEELi1ELin1ELb0EEELin1EEC2ERS4_ll, symObjAddr: 0x6ACC, symBinAddr: 0x10000A250, symSize: 0x4C }
  - { offsetInCU: 0x2AABF, offset: 0x2AABF, size: 0x8, addend: 0x0, symName: __ZN5Eigen5BlockINS0_INS_5ArrayIiLin1ELin1ELi0ELin1ELin1EEELi1ELin1ELb0EEELi1ELin1ELb0EEC2ERS3_llll, symObjAddr: 0x6B18, symBinAddr: 0x10000A29C, symSize: 0x1B0 }
  - { offsetInCU: 0x2AB2F, offset: 0x2AB2F, size: 0x8, addend: 0x0, symName: __ZN5Eigen9BlockImplINS_5BlockINS_5ArrayIiLin1ELin1ELi0ELin1ELin1EEELi1ELin1ELb0EEELi1ELin1ELb0ENS_5DenseEEC2ERS4_llll, symObjAddr: 0x6CC8, symBinAddr: 0x10000A44C, symSize: 0x54 }
  - { offsetInCU: 0x2AB9F, offset: 0x2AB9F, size: 0x8, addend: 0x0, symName: __ZN5Eigen8internal15BlockImpl_denseINS_5BlockINS_5ArrayIiLin1ELin1ELi0ELin1ELin1EEELi1ELin1ELb0EEELi1ELin1ELb0ELb1EEC2ERS5_llll, symObjAddr: 0x6D1C, symBinAddr: 0x10000A4A0, symSize: 0xD0 }
  - { offsetInCU: 0x2AC14, offset: 0x2AC14, size: 0x8, addend: 0x0, symName: __ZN5Eigen7MapBaseINS_5BlockINS_5ArrayIiLin1ELin1ELi0ELin1ELin1EEELi1ELin1ELb0EEELi1EE4dataEv, symObjAddr: 0x6DEC, symBinAddr: 0x10000A570, symSize: 0x18 }
  - { offsetInCU: 0x2AC3A, offset: 0x2AC3A, size: 0x8, addend: 0x0, symName: __ZN5Eigen7MapBaseINS_5BlockINS1_INS_5ArrayIiLin1ELin1ELi0ELin1ELin1EEELi1ELin1ELb0EEELi1ELin1ELb0EEELi1EEC2EPill, symObjAddr: 0x6E04, symBinAddr: 0x10000A588, symSize: 0x44 }
  - { offsetInCU: 0x2AC91, offset: 0x2AC91, size: 0x8, addend: 0x0, symName: __ZN5Eigen8internal15BlockImpl_denseINS_5BlockINS_5ArrayIiLin1ELin1ELi0ELin1ELin1EEELi1ELin1ELb0EEELi1ELin1ELb0ELb1EE4initEv, symObjAddr: 0x6E48, symBinAddr: 0x10000A5CC, symSize: 0x34 }
  - { offsetInCU: 0x2ACB7, offset: 0x2ACB7, size: 0x8, addend: 0x0, symName: __ZN5Eigen7MapBaseINS_5BlockINS1_INS_5ArrayIiLin1ELin1ELi0ELin1ELin1EEELi1ELin1ELb0EEELi1ELin1ELb0EEELi0EEC2EPill, symObjAddr: 0x6E7C, symBinAddr: 0x10000A600, symSize: 0x130 }
  - { offsetInCU: 0x2AD0B, offset: 0x2AD0B, size: 0x8, addend: 0x0, symName: __ZN5Eigen9ArrayBaseINS_5BlockINS1_INS_5ArrayIiLin1ELin1ELi0ELin1ELin1EEELi1ELin1ELb0EEELi1ELin1ELb0EEEEC2Ev, symObjAddr: 0x6FAC, symBinAddr: 0x10000A730, symSize: 0x2C }
  - { offsetInCU: 0x2AD35, offset: 0x2AD35, size: 0x8, addend: 0x0, symName: __ZNK5Eigen7MapBaseINS_5BlockINS1_INS_5ArrayIiLin1ELin1ELi0ELin1ELin1EEELi1ELin1ELb0EEELi1ELin1ELb0EEELi0EE11checkSanityIS5_EEvNS_8internal9enable_ifIXeqsr8internal6traitsIT_EE9AlignmentLi0EEPvE4typeE, symObjAddr: 0x6FD8, symBinAddr: 0x10000A75C, symSize: 0x14 }
  - { offsetInCU: 0x2AD6F, offset: 0x2AD6F, size: 0x8, addend: 0x0, symName: __ZN5Eigen9DenseBaseINS_5BlockINS1_INS_5ArrayIiLin1ELin1ELi0ELin1ELin1EEELi1ELin1ELb0EEELi1ELin1ELb0EEEEC2Ev, symObjAddr: 0x6FEC, symBinAddr: 0x10000A770, symSize: 0x14 }
  - { offsetInCU: 0x2AD99, offset: 0x2AD99, size: 0x8, addend: 0x0, symName: __ZN5Eigen9DenseBaseINS_5BlockINS1_INS_5ArrayIiLin1ELin1ELi0ELin1ELin1EEELi1ELin1ELb0EEELi1ELin1ELb0EEEE11setConstantERKi, symObjAddr: 0x7000, symBinAddr: 0x10000A784, symSize: 0x64 }
  - { offsetInCU: 0x2ADD1, offset: 0x2ADD1, size: 0x8, addend: 0x0, symName: __ZN5Eigen9DenseBaseINS_5BlockINS1_INS_5ArrayIiLin1ELin1ELi0ELin1ELin1EEELi1ELin1ELb0EEELi1ELin1ELb0EEEE8ConstantEllRKi, symObjAddr: 0x7064, symBinAddr: 0x10000A7E8, symSize: 0x60 }
  - { offsetInCU: 0x2AE15, offset: 0x2AE15, size: 0x8, addend: 0x0, symName: __ZNK5Eigen9EigenBaseINS_5BlockINS1_INS_5ArrayIiLin1ELin1ELi0ELin1ELin1EEELi1ELin1ELb0EEELi1ELin1ELb0EEEE4rowsEv, symObjAddr: 0x70C4, symBinAddr: 0x10000A848, symSize: 0x38 }
  - { offsetInCU: 0x2AE3B, offset: 0x2AE3B, size: 0x8, addend: 0x0, symName: __ZNK5Eigen9EigenBaseINS_5BlockINS1_INS_5ArrayIiLin1ELin1ELi0ELin1ELin1EEELi1ELin1ELb0EEELi1ELin1ELb0EEEE4colsEv, symObjAddr: 0x70FC, symBinAddr: 0x10000A880, symSize: 0x28 }
  - { offsetInCU: 0x2AE61, offset: 0x2AE61, size: 0x8, addend: 0x0, symName: __ZN5Eigen9EigenBaseINS_5BlockINS1_INS_5ArrayIiLin1ELin1ELi0ELin1ELin1EEELi1ELin1ELb0EEELi1ELin1ELb0EEEE7derivedEv, symObjAddr: 0x7124, symBinAddr: 0x10000A8A8, symSize: 0x14 }
  - { offsetInCU: 0x2AE87, offset: 0x2AE87, size: 0x8, addend: 0x0, symName: __ZN5Eigen5BlockINS0_INS_5ArrayIiLin1ELin1ELi0ELin1ELin1EEELi1ELin1ELb0EEELi1ELin1ELb0EEaSINS_14CwiseNullaryOpINS_8internal18scalar_constant_opIiEENS1_IiLi1ELin1ELi1ELi1ELin1EEEEEEERS4_RKNS_9DenseBaseIT_EE, symObjAddr: 0x7138, symBinAddr: 0x10000A8BC, symSize: 0x40 }
  - { offsetInCU: 0x2AEC4, offset: 0x2AEC4, size: 0x8, addend: 0x0, symName: __ZN5Eigen9DenseBaseINS_5BlockINS1_INS_5ArrayIiLin1ELin1ELi0ELin1ELin1EEELi1ELin1ELb0EEELi1ELin1ELb0EEEE11NullaryExprINS_8internal18scalar_constant_opIiEEEEKNS_14CwiseNullaryOpIT_NS2_IiLi1ELin1ELi1ELi1ELin1EEEEEllRKSC_, symObjAddr: 0x7178, symBinAddr: 0x10000A8FC, symSize: 0x48 }
  - { offsetInCU: 0x2AF11, offset: 0x2AF11, size: 0x8, addend: 0x0, symName: __ZN5Eigen8internal18scalar_constant_opIiEC1ERKi, symObjAddr: 0x71C0, symBinAddr: 0x10000A944, symSize: 0x34 }
  - { offsetInCU: 0x2AF49, offset: 0x2AF49, size: 0x8, addend: 0x0, symName: __ZN5Eigen14CwiseNullaryOpINS_8internal18scalar_constant_opIiEENS_5ArrayIiLi1ELin1ELi1ELi1ELin1EEEEC1EllRKS3_, symObjAddr: 0x71F4, symBinAddr: 0x10000A978, symSize: 0x44 }
  - { offsetInCU: 0x2AF9D, offset: 0x2AF9D, size: 0x8, addend: 0x0, symName: __ZN5Eigen14CwiseNullaryOpINS_8internal18scalar_constant_opIiEENS_5ArrayIiLi1ELin1ELi1ELi1ELin1EEEEC2EllRKS3_, symObjAddr: 0x7238, symBinAddr: 0x10000A9BC, symSize: 0xFC }
  - { offsetInCU: 0x2AFF1, offset: 0x2AFF1, size: 0x8, addend: 0x0, symName: __ZN5Eigen9ArrayBaseINS_14CwiseNullaryOpINS_8internal18scalar_constant_opIiEENS_5ArrayIiLi1ELin1ELi1ELi1ELin1EEEEEEC2Ev, symObjAddr: 0x7334, symBinAddr: 0x10000AAB8, symSize: 0x2C }
  - { offsetInCU: 0x2B01B, offset: 0x2B01B, size: 0x8, addend: 0x0, symName: __ZN5Eigen8internal18scalar_constant_opIiEC1ERKS2_, symObjAddr: 0x7360, symBinAddr: 0x10000AAE4, symSize: 0x34 }
  - { offsetInCU: 0x2B053, offset: 0x2B053, size: 0x8, addend: 0x0, symName: __ZN5Eigen9DenseBaseINS_14CwiseNullaryOpINS_8internal18scalar_constant_opIiEENS_5ArrayIiLi1ELin1ELi1ELi1ELin1EEEEEEC2Ev, symObjAddr: 0x7394, symBinAddr: 0x10000AB18, symSize: 0x14 }
  - { offsetInCU: 0x2B07D, offset: 0x2B07D, size: 0x8, addend: 0x0, symName: __ZN5Eigen8internal18scalar_constant_opIiEC2ERKS2_, symObjAddr: 0x73A8, symBinAddr: 0x10000AB2C, symSize: 0x24 }
  - { offsetInCU: 0x2B0B5, offset: 0x2B0B5, size: 0x8, addend: 0x0, symName: __ZN5Eigen8internal18scalar_constant_opIiEC2ERKi, symObjAddr: 0x73CC, symBinAddr: 0x10000AB50, symSize: 0x24 }
  - { offsetInCU: 0x2B0ED, offset: 0x2B0ED, size: 0x8, addend: 0x0, symName: __ZNK5Eigen9EigenBaseINS_5BlockINS1_INS_5ArrayIiLin1ELin1ELi0ELin1ELin1EEELi1ELin1ELb0EEELi1ELin1ELb0EEEE7derivedEv, symObjAddr: 0x73F0, symBinAddr: 0x10000AB74, symSize: 0x14 }
  - { offsetInCU: 0x2B113, offset: 0x2B113, size: 0x8, addend: 0x0, symName: __ZNK5Eigen7MapBaseINS_5BlockINS1_INS_5ArrayIiLin1ELin1ELi0ELin1ELin1EEELi1ELin1ELb0EEELi1ELin1ELb0EEELi0EE4rowsEv, symObjAddr: 0x7404, symBinAddr: 0x10000AB88, symSize: 0x20 }
  - { offsetInCU: 0x2B139, offset: 0x2B139, size: 0x8, addend: 0x0, symName: __ZNK5Eigen7MapBaseINS_5BlockINS1_INS_5ArrayIiLin1ELin1ELi0ELin1ELin1EEELi1ELin1ELb0EEELi1ELin1ELb0EEELi0EE4colsEv, symObjAddr: 0x7424, symBinAddr: 0x10000ABA8, symSize: 0x28 }
  - { offsetInCU: 0x2B15F, offset: 0x2B15F, size: 0x8, addend: 0x0, symName: __ZN5Eigen9BlockImplINS_5BlockINS_5ArrayIiLin1ELin1ELi0ELin1ELin1EEELi1ELin1ELb0EEELi1ELin1ELb0ENS_5DenseEEaSINS_14CwiseNullaryOpINS_8internal18scalar_constant_opIiEENS2_IiLi1ELin1ELi1ELi1ELin1EEEEEEERS6_RKNS_9DenseBaseIT_EE, symObjAddr: 0x744C, symBinAddr: 0x10000ABD0, symSize: 0x40 }
  - { offsetInCU: 0x2B19C, offset: 0x2B19C, size: 0x8, addend: 0x0, symName: __ZNK5Eigen9EigenBaseINS_14CwiseNullaryOpINS_8internal18scalar_constant_opIiEENS_5ArrayIiLi1ELin1ELi1ELi1ELin1EEEEEE7derivedEv, symObjAddr: 0x748C, symBinAddr: 0x10000AC10, symSize: 0x14 }
  - { offsetInCU: 0x2B1C2, offset: 0x2B1C2, size: 0x8, addend: 0x0, symName: __ZN5Eigen8internal15BlockImpl_denseINS_5BlockINS_5ArrayIiLin1ELin1ELi0ELin1ELin1EEELi1ELin1ELb0EEELi1ELin1ELb0ELb1EEaSINS_14CwiseNullaryOpINS0_18scalar_constant_opIiEENS3_IiLi1ELin1ELi1ELi1ELin1EEEEEEERS6_RKNS_9DenseBaseIT_EE, symObjAddr: 0x74A0, symBinAddr: 0x10000AC24, symSize: 0x40 }
  - { offsetInCU: 0x2B200, offset: 0x2B200, size: 0x8, addend: 0x0, symName: __ZN5Eigen9DenseBaseINS_5BlockINS1_INS_5ArrayIiLin1ELin1ELi0ELin1ELin1EEELi1ELin1ELb0EEELi1ELin1ELb0EEEEaSINS_14CwiseNullaryOpINS_8internal18scalar_constant_opIiEENS2_IiLi1ELin1ELi1ELi1ELin1EEEEEEERS5_RKNS0_IT_EE, symObjAddr: 0x74E0, symBinAddr: 0x10000AC64, symSize: 0x4C }
  - { offsetInCU: 0x2B240, offset: 0x2B240, size: 0x8, addend: 0x0, symName: __ZN5Eigen8internal10AssignmentINS_5BlockINS2_INS_5ArrayIiLin1ELin1ELi0ELin1ELin1EEELi1ELin1ELb0EEELi1ELin1ELb0EEENS_14CwiseNullaryOpINS0_18scalar_constant_opIiEENS3_IiLi1ELin1ELi1ELi1ELin1EEEEENS0_9assign_opIiiEENS0_11Dense2DenseEvE3runERS6_RKSB_RKSD_, symObjAddr: 0x75F0, symBinAddr: 0x10000AD74, symSize: 0x40 }
  - { offsetInCU: 0x2B2A5, offset: 0x2B2A5, size: 0x8, addend: 0x0, symName: __ZN5Eigen8internal9evaluatorINS_14CwiseNullaryOpINS0_18scalar_constant_opIiEENS_5ArrayIiLi1ELin1ELi1ELi1ELin1EEEEEEC1ERKS7_, symObjAddr: 0x7724, symBinAddr: 0x10000AEA8, symSize: 0x34 }
  - { offsetInCU: 0x2B2FC, offset: 0x2B2FC, size: 0x8, addend: 0x0, symName: __ZN5Eigen8internal9evaluatorINS_5BlockINS2_INS_5ArrayIiLin1ELin1ELi0ELin1ELin1EEELi1ELin1ELb0EEELi1ELin1ELb0EEEEC1ERKS6_, symObjAddr: 0x7850, symBinAddr: 0x10000AFD4, symSize: 0x34 }
  - { offsetInCU: 0x2B335, offset: 0x2B335, size: 0x8, addend: 0x0, symName: __ZNK5Eigen9EigenBaseINS_5BlockINS1_INS_5ArrayIiLin1ELin1ELi0ELin1ELin1EEELi1ELin1ELb0EEELi1ELin1ELb0EEEE18const_cast_derivedEv, symObjAddr: 0x7884, symBinAddr: 0x10000B008, symSize: 0x14 }
  - { offsetInCU: 0x2B388, offset: 0x2B388, size: 0x8, addend: 0x0, symName: __ZN5Eigen8internal31generic_dense_assignment_kernelINS0_9evaluatorINS_5BlockINS3_INS_5ArrayIiLin1ELin1ELi0ELin1ELin1EEELi1ELin1ELb0EEELi1ELin1ELb0EEEEENS2_INS_14CwiseNullaryOpINS0_18scalar_constant_opIiEENS4_IiLi1ELin1ELi1ELi1ELin1EEEEEEENS0_9assign_opIiiEELi0EEC1ERS8_RKSE_RKSG_RS7_, symObjAddr: 0x7898, symBinAddr: 0x10000B01C, symSize: 0x4C }
  - { offsetInCU: 0x2B3F3, offset: 0x2B3F3, size: 0x8, addend: 0x0, symName: __ZN5Eigen8internal21dense_assignment_loopINS0_31generic_dense_assignment_kernelINS0_9evaluatorINS_5BlockINS4_INS_5ArrayIiLin1ELin1ELi0ELin1ELin1EEELi1ELin1ELb0EEELi1ELin1ELb0EEEEENS3_INS_14CwiseNullaryOpINS0_18scalar_constant_opIiEENS5_IiLi1ELin1ELi1ELi1ELin1EEEEEEENS0_9assign_opIiiEELi0EEELi1ELi0EE3runERSI_, symObjAddr: 0x78E4, symBinAddr: 0x10000B068, symSize: 0x68 }
  - { offsetInCU: 0x2B443, offset: 0x2B443, size: 0x8, addend: 0x0, symName: __ZN5Eigen8internal9evaluatorINS_5BlockINS2_INS_5ArrayIiLin1ELin1ELi0ELin1ELin1EEELi1ELin1ELb0EEELi1ELin1ELb0EEEED1Ev, symObjAddr: 0x794C, symBinAddr: 0x10000B0D0, symSize: 0x2C }
  - { offsetInCU: 0x2B470, offset: 0x2B470, size: 0x8, addend: 0x0, symName: __ZN5Eigen8internal9evaluatorINS_14CwiseNullaryOpINS0_18scalar_constant_opIiEENS_5ArrayIiLi1ELin1ELi1ELi1ELin1EEEEEED1Ev, symObjAddr: 0x7978, symBinAddr: 0x10000B0FC, symSize: 0x2C }
  - { offsetInCU: 0x2B49C, offset: 0x2B49C, size: 0x8, addend: 0x0, symName: __ZN5Eigen8internal9evaluatorINS_14CwiseNullaryOpINS0_18scalar_constant_opIiEENS_5ArrayIiLi1ELin1ELi1ELi1ELin1EEEEEEC2ERKS7_, symObjAddr: 0x79A4, symBinAddr: 0x10000B128, symSize: 0x74 }
  - { offsetInCU: 0x2B4D5, offset: 0x2B4D5, size: 0x8, addend: 0x0, symName: __ZN5Eigen8internal14evaluator_baseINS_14CwiseNullaryOpINS0_18scalar_constant_opIiEENS_5ArrayIiLi1ELin1ELi1ELi1ELin1EEEEEEC2Ev, symObjAddr: 0x7A18, symBinAddr: 0x10000B19C, symSize: 0x14 }
  - { offsetInCU: 0x2B4FF, offset: 0x2B4FF, size: 0x8, addend: 0x0, symName: __ZNK5Eigen14CwiseNullaryOpINS_8internal18scalar_constant_opIiEENS_5ArrayIiLi1ELin1ELi1ELi1ELin1EEEE7functorEv, symObjAddr: 0x7A2C, symBinAddr: 0x10000B1B0, symSize: 0x18 }
  - { offsetInCU: 0x2B525, offset: 0x2B525, size: 0x8, addend: 0x0, symName: __ZN5Eigen8internal14evaluator_baseINS_14CwiseNullaryOpINS0_18scalar_constant_opIiEENS_5ArrayIiLi1ELin1ELi1ELi1ELin1EEEEEED2Ev, symObjAddr: 0x7A44, symBinAddr: 0x10000B1C8, symSize: 0x14 }
  - { offsetInCU: 0x2B54F, offset: 0x2B54F, size: 0x8, addend: 0x0, symName: __ZNK5Eigen14CwiseNullaryOpINS_8internal18scalar_constant_opIiEENS_5ArrayIiLi1ELin1ELi1ELi1ELin1EEEE4rowsEv, symObjAddr: 0x7A58, symBinAddr: 0x10000B1DC, symSize: 0x20 }
  - { offsetInCU: 0x2B575, offset: 0x2B575, size: 0x8, addend: 0x0, symName: __ZNK5Eigen14CwiseNullaryOpINS_8internal18scalar_constant_opIiEENS_5ArrayIiLi1ELin1ELi1ELi1ELin1EEEE4colsEv, symObjAddr: 0x7A78, symBinAddr: 0x10000B1FC, symSize: 0x28 }
  - { offsetInCU: 0x2B59B, offset: 0x2B59B, size: 0x8, addend: 0x0, symName: __ZN5Eigen9DenseBaseINS_5BlockINS1_INS_5ArrayIiLin1ELin1ELi0ELin1ELin1EEELi1ELin1ELb0EEELi1ELin1ELb0EEEE6resizeEll, symObjAddr: 0x7AA0, symBinAddr: 0x10000B224, symSize: 0xBC }
  - { offsetInCU: 0x2B5DF, offset: 0x2B5DF, size: 0x8, addend: 0x0, symName: __ZN5Eigen8internal9evaluatorINS_5BlockINS2_INS_5ArrayIiLin1ELin1ELi0ELin1ELin1EEELi1ELin1ELb0EEELi1ELin1ELb0EEEEC2ERKS6_, symObjAddr: 0x7B5C, symBinAddr: 0x10000B2E0, symSize: 0x34 }
  - { offsetInCU: 0x2B618, offset: 0x2B618, size: 0x8, addend: 0x0, symName: __ZN5Eigen8internal15block_evaluatorINS_5BlockINS_5ArrayIiLin1ELin1ELi0ELin1ELin1EEELi1ELin1ELb0EEELi1ELin1ELb0ELb1EEC2ERKNS2_IS5_Li1ELin1ELb0EEE, symObjAddr: 0x7B90, symBinAddr: 0x10000B314, symSize: 0xDC }
  - { offsetInCU: 0x2B651, offset: 0x2B651, size: 0x8, addend: 0x0, symName: __ZN5Eigen8internal17mapbase_evaluatorINS_5BlockINS2_INS_5ArrayIiLin1ELin1ELi0ELin1ELin1EEELi1ELin1ELb0EEELi1ELin1ELb0EEENS3_IiLi1ELin1ELi1ELi1ELin1EEEEC2ERKS6_, symObjAddr: 0x7C6C, symBinAddr: 0x10000B3F0, symSize: 0xB0 }
  - { offsetInCU: 0x2B68A, offset: 0x2B68A, size: 0x8, addend: 0x0, symName: __ZNK5Eigen7MapBaseINS_5BlockINS1_INS_5ArrayIiLin1ELin1ELi0ELin1ELin1EEELi1ELin1ELb0EEELi1ELin1ELb0EEELi1EE4dataEv, symObjAddr: 0x7D1C, symBinAddr: 0x10000B4A0, symSize: 0x18 }
  - { offsetInCU: 0x2B6B0, offset: 0x2B6B0, size: 0x8, addend: 0x0, symName: __ZN5Eigen8internal17mapbase_evaluatorINS_5BlockINS2_INS_5ArrayIiLin1ELin1ELi0ELin1ELin1EEELi1ELin1ELb0EEELi1ELin1ELb0EEENS3_IiLi1ELin1ELi1ELi1ELin1EEEED2Ev, symObjAddr: 0x7D34, symBinAddr: 0x10000B4B8, symSize: 0x2C }
  - { offsetInCU: 0x2B6DD, offset: 0x2B6DD, size: 0x8, addend: 0x0, symName: __ZN5Eigen8internal14evaluator_baseINS_5BlockINS2_INS_5ArrayIiLin1ELin1ELi0ELin1ELin1EEELi1ELin1ELb0EEELi1ELin1ELb0EEEEC2Ev, symObjAddr: 0x7D60, symBinAddr: 0x10000B4E4, symSize: 0x14 }
  - { offsetInCU: 0x2B707, offset: 0x2B707, size: 0x8, addend: 0x0, symName: __ZNK5Eigen8internal15BlockImpl_denseINS_5BlockINS_5ArrayIiLin1ELin1ELi0ELin1ELin1EEELi1ELin1ELb0EEELi1ELin1ELb0ELb1EE11innerStrideEv, symObjAddr: 0x7D74, symBinAddr: 0x10000B4F8, symSize: 0x28 }
  - { offsetInCU: 0x2B72D, offset: 0x2B72D, size: 0x8, addend: 0x0, symName: __ZNK5Eigen8internal15BlockImpl_denseINS_5BlockINS_5ArrayIiLin1ELin1ELi0ELin1ELin1EEELi1ELin1ELb0EEELi1ELin1ELb0ELb1EE11outerStrideEv, symObjAddr: 0x7D9C, symBinAddr: 0x10000B520, symSize: 0x28 }
  - { offsetInCU: 0x2B753, offset: 0x2B753, size: 0x8, addend: 0x0, symName: __ZN5Eigen8internal14evaluator_baseINS_5BlockINS2_INS_5ArrayIiLin1ELin1ELi0ELin1ELin1EEELi1ELin1ELb0EEELi1ELin1ELb0EEEED2Ev, symObjAddr: 0x7DC4, symBinAddr: 0x10000B548, symSize: 0x14 }
  - { offsetInCU: 0x2B77D, offset: 0x2B77D, size: 0x8, addend: 0x0, symName: __ZN5Eigen8internal31generic_dense_assignment_kernelINS0_9evaluatorINS_5BlockINS3_INS_5ArrayIiLin1ELin1ELi0ELin1ELin1EEELi1ELin1ELb0EEELi1ELin1ELb0EEEEENS2_INS_14CwiseNullaryOpINS0_18scalar_constant_opIiEENS4_IiLi1ELin1ELi1ELi1ELin1EEEEEEENS0_9assign_opIiiEELi0EEC2ERS8_RKSE_RKSG_RS7_, symObjAddr: 0x7DD8, symBinAddr: 0x10000B55C, symSize: 0x44 }
  - { offsetInCU: 0x2B7E3, offset: 0x2B7E3, size: 0x8, addend: 0x0, symName: __ZNK5Eigen8internal31generic_dense_assignment_kernelINS0_9evaluatorINS_5BlockINS3_INS_5ArrayIiLin1ELin1ELi0ELin1ELin1EEELi1ELin1ELb0EEELi1ELin1ELb0EEEEENS2_INS_14CwiseNullaryOpINS0_18scalar_constant_opIiEENS4_IiLi1ELin1ELi1ELi1ELin1EEEEEEENS0_9assign_opIiiEELi0EE4sizeEv, symObjAddr: 0x7E1C, symBinAddr: 0x10000B5A0, symSize: 0x28 }
  - { offsetInCU: 0x2B809, offset: 0x2B809, size: 0x8, addend: 0x0, symName: __ZN5Eigen8internal31generic_dense_assignment_kernelINS0_9evaluatorINS_5BlockINS3_INS_5ArrayIiLin1ELin1ELi0ELin1ELin1EEELi1ELin1ELb0EEELi1ELin1ELb0EEEEENS2_INS_14CwiseNullaryOpINS0_18scalar_constant_opIiEENS4_IiLi1ELin1ELi1ELi1ELin1EEEEEEENS0_9assign_opIiiEELi0EE11assignCoeffEl, symObjAddr: 0x7E44, symBinAddr: 0x10000B5C8, symSize: 0x68 }
  - { offsetInCU: 0x2B83E, offset: 0x2B83E, size: 0x8, addend: 0x0, symName: __ZNK5Eigen9EigenBaseINS_5BlockINS1_INS_5ArrayIiLin1ELin1ELi0ELin1ELin1EEELi1ELin1ELb0EEELi1ELin1ELb0EEEE4sizeEv, symObjAddr: 0x7EAC, symBinAddr: 0x10000B630, symSize: 0x44 }
  - { offsetInCU: 0x2B864, offset: 0x2B864, size: 0x8, addend: 0x0, symName: __ZN5Eigen8internal17mapbase_evaluatorINS_5BlockINS2_INS_5ArrayIiLin1ELin1ELi0ELin1ELin1EEELi1ELin1ELb0EEELi1ELin1ELb0EEENS3_IiLi1ELin1ELi1ELi1ELin1EEEE8coeffRefEl, symObjAddr: 0x7EF0, symBinAddr: 0x10000B674, symSize: 0x4C }
  - { offsetInCU: 0x2B8A3, offset: 0x2B8A3, size: 0x8, addend: 0x0, symName: __ZNK5Eigen8internal9evaluatorINS_14CwiseNullaryOpINS0_18scalar_constant_opIiEENS_5ArrayIiLi1ELin1ELi1ELi1ELin1EEEEEE5coeffIlEEiT_, symObjAddr: 0x7F3C, symBinAddr: 0x10000B6C0, symSize: 0x38 }
  - { offsetInCU: 0x2B8E6, offset: 0x2B8E6, size: 0x8, addend: 0x0, symName: __ZNK5Eigen8internal15nullary_wrapperIiNS0_18scalar_constant_opIiEELb1ELb0ELb0EEclIlEEiRKS3_T_S8_, symObjAddr: 0x7F74, symBinAddr: 0x10000B6F8, symSize: 0x30 }
  - { offsetInCU: 0x2B93A, offset: 0x2B93A, size: 0x8, addend: 0x0, symName: __ZNK5Eigen8internal18scalar_constant_opIiEclEv, symObjAddr: 0x7FA4, symBinAddr: 0x10000B728, symSize: 0x18 }
  - { offsetInCU: 0x2B960, offset: 0x2B960, size: 0x8, addend: 0x0, symName: __ZN5Eigen8internal9evaluatorINS_5BlockINS2_INS_5ArrayIiLin1ELin1ELi0ELin1ELin1EEELi1ELin1ELb0EEELi1ELin1ELb0EEEED2Ev, symObjAddr: 0x7FBC, symBinAddr: 0x10000B740, symSize: 0x2C }
  - { offsetInCU: 0x2B98D, offset: 0x2B98D, size: 0x8, addend: 0x0, symName: __ZN5Eigen8internal15block_evaluatorINS_5BlockINS_5ArrayIiLin1ELin1ELi0ELin1ELin1EEELi1ELin1ELb0EEELi1ELin1ELb0ELb1EED2Ev, symObjAddr: 0x7FE8, symBinAddr: 0x10000B76C, symSize: 0x2C }
  - { offsetInCU: 0x2B9BA, offset: 0x2B9BA, size: 0x8, addend: 0x0, symName: __ZN5Eigen8internal9evaluatorINS_14CwiseNullaryOpINS0_18scalar_constant_opIiEENS_5ArrayIiLi1ELin1ELi1ELi1ELin1EEEEEED2Ev, symObjAddr: 0x8014, symBinAddr: 0x10000B798, symSize: 0x2C }
  - { offsetInCU: 0x2B9E6, offset: 0x2B9E6, size: 0x8, addend: 0x0, symName: __ZNSt3__19basic_iosIcNS_11char_traitsIcEEEC2B8ue170006Ev, symObjAddr: 0x8040, symBinAddr: 0x10000B7C4, symSize: 0x44 }
  - { offsetInCU: 0x2BA10, offset: 0x2BA10, size: 0x8, addend: 0x0, symName: __ZNSt3__113basic_ostreamIcNS_11char_traitsIcEEEC2B8ue170006EPNS_15basic_streambufIcS2_EE, symObjAddr: 0x8084, symBinAddr: 0x10000B808, symSize: 0x60 }
  - { offsetInCU: 0x2BA55, offset: 0x2BA55, size: 0x8, addend: 0x0, symName: __ZNSt3__19basic_iosIcNS_11char_traitsIcEEE8setstateB8ue170006Ej, symObjAddr: 0x80E4, symBinAddr: 0x10000B868, symSize: 0x2C }
  - { offsetInCU: 0x2BA8A, offset: 0x2BA8A, size: 0x8, addend: 0x0, symName: __ZNSt3__18ios_baseC2B8ue170006Ev, symObjAddr: 0x8110, symBinAddr: 0x10000B894, symSize: 0x24 }
  - { offsetInCU: 0x2BAB4, offset: 0x2BAB4, size: 0x8, addend: 0x0, symName: __ZNSt3__19basic_iosIcNS_11char_traitsIcEEE4initB8ue170006EPNS_15basic_streambufIcS2_EE, symObjAddr: 0x8134, symBinAddr: 0x10000B8B8, symSize: 0x44 }
  - { offsetInCU: 0x2BAEB, offset: 0x2BAEB, size: 0x8, addend: 0x0, symName: __ZNSt3__111char_traitsIcE3eofB8ue170006Ev, symObjAddr: 0x8178, symBinAddr: 0x10000B8FC, symSize: 0x8 }
  - { offsetInCU: 0x2BAFF, offset: 0x2BAFF, size: 0x8, addend: 0x0, symName: __ZNSt3__18ios_base8setstateB8ue170006Ej, symObjAddr: 0x8180, symBinAddr: 0x10000B904, symSize: 0x34 }
  - { offsetInCU: 0x2BB36, offset: 0x2BB36, size: 0x8, addend: 0x0, symName: __ZN5Eigen5ArrayIiLin1ELin1ELi0ELin1ELin1EEC2IiiEERKT_RKT0_, symObjAddr: 0x81B4, symBinAddr: 0x10000B938, symSize: 0x80 }
  - { offsetInCU: 0x2BB8E, offset: 0x2BB8E, size: 0x8, addend: 0x0, symName: __ZN5Eigen15PlainObjectBaseINS_5ArrayIiLin1ELin1ELi0ELin1ELin1EEEEC2Ev, symObjAddr: 0x8234, symBinAddr: 0x10000B9B8, symSize: 0x34 }
  - { offsetInCU: 0x2BBB8, offset: 0x2BBB8, size: 0x8, addend: 0x0, symName: __ZN5Eigen15PlainObjectBaseINS_5ArrayIiLin1ELin1ELi0ELin1ELin1EEEE22_check_template_paramsEv, symObjAddr: 0x8268, symBinAddr: 0x10000B9EC, symSize: 0x4 }
  - { offsetInCU: 0x2BBD1, offset: 0x2BBD1, size: 0x8, addend: 0x0, symName: __ZN5Eigen15PlainObjectBaseINS_5ArrayIiLin1ELin1ELi0ELin1ELin1EEEE6_init2IiiEEvllPNS_8internal9enable_ifILb1ET_E4typeE, symObjAddr: 0x826C, symBinAddr: 0x10000B9F0, symSize: 0x44 }
  - { offsetInCU: 0x2BC50, offset: 0x2BC50, size: 0x8, addend: 0x0, symName: __ZN5Eigen9ArrayBaseINS_5ArrayIiLin1ELin1ELi0ELin1ELin1EEEEC2Ev, symObjAddr: 0x82B0, symBinAddr: 0x10000BA34, symSize: 0x2C }
  - { offsetInCU: 0x2BC7A, offset: 0x2BC7A, size: 0x8, addend: 0x0, symName: __ZN5Eigen12DenseStorageIiLin1ELin1ELin1ELi0EEC1Ev, symObjAddr: 0x82DC, symBinAddr: 0x10000BA60, symSize: 0x2C }
  - { offsetInCU: 0x2BCA4, offset: 0x2BCA4, size: 0x8, addend: 0x0, symName: __ZN5Eigen9DenseBaseINS_5ArrayIiLin1ELin1ELi0ELin1ELin1EEEEC2Ev, symObjAddr: 0x8308, symBinAddr: 0x10000BA8C, symSize: 0x14 }
  - { offsetInCU: 0x2BCCE, offset: 0x2BCCE, size: 0x8, addend: 0x0, symName: __ZN5Eigen12DenseStorageIiLin1ELin1ELin1ELi0EEC2Ev, symObjAddr: 0x831C, symBinAddr: 0x10000BAA0, symSize: 0x20 }
  - { offsetInCU: 0x2BCF8, offset: 0x2BCF8, size: 0x8, addend: 0x0, symName: __ZN5Eigen15PlainObjectBaseINS_5ArrayIiLin1ELin1ELi0ELin1ELin1EEEE6resizeEll, symObjAddr: 0x833C, symBinAddr: 0x10000BAC0, symSize: 0x14C }
  - { offsetInCU: 0x2BD74, offset: 0x2BD74, size: 0x8, addend: 0x0, symName: __ZN5Eigen12DenseStorageIiLin1ELin1ELin1ELi0EE6resizeElll, symObjAddr: 0x8488, symBinAddr: 0x10000BC0C, symSize: 0xB4 }
  - { offsetInCU: 0x2BDC7, offset: 0x2BDC7, size: 0x8, addend: 0x0, symName: __ZN5Eigen16CommaInitializerINS_5ArrayIiLin1ELin1ELi0ELin1ELin1EEEEC1ERS2_RKi, symObjAddr: 0x853C, symBinAddr: 0x10000BCC0, symSize: 0x3C }
  - { offsetInCU: 0x2BE0D, offset: 0x2BE0D, size: 0x8, addend: 0x0, symName: __ZN5Eigen16CommaInitializerINS_5ArrayIiLin1ELin1ELi0ELin1ELin1EEEEC2ERS2_RKi, symObjAddr: 0x8578, symBinAddr: 0x10000BCFC, symSize: 0xF8 }
  - { offsetInCU: 0x2BE53, offset: 0x2BE53, size: 0x8, addend: 0x0, symName: __ZN5Eigen15PlainObjectBaseINS_5ArrayIiLin1ELin1ELi0ELin1ELin1EEEE8coeffRefEll, symObjAddr: 0x8670, symBinAddr: 0x10000BDF4, symSize: 0x6C }
  - { offsetInCU: 0x2BE95, offset: 0x2BE95, size: 0x8, addend: 0x0, symName: __ZN5Eigen16CommaInitializerINS_5ArrayIiLin1ELin1ELi0ELin1ELin1EEEED2Ev, symObjAddr: 0x86DC, symBinAddr: 0x10000BE60, symSize: 0x34 }
  - { offsetInCU: 0x2BEBF, offset: 0x2BEBF, size: 0x8, addend: 0x0, symName: __ZN5Eigen16CommaInitializerINS_5ArrayIiLin1ELin1ELi0ELin1ELin1EEEE8finishedEv, symObjAddr: 0x8710, symBinAddr: 0x10000BE94, symSize: 0xE8 }
  - { offsetInCU: 0x2BEE5, offset: 0x2BEE5, size: 0x8, addend: 0x0, symName: __ZNSt3__111char_traitsIcE6lengthB8ue170006EPKc, symObjAddr: 0x89E4, symBinAddr: 0x10000C168, symSize: 0x34 }
  - { offsetInCU: 0x2BF26, offset: 0x2BF26, size: 0x8, addend: 0x0, symName: __ZNKSt3__113basic_ostreamIcNS_11char_traitsIcEEE6sentrycvbB8ue170006Ev, symObjAddr: 0x8A18, symBinAddr: 0x10000C19C, symSize: 0x1C }
  - { offsetInCU: 0x2BF4C, offset: 0x2BF4C, size: 0x8, addend: 0x0, symName: __ZNSt3__119ostreambuf_iteratorIcNS_11char_traitsIcEEEC1B8ue170006ERNS_13basic_ostreamIcS2_EE, symObjAddr: 0x8C74, symBinAddr: 0x10000C3F8, symSize: 0x34 }
  - { offsetInCU: 0x2BF84, offset: 0x2BF84, size: 0x8, addend: 0x0, symName: __ZNKSt3__18ios_base5flagsB8ue170006Ev, symObjAddr: 0x8CA8, symBinAddr: 0x10000C42C, symSize: 0x18 }
  - { offsetInCU: 0x2BFAC, offset: 0x2BFAC, size: 0x8, addend: 0x0, symName: __ZNKSt3__19basic_iosIcNS_11char_traitsIcEEE4fillB8ue170006Ev, symObjAddr: 0x8CC0, symBinAddr: 0x10000C444, symSize: 0x64 }
  - { offsetInCU: 0x2BFD4, offset: 0x2BFD4, size: 0x8, addend: 0x0, symName: __ZNKSt3__119ostreambuf_iteratorIcNS_11char_traitsIcEEE6failedB8ue170006Ev, symObjAddr: 0x8D24, symBinAddr: 0x10000C4A8, symSize: 0x24 }
  - { offsetInCU: 0x2BFFA, offset: 0x2BFFA, size: 0x8, addend: 0x0, symName: __ZNKSt3__18ios_base5widthB8ue170006Ev, symObjAddr: 0x8D48, symBinAddr: 0x10000C4CC, symSize: 0x18 }
  - { offsetInCU: 0x2C022, offset: 0x2C022, size: 0x8, addend: 0x0, symName: __ZNSt3__115basic_streambufIcNS_11char_traitsIcEEE5sputnB8ue170006EPKcl, symObjAddr: 0x8D60, symBinAddr: 0x10000C4E4, symSize: 0x3C }
  - { offsetInCU: 0x2C064, offset: 0x2C064, size: 0x8, addend: 0x0, symName: __ZNSt3__112basic_stringIcNS_11char_traitsIcEENS_9allocatorIcEEEC1B8ue170006Emc, symObjAddr: 0x8D9C, symBinAddr: 0x10000C520, symSize: 0x3C }
  - { offsetInCU: 0x2C0AC, offset: 0x2C0AC, size: 0x8, addend: 0x0, symName: __ZNKSt3__112basic_stringIcNS_11char_traitsIcEENS_9allocatorIcEEE4dataB8ue170006Ev, symObjAddr: 0x8DD8, symBinAddr: 0x10000C55C, symSize: 0x28 }
  - { offsetInCU: 0x2C0D2, offset: 0x2C0D2, size: 0x8, addend: 0x0, symName: __ZNSt3__18ios_base5widthB8ue170006El, symObjAddr: 0x8E00, symBinAddr: 0x10000C584, symSize: 0x2C }
  - { offsetInCU: 0x2C118, offset: 0x2C118, size: 0x8, addend: 0x0, symName: __ZNSt3__112basic_stringIcNS_11char_traitsIcEENS_9allocatorIcEEEC2B8ue170006Emc, symObjAddr: 0x8E2C, symBinAddr: 0x10000C5B0, symSize: 0x4C }
  - { offsetInCU: 0x2C160, offset: 0x2C160, size: 0x8, addend: 0x0, symName: __ZNSt3__117__compressed_pairINS_12basic_stringIcNS_11char_traitsIcEENS_9allocatorIcEEE5__repES5_EC1B8ue170006INS_18__default_init_tagESA_EEOT_OT0_, symObjAddr: 0x8E78, symBinAddr: 0x10000C5FC, symSize: 0x3C }
  - { offsetInCU: 0x2C1B8, offset: 0x2C1B8, size: 0x8, addend: 0x0, symName: __ZNSt3__117__compressed_pairINS_12basic_stringIcNS_11char_traitsIcEENS_9allocatorIcEEE5__repES5_EC2B8ue170006INS_18__default_init_tagESA_EEOT_OT0_, symObjAddr: 0x8EB4, symBinAddr: 0x10000C638, symSize: 0x3C }
  - { offsetInCU: 0x2C210, offset: 0x2C210, size: 0x8, addend: 0x0, symName: __ZNSt3__122__compressed_pair_elemINS_12basic_stringIcNS_11char_traitsIcEENS_9allocatorIcEEE5__repELi0ELb0EEC2B8ue170006ENS_18__default_init_tagE, symObjAddr: 0x8EF0, symBinAddr: 0x10000C674, symSize: 0x14 }
  - { offsetInCU: 0x2C245, offset: 0x2C245, size: 0x8, addend: 0x0, symName: __ZNSt3__122__compressed_pair_elemINS_9allocatorIcEELi1ELb1EEC2B8ue170006ENS_18__default_init_tagE, symObjAddr: 0x8F04, symBinAddr: 0x10000C688, symSize: 0x2C }
  - { offsetInCU: 0x2C27A, offset: 0x2C27A, size: 0x8, addend: 0x0, symName: __ZNSt3__19allocatorIcEC2B8ue170006Ev, symObjAddr: 0x8F30, symBinAddr: 0x10000C6B4, symSize: 0x2C }
  - { offsetInCU: 0x2C2A4, offset: 0x2C2A4, size: 0x8, addend: 0x0, symName: __ZNSt3__116__non_trivial_ifILb1ENS_9allocatorIcEEEC2B8ue170006Ev, symObjAddr: 0x8F5C, symBinAddr: 0x10000C6E0, symSize: 0x14 }
  - { offsetInCU: 0x2C2CE, offset: 0x2C2CE, size: 0x8, addend: 0x0, symName: __ZNKSt3__112basic_stringIcNS_11char_traitsIcEENS_9allocatorIcEEE13__get_pointerB8ue170006Ev, symObjAddr: 0x8F84, symBinAddr: 0x10000C708, symSize: 0x54 }
  - { offsetInCU: 0x2C2F4, offset: 0x2C2F4, size: 0x8, addend: 0x0, symName: __ZNKSt3__112basic_stringIcNS_11char_traitsIcEENS_9allocatorIcEEE9__is_longB8ue170006Ev, symObjAddr: 0x8FD8, symBinAddr: 0x10000C75C, symSize: 0x38 }
  - { offsetInCU: 0x2C31A, offset: 0x2C31A, size: 0x8, addend: 0x0, symName: __ZNKSt3__112basic_stringIcNS_11char_traitsIcEENS_9allocatorIcEEE18__get_long_pointerB8ue170006Ev, symObjAddr: 0x9010, symBinAddr: 0x10000C794, symSize: 0x28 }
  - { offsetInCU: 0x2C340, offset: 0x2C340, size: 0x8, addend: 0x0, symName: __ZNKSt3__112basic_stringIcNS_11char_traitsIcEENS_9allocatorIcEEE19__get_short_pointerB8ue170006Ev, symObjAddr: 0x9038, symBinAddr: 0x10000C7BC, symSize: 0x28 }
  - { offsetInCU: 0x2C366, offset: 0x2C366, size: 0x8, addend: 0x0, symName: __ZNKSt3__117__compressed_pairINS_12basic_stringIcNS_11char_traitsIcEENS_9allocatorIcEEE5__repES5_E5firstB8ue170006Ev, symObjAddr: 0x9060, symBinAddr: 0x10000C7E4, symSize: 0x24 }
  - { offsetInCU: 0x2C38C, offset: 0x2C38C, size: 0x8, addend: 0x0, symName: __ZNKSt3__122__compressed_pair_elemINS_12basic_stringIcNS_11char_traitsIcEENS_9allocatorIcEEE5__repELi0ELb0EE5__getB8ue170006Ev, symObjAddr: 0x9084, symBinAddr: 0x10000C808, symSize: 0x14 }
  - { offsetInCU: 0x2C3B2, offset: 0x2C3B2, size: 0x8, addend: 0x0, symName: __ZNSt3__114pointer_traitsIPKcE10pointer_toB8ue170006ERS1_, symObjAddr: 0x9098, symBinAddr: 0x10000C81C, symSize: 0x14 }
  - { offsetInCU: 0x2C3D5, offset: 0x2C3D5, size: 0x8, addend: 0x0, symName: __ZNSt3__119ostreambuf_iteratorIcNS_11char_traitsIcEEEC2B8ue170006ERNS_13basic_ostreamIcS2_EE, symObjAddr: 0x90AC, symBinAddr: 0x10000C830, symSize: 0x54 }
  - { offsetInCU: 0x2C40D, offset: 0x2C40D, size: 0x8, addend: 0x0, symName: __ZNKSt3__19basic_iosIcNS_11char_traitsIcEEE5rdbufB8ue170006Ev, symObjAddr: 0x9100, symBinAddr: 0x10000C884, symSize: 0x24 }
  - { offsetInCU: 0x2C435, offset: 0x2C435, size: 0x8, addend: 0x0, symName: __ZNKSt3__18ios_base5rdbufB8ue170006Ev, symObjAddr: 0x9124, symBinAddr: 0x10000C8A8, symSize: 0x18 }
  - { offsetInCU: 0x2C45B, offset: 0x2C45B, size: 0x8, addend: 0x0, symName: __ZNSt3__111char_traitsIcE11eq_int_typeB8ue170006Eii, symObjAddr: 0x913C, symBinAddr: 0x10000C8C0, symSize: 0x28 }
  - { offsetInCU: 0x2C48E, offset: 0x2C48E, size: 0x8, addend: 0x0, symName: __ZNKSt3__19basic_iosIcNS_11char_traitsIcEEE5widenB8ue170006Ec, symObjAddr: 0x9164, symBinAddr: 0x10000C8E8, symSize: 0x84 }
  - { offsetInCU: 0x2C4FC, offset: 0x2C4FC, size: 0x8, addend: 0x0, symName: __ZNKSt3__15ctypeIcE5widenB8ue170006Ec, symObjAddr: 0x9214, symBinAddr: 0x10000C998, symSize: 0x38 }
  - { offsetInCU: 0x2C531, offset: 0x2C531, size: 0x8, addend: 0x0, symName: __ZNK5Eigen9DenseBaseINS_5ArrayIiLin1ELin1ELi0ELin1ELin1EEEE4evalEv, symObjAddr: 0x97E4, symBinAddr: 0x10000CF68, symSize: 0x24 }
  - { offsetInCU: 0x2C55C, offset: 0x2C55C, size: 0x8, addend: 0x0, symName: __ZNSt3__112basic_stringIcNS_11char_traitsIcEENS_9allocatorIcEEEC1B8ue170006ILi0EEEPKc, symObjAddr: 0x9808, symBinAddr: 0x10000CF8C, symSize: 0x34 }
  - { offsetInCU: 0x2C59B, offset: 0x2C59B, size: 0x8, addend: 0x0, symName: __ZN5Eigen8IOFormatC1EiiRKNSt3__112basic_stringIcNS1_11char_traitsIcEENS1_9allocatorIcEEEES9_S9_S9_S9_S9_c, symObjAddr: 0x983C, symBinAddr: 0x10000CFC0, symSize: 0x88 }
  - { offsetInCU: 0x2C643, offset: 0x2C643, size: 0x8, addend: 0x0, symName: __ZN5Eigen8IOFormatD1Ev, symObjAddr: 0x98C4, symBinAddr: 0x10000D048, symSize: 0x2C }
  - { offsetInCU: 0x2C66F, offset: 0x2C66F, size: 0x8, addend: 0x0, symName: __ZNK5Eigen9EigenBaseINS_5ArrayIiLin1ELin1ELi0ELin1ELin1EEEE4sizeEv, symObjAddr: 0x98F0, symBinAddr: 0x10000D074, symSize: 0x44 }
  - { offsetInCU: 0x2C695, offset: 0x2C695, size: 0x8, addend: 0x0, symName: __ZNSt3__18ios_base9precisionB8ue170006El, symObjAddr: 0x9980, symBinAddr: 0x10000D104, symSize: 0x2C }
  - { offsetInCU: 0x2C7A9, offset: 0x2C7A9, size: 0x8, addend: 0x0, symName: __ZNSt3__118basic_stringstreamIcNS_11char_traitsIcEENS_9allocatorIcEEEC1B8ue170006Ev, symObjAddr: 0x99AC, symBinAddr: 0x10000D130, symSize: 0x104 }
  - { offsetInCU: 0x2C7D3, offset: 0x2C7D3, size: 0x8, addend: 0x0, symName: __ZNK5Eigen15PlainObjectBaseINS_5ArrayIiLin1ELin1ELi0ELin1ELin1EEEE5coeffEll, symObjAddr: 0x9AB0, symBinAddr: 0x10000D234, symSize: 0x6C }
  - { offsetInCU: 0x2C815, offset: 0x2C815, size: 0x8, addend: 0x0, symName: __ZNKSt3__118basic_stringstreamIcNS_11char_traitsIcEENS_9allocatorIcEEE3strB8ue170006Ev, symObjAddr: 0x9B48, symBinAddr: 0x10000D2CC, symSize: 0x30 }
  - { offsetInCU: 0x2C83B, offset: 0x2C83B, size: 0x8, addend: 0x0, symName: __ZNKSt3__112basic_stringIcNS_11char_traitsIcEENS_9allocatorIcEEE6lengthB8ue170006Ev, symObjAddr: 0x9B78, symBinAddr: 0x10000D2FC, symSize: 0x24 }
  - { offsetInCU: 0x2C866, offset: 0x2C866, size: 0x8, addend: 0x0, symName: __ZNSt3__118basic_stringstreamIcNS_11char_traitsIcEENS_9allocatorIcEEED1Ev, symObjAddr: 0x9B9C, symBinAddr: 0x10000D320, symSize: 0x40 }
  - { offsetInCU: 0x2C893, offset: 0x2C893, size: 0x8, addend: 0x0, symName: __ZNSt3__19basic_iosIcNS_11char_traitsIcEEE4fillB8ue170006Ec, symObjAddr: 0x9BDC, symBinAddr: 0x10000D360, symSize: 0x74 }
  - { offsetInCU: 0x2C8D9, offset: 0x2C8D9, size: 0x8, addend: 0x0, symName: __ZNK5Eigen9EigenBaseINS_5ArrayIiLin1ELin1ELi0ELin1ELin1EEEE4colsEv, symObjAddr: 0x9C50, symBinAddr: 0x10000D3D4, symSize: 0x28 }
  - { offsetInCU: 0x2C8FF, offset: 0x2C8FF, size: 0x8, addend: 0x0, symName: __ZNKSt3__112basic_stringIcNS_11char_traitsIcEENS_9allocatorIcEEE4sizeB8ue170006Ev, symObjAddr: 0x9C78, symBinAddr: 0x10000D3FC, symSize: 0x54 }
  - { offsetInCU: 0x2C925, offset: 0x2C925, size: 0x8, addend: 0x0, symName: __ZNKSt3__112basic_stringIcNS_11char_traitsIcEENS_9allocatorIcEEE15__get_long_sizeB8ue170006Ev, symObjAddr: 0x9CCC, symBinAddr: 0x10000D450, symSize: 0x28 }
  - { offsetInCU: 0x2C94B, offset: 0x2C94B, size: 0x8, addend: 0x0, symName: __ZNKSt3__112basic_stringIcNS_11char_traitsIcEENS_9allocatorIcEEE16__get_short_sizeB8ue170006Ev, symObjAddr: 0x9CF4, symBinAddr: 0x10000D478, symSize: 0x34 }
  - { offsetInCU: 0x2C971, offset: 0x2C971, size: 0x8, addend: 0x0, symName: __ZNSt3__114basic_iostreamIcNS_11char_traitsIcEEEC2B8ue170006EPNS_15basic_streambufIcS2_EE, symObjAddr: 0x9D28, symBinAddr: 0x10000D4AC, symSize: 0xAC }
  - { offsetInCU: 0x2C9B7, offset: 0x2C9B7, size: 0x8, addend: 0x0, symName: __ZNSt3__115basic_stringbufIcNS_11char_traitsIcEENS_9allocatorIcEEEC1B8ue170006Ej, symObjAddr: 0x9DD4, symBinAddr: 0x10000D558, symSize: 0x34 }
  - { offsetInCU: 0x2C9F0, offset: 0x2C9F0, size: 0x8, addend: 0x0, symName: __ZNSt3__113basic_istreamIcNS_11char_traitsIcEEEC2B8ue170006EPNS_15basic_streambufIcS2_EE, symObjAddr: 0x9E08, symBinAddr: 0x10000D58C, symSize: 0x64 }
  - { offsetInCU: 0x2CA35, offset: 0x2CA35, size: 0x8, addend: 0x0, symName: __ZNSt3__113basic_ostreamIcNS_11char_traitsIcEEEC2B8ue170006Ev, symObjAddr: 0x9E6C, symBinAddr: 0x10000D5F0, symSize: 0x34 }
  - { offsetInCU: 0x2CA6C, offset: 0x2CA6C, size: 0x8, addend: 0x0, symName: __ZNSt3__115basic_stringbufIcNS_11char_traitsIcEENS_9allocatorIcEEEC2B8ue170006Ej, symObjAddr: 0x9EA0, symBinAddr: 0x10000D624, symSize: 0x60 }
  - { offsetInCU: 0x2CAA5, offset: 0x2CAA5, size: 0x8, addend: 0x0, symName: __ZNSt3__112basic_stringIcNS_11char_traitsIcEENS_9allocatorIcEEEC1B8ue170006Ev, symObjAddr: 0x9F00, symBinAddr: 0x10000D684, symSize: 0x2C }
  - { offsetInCU: 0x2CACF, offset: 0x2CACF, size: 0x8, addend: 0x0, symName: __ZNSt3__112basic_stringIcNS_11char_traitsIcEENS_9allocatorIcEEEC2B8ue170006Ev, symObjAddr: 0x9F2C, symBinAddr: 0x10000D6B0, symSize: 0x48 }
  - { offsetInCU: 0x2CAF9, offset: 0x2CAF9, size: 0x8, addend: 0x0, symName: __ZNSt3__112basic_stringIcNS_11char_traitsIcEENS_9allocatorIcEEE14__default_initB8ue170006Ev, symObjAddr: 0x9F74, symBinAddr: 0x10000D6F8, symSize: 0x40 }
  - { offsetInCU: 0x2CB1F, offset: 0x2CB1F, size: 0x8, addend: 0x0, symName: __ZNSt3__117__compressed_pairINS_12basic_stringIcNS_11char_traitsIcEENS_9allocatorIcEEE5__repES5_E5firstB8ue170006Ev, symObjAddr: 0x9FB4, symBinAddr: 0x10000D738, symSize: 0x24 }
  - { offsetInCU: 0x2CB45, offset: 0x2CB45, size: 0x8, addend: 0x0, symName: __ZNSt3__122__compressed_pair_elemINS_12basic_stringIcNS_11char_traitsIcEENS_9allocatorIcEEE5__repELi0ELb0EE5__getB8ue170006Ev, symObjAddr: 0x9FD8, symBinAddr: 0x10000D75C, symSize: 0x14 }
  - { offsetInCU: 0x2CB6B, offset: 0x2CB6B, size: 0x8, addend: 0x0, symName: __ZNK5Eigen12DenseStorageIiLin1ELin1ELin1ELi0EE4dataEv, symObjAddr: 0x9FEC, symBinAddr: 0x10000D770, symSize: 0x18 }
  - { offsetInCU: 0x2CB91, offset: 0x2CB91, size: 0x8, addend: 0x0, symName: __ZNSt3__118basic_stringstreamIcNS_11char_traitsIcEENS_9allocatorIcEEED2Ev, symObjAddr: 0xA058, symBinAddr: 0x10000D7DC, symSize: 0x6C }
  - { offsetInCU: 0x2CBCB, offset: 0x2CBCB, size: 0x8, addend: 0x0, symName: __ZThn16_NSt3__118basic_stringstreamIcNS_11char_traitsIcEENS_9allocatorIcEEED1Ev, symObjAddr: 0xA0C4, symBinAddr: 0x10000D848, symSize: 0x1C }
  - { offsetInCU: 0x2CBE2, offset: 0x2CBE2, size: 0x8, addend: 0x0, symName: __ZTv0_n24_NSt3__118basic_stringstreamIcNS_11char_traitsIcEENS_9allocatorIcEEED1Ev, symObjAddr: 0xA0E0, symBinAddr: 0x10000D864, symSize: 0x28 }
  - { offsetInCU: 0x2CBFE, offset: 0x2CBFE, size: 0x8, addend: 0x0, symName: __ZNSt3__115basic_stringbufIcNS_11char_traitsIcEENS_9allocatorIcEEED1Ev, symObjAddr: 0xA108, symBinAddr: 0x10000D88C, symSize: 0x2C }
  - { offsetInCU: 0x2CC2B, offset: 0x2CC2B, size: 0x8, addend: 0x0, symName: __ZNSt3__115basic_stringbufIcNS_11char_traitsIcEENS_9allocatorIcEEED2Ev, symObjAddr: 0xA134, symBinAddr: 0x10000D8B8, symSize: 0x48 }
  - { offsetInCU: 0x2CC58, offset: 0x2CC58, size: 0x8, addend: 0x0, symName: __ZNSt3__112basic_stringIcNS_11char_traitsIcEENS_9allocatorIcEEEC2B8ue170006ILi0EEEPKc, symObjAddr: 0xA17C, symBinAddr: 0x10000D900, symSize: 0x58 }
  - { offsetInCU: 0x2CC97, offset: 0x2CC97, size: 0x8, addend: 0x0, symName: __ZN5Eigen8IOFormatC2EiiRKNSt3__112basic_stringIcNS1_11char_traitsIcEENS1_9allocatorIcEEEES9_S9_S9_S9_S9_c, symObjAddr: 0xA1D4, symBinAddr: 0x10000D958, symSize: 0x284 }
  - { offsetInCU: 0x2CD56, offset: 0x2CD56, size: 0x8, addend: 0x0, symName: __ZNSt3__112basic_stringIcNS_11char_traitsIcEENS_9allocatorIcEEEixB8ue170006Em, symObjAddr: 0xA458, symBinAddr: 0x10000DBDC, symSize: 0x30 }
  - { offsetInCU: 0x2CD8B, offset: 0x2CD8B, size: 0x8, addend: 0x0, symName: __ZNSt3__112basic_stringIcNS_11char_traitsIcEENS_9allocatorIcEEEpLB8ue170006Ec, symObjAddr: 0xA488, symBinAddr: 0x10000DC0C, symSize: 0x34 }
  - { offsetInCU: 0x2CDC0, offset: 0x2CDC0, size: 0x8, addend: 0x0, symName: __ZNSt3__112basic_stringIcNS_11char_traitsIcEENS_9allocatorIcEEE13__get_pointerB8ue170006Ev, symObjAddr: 0xA4BC, symBinAddr: 0x10000DC40, symSize: 0x54 }
  - { offsetInCU: 0x2CDE6, offset: 0x2CDE6, size: 0x8, addend: 0x0, symName: __ZNSt3__112basic_stringIcNS_11char_traitsIcEENS_9allocatorIcEEE18__get_long_pointerB8ue170006Ev, symObjAddr: 0xA510, symBinAddr: 0x10000DC94, symSize: 0x28 }
  - { offsetInCU: 0x2CE0C, offset: 0x2CE0C, size: 0x8, addend: 0x0, symName: __ZNSt3__112basic_stringIcNS_11char_traitsIcEENS_9allocatorIcEEE19__get_short_pointerB8ue170006Ev, symObjAddr: 0xA538, symBinAddr: 0x10000DCBC, symSize: 0x28 }
  - { offsetInCU: 0x2CE32, offset: 0x2CE32, size: 0x8, addend: 0x0, symName: __ZNSt3__114pointer_traitsIPcE10pointer_toB8ue170006ERc, symObjAddr: 0xA560, symBinAddr: 0x10000DCE4, symSize: 0x14 }
  - { offsetInCU: 0x2CE55, offset: 0x2CE55, size: 0x8, addend: 0x0, symName: __ZN5Eigen8IOFormatD2Ev, symObjAddr: 0xA574, symBinAddr: 0x10000DCF8, symSize: 0x74 }
...
