---
triple:          'arm64-apple-darwin'
binary-path:     '/Users/haolong/Documents/GitHub/demos_v_matrix/redacted/temp'
relocations:
  - { offsetInCU: 0x44, offset: 0x44, size: 0x8, addend: 0x0, symName: __ZN5EigenL4lastE, symObjAddr: 0x110B5C, symBinAddr: 0x100018000, symSize: 0x0 }
  - { offsetInCU: 0x3BD5, offset: 0x3BD5, size: 0x8, addend: 0x0, symName: __ZN5Eigen8internal31conditional_aligned_delete_autoIiLb1EEEvPT_m, symObjAddr: 0x1CDC, symBinAddr: 0x100004FC0, symSize: 0x28 }
  - { offsetInCU: 0x3C21, offset: 0x3C21, size: 0x8, addend: 0x0, symName: __ZN5Eigen8internal24conditional_aligned_freeILb1EEEvPv, symObjAddr: 0x1D04, symBinAddr: 0x100004FE8, symSize: 0x24 }
  - { offsetInCU: 0x3C55, offset: 0x3C55, size: 0x8, addend: 0x0, symName: __ZN5Eigen8internal12aligned_freeEPv, symObjAddr: 0x1D28, symBinAddr: 0x10000500C, symSize: 0x24 }
  - { offsetInCU: 0x3C84, offset: 0x3C84, size: 0x8, addend: 0x0, symName: __ZN5Eigen8internal31conditional_aligned_delete_autoIfLb1EEEvPT_m, symObjAddr: 0x1E14, symBinAddr: 0x1000050F8, symSize: 0x28 }
  - { offsetInCU: 0x3CD0, offset: 0x3CD0, size: 0x8, addend: 0x0, symName: __ZN5Eigen8internal22ignore_unused_variableIlEEvRKT_, symObjAddr: 0x259C, symBinAddr: 0x100005880, symSize: 0x10 }
  - { offsetInCU: 0x3D29, offset: 0x3D29, size: 0x8, addend: 0x0, symName: __ZN5Eigen8internal13convert_indexIilEET_RKT0_, symObjAddr: 0x2BC8, symBinAddr: 0x100005EAC, symSize: 0x1C }
  - { offsetInCU: 0x3D9A, offset: 0x3D9A, size: 0x8, addend: 0x0, symName: __ZN5Eigen8internal19throw_std_bad_allocEv, symObjAddr: 0x30C4, symBinAddr: 0x1000063A8, symSize: 0x34 }
  - { offsetInCU: 0x3DD6, offset: 0x3DD6, size: 0x8, addend: 0x0, symName: __ZN5Eigen8internal28conditional_aligned_new_autoIiLb1EEEPT_m, symObjAddr: 0x31BC, symBinAddr: 0x1000064A0, symSize: 0x84 }
  - { offsetInCU: 0x3E44, offset: 0x3E44, size: 0x8, addend: 0x0, symName: __ZN5Eigen8internal26conditional_aligned_mallocILb1EEEPvm, symObjAddr: 0x3240, symBinAddr: 0x100006524, symSize: 0x24 }
  - { offsetInCU: 0x3E7A, offset: 0x3E7A, size: 0x8, addend: 0x0, symName: __ZN5Eigen8internal14aligned_mallocEm, symObjAddr: 0x3264, symBinAddr: 0x100006548, symSize: 0xDC }
  - { offsetInCU: 0x3EBB, offset: 0x3EBB, size: 0x8, addend: 0x0, symName: __ZN5Eigen8internal28check_that_malloc_is_allowedEv, symObjAddr: 0x3340, symBinAddr: 0x100006624, symSize: 0x4 }
  - { offsetInCU: 0x3ED4, offset: 0x3ED4, size: 0x8, addend: 0x0, symName: __ZN5Eigen8internal24call_assignment_no_aliasINS_5ArrayIiLin1ELi1ELi0ELin1ELi1EEENS_14CwiseNullaryOpINS0_12linspaced_opIiEES3_EENS0_9assign_opIiiEEEEvRT_RKT0_RKT1_, symObjAddr: 0x3344, symBinAddr: 0x100006628, symSize: 0x3C }
  - { offsetInCU: 0x3FAC, offset: 0x3FAC, size: 0x8, addend: 0x0, symName: __ZN5Eigen8internal18check_for_aliasingINS_5ArrayIiLin1ELi1ELi0ELin1ELi1EEENS_14CwiseNullaryOpINS0_12linspaced_opIiEES3_EEEEvRKT_RKT0_, symObjAddr: 0x3400, symBinAddr: 0x1000066E4, symSize: 0x14 }
  - { offsetInCU: 0x3FF7, offset: 0x3FF7, size: 0x8, addend: 0x0, symName: __ZN5Eigen8internal26call_dense_assignment_loopINS_5ArrayIiLin1ELi1ELi0ELin1ELi1EEENS_14CwiseNullaryOpINS0_12linspaced_opIiEES3_EENS0_9assign_opIiiEEEEvRT_RKT0_RKT1_, symObjAddr: 0x3414, symBinAddr: 0x1000066F8, symSize: 0xE0 }
  - { offsetInCU: 0x41FA, offset: 0x41FA, size: 0x8, addend: 0x0, symName: __ZN5Eigen8internal17resize_if_allowedINS_5ArrayIiLin1ELi1ELi0ELin1ELi1EEENS_14CwiseNullaryOpINS0_12linspaced_opIiEES3_EEiiEEvRT_RKT0_RKNS0_9assign_opIT1_T2_EE, symObjAddr: 0x3528, symBinAddr: 0x10000680C, symSize: 0xF8 }
  - { offsetInCU: 0x44D2, offset: 0x44D2, size: 0x8, addend: 0x0, symName: __ZN5Eigen8internal24call_assignment_no_aliasINS_5ArrayIiLin1ELin1ELi0ELin1ELin1EEENS_9ReplicateINS_9TransposeINS2_IiLin1ELi1ELi0ELin1ELi1EEEEELin1ELin1EEENS0_9assign_opIiiEEEEvRT_RKT0_RKT1_, symObjAddr: 0x41DC, symBinAddr: 0x1000074C0, symSize: 0x3C }
  - { offsetInCU: 0x45A0, offset: 0x45A0, size: 0x8, addend: 0x0, symName: __ZN5Eigen8internal18check_for_aliasingINS_5ArrayIiLin1ELin1ELi0ELin1ELin1EEENS_9ReplicateINS_9TransposeINS2_IiLin1ELi1ELi0ELin1ELi1EEEEELin1ELin1EEEEEvRKT_RKT0_, symObjAddr: 0x426C, symBinAddr: 0x100007550, symSize: 0x60 }
  - { offsetInCU: 0x45EB, offset: 0x45EB, size: 0x8, addend: 0x0, symName: __ZN5Eigen8internal26call_dense_assignment_loopINS_5ArrayIiLin1ELin1ELi0ELin1ELin1EEENS_9ReplicateINS_9TransposeINS2_IiLin1ELi1ELi0ELin1ELi1EEEEELin1ELin1EEENS0_9assign_opIiiEEEEvRT_RKT0_RKT1_, symObjAddr: 0x42CC, symBinAddr: 0x1000075B0, symSize: 0xE0 }
  - { offsetInCU: 0x4A36, offset: 0x4A36, size: 0x8, addend: 0x0, symName: __ZN5Eigen8internal17resize_if_allowedINS_5ArrayIiLin1ELin1ELi0ELin1ELin1EEENS_9ReplicateINS_9TransposeINS2_IiLin1ELi1ELi0ELin1ELi1EEEEELin1ELin1EEEiiEEvRT_RKT0_RKNS0_9assign_opIT1_T2_EE, symObjAddr: 0x43F4, symBinAddr: 0x1000076D8, symSize: 0xF8 }
  - { offsetInCU: 0x4D0E, offset: 0x4D0E, size: 0x8, addend: 0x0, symName: __ZN5Eigen8internal17get_runtime_valueIiEElRKT_, symObjAddr: 0x5054, symBinAddr: 0x100008338, symSize: 0x18 }
  - { offsetInCU: 0x4D90, offset: 0x4D90, size: 0x8, addend: 0x0, symName: __ZN5Eigen8internal28conditional_aligned_new_autoIfLb1EEEPT_m, symObjAddr: 0x5B40, symBinAddr: 0x100008E24, symSize: 0x84 }
  - { offsetInCU: 0x4DFE, offset: 0x4DFE, size: 0x8, addend: 0x0, symName: __ZN5Eigen8internal24call_assignment_no_aliasINS_5ArrayIfLin1ELin1ELi0ELin1ELin1EEENS_5BlockIKS3_Lin1ELin1ELb0EEENS0_9assign_opIffEEEEvRT_RKT0_RKT1_, symObjAddr: 0x5BC4, symBinAddr: 0x100008EA8, symSize: 0x3C }
  - { offsetInCU: 0x4ECC, offset: 0x4ECC, size: 0x8, addend: 0x0, symName: __ZN5Eigen8internal18check_for_aliasingINS_5ArrayIfLin1ELin1ELi0ELin1ELin1EEENS_5BlockIKS3_Lin1ELin1ELb0EEEEEvRKT_RKT0_, symObjAddr: 0x5C80, symBinAddr: 0x100008F64, symSize: 0x60 }
  - { offsetInCU: 0x4F17, offset: 0x4F17, size: 0x8, addend: 0x0, symName: __ZN5Eigen8internal26call_dense_assignment_loopINS_5ArrayIfLin1ELin1ELi0ELin1ELin1EEENS_5BlockIKS3_Lin1ELin1ELb0EEENS0_9assign_opIffEEEEvRT_RKT0_RKT1_, symObjAddr: 0x5CE0, symBinAddr: 0x100008FC4, symSize: 0xE0 }
  - { offsetInCU: 0x5009, offset: 0x5009, size: 0x8, addend: 0x0, symName: __ZN5Eigen8internal17resize_if_allowedINS_5ArrayIfLin1ELin1ELi0ELin1ELin1EEENS_5BlockIKS3_Lin1ELin1ELb0EEEffEEvRT_RKT0_RKNS0_9assign_opIT1_T2_EE, symObjAddr: 0x5E08, symBinAddr: 0x1000090EC, symSize: 0xF8 }
  - { offsetInCU: 0x5122, offset: 0x5122, size: 0x8, addend: 0x0, symName: __ZN5Eigen8internal6pstoreIf19__simd128_float32_tEEvPT_RKT0_, symObjAddr: 0x6B20, symBinAddr: 0x100009E04, symSize: 0x2C }
  - { offsetInCU: 0x518A, offset: 0x518A, size: 0x8, addend: 0x0, symName: __ZN5Eigen8internal6ploaduI19__simd128_float32_tEET_PKNS0_15unpacket_traitsIS3_E4typeE, symObjAddr: 0x6B4C, symBinAddr: 0x100009E30, symSize: 0x28 }
  - { offsetInCU: 0x51DE, offset: 0x51DE, size: 0x8, addend: 0x0, symName: __ZN5Eigen8internal24call_assignment_no_aliasINS_5ArrayIiLin1ELin1ELi0ELin1ELin1EEENS_12CwiseUnaryOpINS0_14scalar_cast_opIbiEEKNS_13CwiseBinaryOpINS0_13scalar_cmp_opIffLNS0_14ComparisonNameE2EEEKNS2_IfLin1ELin1ELi0ELin1ELin1EEESC_EEEENS0_9assign_opIiiEEEEvRT_RKT0_RKT1_, symObjAddr: 0x7924, symBinAddr: 0x10000AC08, symSize: 0x3C }
  - { offsetInCU: 0x52AC, offset: 0x52AC, size: 0x8, addend: 0x0, symName: __ZN5Eigen8internal18check_for_aliasingINS_5ArrayIiLin1ELin1ELi0ELin1ELin1EEENS_12CwiseUnaryOpINS0_14scalar_cast_opIbiEEKNS_13CwiseBinaryOpINS0_13scalar_cmp_opIffLNS0_14ComparisonNameE2EEEKNS2_IfLin1ELin1ELi0ELin1ELin1EEESC_EEEEEEvRKT_RKT0_, symObjAddr: 0x79A0, symBinAddr: 0x10000AC84, symSize: 0x60 }
  - { offsetInCU: 0x52F7, offset: 0x52F7, size: 0x8, addend: 0x0, symName: __ZN5Eigen8internal26call_dense_assignment_loopINS_5ArrayIiLin1ELin1ELi0ELin1ELin1EEENS_12CwiseUnaryOpINS0_14scalar_cast_opIbiEEKNS_13CwiseBinaryOpINS0_13scalar_cmp_opIffLNS0_14ComparisonNameE2EEEKNS2_IfLin1ELin1ELi0ELin1ELin1EEESC_EEEENS0_9assign_opIiiEEEEvRT_RKT0_RKT1_, symObjAddr: 0x7A00, symBinAddr: 0x10000ACE4, symSize: 0xD8 }
  - { offsetInCU: 0x57AF, offset: 0x57AF, size: 0x8, addend: 0x0, symName: __ZN5Eigen8internal17resize_if_allowedINS_5ArrayIiLin1ELin1ELi0ELin1ELin1EEENS_12CwiseUnaryOpINS0_14scalar_cast_opIbiEEKNS_13CwiseBinaryOpINS0_13scalar_cmp_opIffLNS0_14ComparisonNameE2EEEKNS2_IfLin1ELin1ELi0ELin1ELin1EEESC_EEEEiiEEvRT_RKT0_RKNS0_9assign_opIT1_T2_EE, symObjAddr: 0x7B20, symBinAddr: 0x10000AE04, symSize: 0xF8 }
  - { offsetInCU: 0x5A87, offset: 0x5A87, size: 0x8, addend: 0x0, symName: __ZN5Eigen8internal4castIbiEET0_RKT_, symObjAddr: 0x83B8, symBinAddr: 0x10000B69C, symSize: 0x24 }
  - { offsetInCU: 0x5AFF, offset: 0x5AFF, size: 0x8, addend: 0x0, symName: __ZN5Eigen8internal15call_assignmentINS_5BlockINS_5ArrayIiLin1ELin1ELi0ELin1ELin1EEELin1ELin1ELb0EEENS_13CwiseBinaryOpINS0_17scalar_product_opIiiEEKS4_S9_EEEEvRT_RKT0_, symObjAddr: 0x8E38, symBinAddr: 0x10000C11C, symSize: 0x50 }
  - { offsetInCU: 0x5B4A, offset: 0x5B4A, size: 0x8, addend: 0x0, symName: __ZN5Eigen8internal15call_assignmentINS_5BlockINS_5ArrayIiLin1ELin1ELi0ELin1ELin1EEELin1ELin1ELb0EEENS_13CwiseBinaryOpINS0_17scalar_product_opIiiEEKS4_S9_EENS0_9assign_opIiiEEEEvRT_RKT0_RKT1_NS0_9enable_ifIXntsr25evaluator_assume_aliasingISF_EE5valueEPvE4typeE, symObjAddr: 0x8E9C, symBinAddr: 0x10000C180, symSize: 0x38 }
  - { offsetInCU: 0x5BB8, offset: 0x5BB8, size: 0x8, addend: 0x0, symName: __ZN5Eigen8internal24call_assignment_no_aliasINS_5BlockINS_5ArrayIiLin1ELin1ELi0ELin1ELin1EEELin1ELin1ELb0EEENS_13CwiseBinaryOpINS0_17scalar_product_opIiiEEKS4_S9_EENS0_9assign_opIiiEEEEvRT_RKT0_RKT1_, symObjAddr: 0x8ED4, symBinAddr: 0x10000C1B8, symSize: 0x3C }
  - { offsetInCU: 0x5C86, offset: 0x5C86, size: 0x8, addend: 0x0, symName: __ZN5Eigen8internal18check_for_aliasingINS_5BlockINS_5ArrayIiLin1ELin1ELi0ELin1ELin1EEELin1ELin1ELb0EEENS_13CwiseBinaryOpINS0_17scalar_product_opIiiEEKS4_S9_EEEEvRKT_RKT0_, symObjAddr: 0x8F50, symBinAddr: 0x10000C234, symSize: 0x60 }
  - { offsetInCU: 0x5CD1, offset: 0x5CD1, size: 0x8, addend: 0x0, symName: __ZN5Eigen8internal26call_dense_assignment_loopINS_5BlockINS_5ArrayIiLin1ELin1ELi0ELin1ELin1EEELin1ELin1ELb0EEENS_13CwiseBinaryOpINS0_17scalar_product_opIiiEEKS4_S9_EENS0_9assign_opIiiEEEEvRT_RKT0_RKT1_, symObjAddr: 0x8FB0, symBinAddr: 0x10000C294, symSize: 0xE0 }
  - { offsetInCU: 0x5DC3, offset: 0x5DC3, size: 0x8, addend: 0x0, symName: __ZN5Eigen8internal17resize_if_allowedINS_5BlockINS_5ArrayIiLin1ELin1ELi0ELin1ELin1EEELin1ELin1ELb0EEENS_13CwiseBinaryOpINS0_17scalar_product_opIiiEEKS4_S9_EEiiEEvRT_RKT0_RKNS0_9assign_opIT1_T2_EE, symObjAddr: 0x9128, symBinAddr: 0x10000C40C, symSize: 0xF8 }
  - { offsetInCU: 0x5E83, offset: 0x5E83, size: 0x8, addend: 0x0, symName: __ZN5Eigen8internal13first_alignedILi16EilEET1_PKT0_S2_, symObjAddr: 0x9D70, symBinAddr: 0x10000D054, symSize: 0xA4 }
  - { offsetInCU: 0x5F68, offset: 0x5F68, size: 0x8, addend: 0x0, symName: __ZN5Eigen8internal6pstoreIi17__simd128_int32_tEEvPT_RKT0_, symObjAddr: 0xA2D0, symBinAddr: 0x10000D5B4, symSize: 0x2C }
  - { offsetInCU: 0x6021, offset: 0x6021, size: 0x8, addend: 0x0, symName: __ZN5Eigen8internal4pmulI17__simd128_int32_tEET_RKS3_S5_, symObjAddr: 0xA38C, symBinAddr: 0x10000D670, symSize: 0x40 }
  - { offsetInCU: 0x6067, offset: 0x6067, size: 0x8, addend: 0x0, symName: __ZN5Eigen8internal6ploaduI17__simd128_int32_tEET_PKNS0_15unpacket_traitsIS3_E4typeE, symObjAddr: 0xA3CC, symBinAddr: 0x10000D6B0, symSize: 0x28 }
  - { offsetInCU: 0x60BB, offset: 0x60BB, size: 0x8, addend: 0x0, symName: __ZN5Eigen8internal22ignore_unused_variableIbEEvRKT_, symObjAddr: 0xA710, symBinAddr: 0x10000D9F4, symSize: 0x10 }
  - { offsetInCU: 0x6291, offset: 0x6291, size: 0x8, addend: 0x0, symName: __ZN5Eigen8internalL21first_default_alignedINS_5ArrayIiLin1ELi1ELi0ELin1ELi1EEEEElRKNS_9DenseBaseIT_EE, symObjAddr: 0xAF74, symBinAddr: 0x10000E258, symSize: 0x24 }
  - { offsetInCU: 0x62F9, offset: 0x62F9, size: 0x8, addend: 0x0, symName: __ZN5Eigen8internalL13first_alignedILi16ENS_5ArrayIiLin1ELi1ELi0ELin1ELi1EEEEElRKNS_9DenseBaseIT0_EE, symObjAddr: 0xB058, symBinAddr: 0x10000E33C, symSize: 0x28 }
  - { offsetInCU: 0x6378, offset: 0x6378, size: 0x8, addend: 0x0, symName: __ZN5Eigen8internal5ploadI17__simd128_int32_tEET_PKNS0_15unpacket_traitsIS3_E4typeE, symObjAddr: 0xB094, symBinAddr: 0x10000E378, symSize: 0x28 }
  - { offsetInCU: 0x63CC, offset: 0x63CC, size: 0x8, addend: 0x0, symName: __ZN5Eigen8internal4paddI17__simd128_int32_tEET_RKS3_S5_, symObjAddr: 0xB0BC, symBinAddr: 0x10000E3A0, symSize: 0x40 }
  - { offsetInCU: 0x6412, offset: 0x6412, size: 0x8, addend: 0x0, symName: __ZN5Eigen8internal6preduxI17__simd128_int32_tEENS0_15unpacket_traitsIT_E4typeERKS4_, symObjAddr: 0xB0FC, symBinAddr: 0x10000E3E0, symSize: 0xAC }
  - { offsetInCU: 0x6484, offset: 0x6484, size: 0x8, addend: 0x0, symName: __ZN5Eigen8internal24call_assignment_no_aliasINS_5ArrayIiLin1ELin1ELi0ELin1ELin1EEENS_14CwiseNullaryOpINS0_18scalar_constant_opIiEES3_EENS0_9assign_opIiiEEEEvRT_RKT0_RKT1_, symObjAddr: 0xB6DC, symBinAddr: 0x10000E9C0, symSize: 0x3C }
  - { offsetInCU: 0x6552, offset: 0x6552, size: 0x8, addend: 0x0, symName: __ZN5Eigen8internal18check_for_aliasingINS_5ArrayIiLin1ELin1ELi0ELin1ELin1EEENS_14CwiseNullaryOpINS0_18scalar_constant_opIiEES3_EEEEvRKT_RKT0_, symObjAddr: 0xB758, symBinAddr: 0x10000EA3C, symSize: 0x60 }
  - { offsetInCU: 0x659D, offset: 0x659D, size: 0x8, addend: 0x0, symName: __ZN5Eigen8internal26call_dense_assignment_loopINS_5ArrayIiLin1ELin1ELi0ELin1ELin1EEEEEvRT_RKNS_14CwiseNullaryOpINS0_18scalar_constant_opINS4_6ScalarEEES4_EERKNS0_9assign_opIS8_S8_EE, symObjAddr: 0xB7B8, symBinAddr: 0x10000EA9C, symSize: 0x70 }
  - { offsetInCU: 0x662C, offset: 0x662C, size: 0x8, addend: 0x0, symName: __ZN5Eigen8internal17resize_if_allowedINS_5ArrayIiLin1ELin1ELi0ELin1ELin1EEENS_14CwiseNullaryOpINS0_18scalar_constant_opIiEES3_EEiiEEvRT_RKT0_RKNS0_9assign_opIT1_T2_EE, symObjAddr: 0xB83C, symBinAddr: 0x10000EB20, symSize: 0xF8 }
  - { offsetInCU: 0x66B2, offset: 0x66B2, size: 0x8, addend: 0x0, symName: __ZN5Eigen8internal24call_assignment_no_aliasINS_5ArrayIfLin1ELin1ELi0ELin1ELin1EEENS_14CwiseNullaryOpINS0_18scalar_constant_opIfEES3_EENS0_9assign_opIffEEEEvRT_RKT0_RKT1_, symObjAddr: 0xBF74, symBinAddr: 0x10000F258, symSize: 0x3C }
  - { offsetInCU: 0x6780, offset: 0x6780, size: 0x8, addend: 0x0, symName: __ZN5Eigen8internal18check_for_aliasingINS_5ArrayIfLin1ELin1ELi0ELin1ELin1EEENS_14CwiseNullaryOpINS0_18scalar_constant_opIfEES3_EEEEvRKT_RKT0_, symObjAddr: 0xBFF0, symBinAddr: 0x10000F2D4, symSize: 0x60 }
  - { offsetInCU: 0x67CB, offset: 0x67CB, size: 0x8, addend: 0x0, symName: __ZN5Eigen8internal26call_dense_assignment_loopINS_5ArrayIfLin1ELin1ELi0ELin1ELin1EEEEEvRT_RKNS_14CwiseNullaryOpINS0_18scalar_constant_opINS4_6ScalarEEES4_EERKNS0_9assign_opIS8_S8_EE, symObjAddr: 0xC050, symBinAddr: 0x10000F334, symSize: 0x6C }
  - { offsetInCU: 0x685A, offset: 0x685A, size: 0x8, addend: 0x0, symName: __ZN5Eigen8internal17resize_if_allowedINS_5ArrayIfLin1ELin1ELi0ELin1ELin1EEENS_14CwiseNullaryOpINS0_18scalar_constant_opIfEES3_EEffEEvRT_RKT0_RKNS0_9assign_opIT1_T2_EE, symObjAddr: 0xC0D0, symBinAddr: 0x10000F3B4, symSize: 0xF8 }
  - { offsetInCU: 0x68E0, offset: 0x68E0, size: 0x8, addend: 0x0, symName: __ZN5Eigen8internal10smart_copyIfEEvPKT_S4_PS2_, symObjAddr: 0xD06C, symBinAddr: 0x100010350, symSize: 0x34 }
  - { offsetInCU: 0x6ADE, offset: 0x6ADE, size: 0x8, addend: 0x0, symName: __ZN5EigenL6lastp1E, symObjAddr: 0x110B5D, symBinAddr: 0x100018001, symSize: 0x0 }
  - { offsetInCU: 0x6AF7, offset: 0x6AF7, size: 0x8, addend: 0x0, symName: __ZN5EigenL3allE, symObjAddr: 0x110B60, symBinAddr: 0x100018004, symSize: 0x0 }
  - { offsetInCU: 0x6B10, offset: 0x6B10, size: 0x8, addend: 0x0, symName: __ZN5EigenL3fixILi1EEE, symObjAddr: 0x110B5F, symBinAddr: 0x100018003, symSize: 0x0 }
  - { offsetInCU: 0x23B21, offset: 0x23B21, size: 0x8, addend: 0x0, symName: __ZNSt3__124__put_character_sequenceB8ue170006IcNS_11char_traitsIcEEEERNS_13basic_ostreamIT_T0_EES7_PKS4_m, symObjAddr: 0xD6D0, symBinAddr: 0x1000109B4, symSize: 0x1EC }
  - { offsetInCU: 0x26446, offset: 0x26446, size: 0x8, addend: 0x0, symName: __ZNSt3__1lsB8ue170006INS_11char_traitsIcEEEERNS_13basic_ostreamIcT_EES6_PKc, symObjAddr: 0x17E0, symBinAddr: 0x100004AC4, symSize: 0x48 }
  - { offsetInCU: 0x2648C, offset: 0x2648C, size: 0x8, addend: 0x0, symName: __ZNSt3__14endlB8ue170006IcNS_11char_traitsIcEEEERNS_13basic_ostreamIT_T0_EES7_, symObjAddr: 0x1854, symBinAddr: 0x100004B38, symSize: 0x58 }
  - { offsetInCU: 0x264CC, offset: 0x264CC, size: 0x8, addend: 0x0, symName: __ZNSt3__1lsB8ue170006INS_11char_traitsIcEEEERNS_13basic_ostreamIcT_EES6_c, symObjAddr: 0x19E8, symBinAddr: 0x100004CCC, symSize: 0x34 }
  - { offsetInCU: 0x2651D, offset: 0x2651D, size: 0x8, addend: 0x0, symName: __ZNSt3__118__constexpr_strlenB8ue170006EPKc, symObjAddr: 0x20BC, symBinAddr: 0x1000053A0, symSize: 0x24 }
  - { offsetInCU: 0x26549, offset: 0x26549, size: 0x8, addend: 0x0, symName: __ZNSt3__13minB8ue170006IlEERKT_S3_S3_, symObjAddr: 0x6B74, symBinAddr: 0x100009E58, symSize: 0x2C }
  - { offsetInCU: 0x2658C, offset: 0x2658C, size: 0x8, addend: 0x0, symName: __ZNSt3__13minB8ue170006IlNS_6__lessIvvEEEERKT_S5_S5_T0_, symObjAddr: 0x6BA0, symBinAddr: 0x100009E84, symSize: 0x54 }
  - { offsetInCU: 0x2665C, offset: 0x2665C, size: 0x8, addend: 0x0, symName: __ZNSt3__118generate_canonicalB8ue170006IfLm24ENS_23mersenne_twister_engineIjLm32ELm624ELm397ELm31ELj2567483615ELm11ELj4294967295ELm7ELj2636928640ELm15ELj4022730752ELm18ELj1812433253EEEEET_RT1_, symObjAddr: 0x6EFC, symBinAddr: 0x10000A1E0, symSize: 0x118 }
  - { offsetInCU: 0x26746, offset: 0x26746, size: 0x8, addend: 0x0, symName: __ZNSt3__16fill_nB8ue170006IPiliEET_S2_T0_RKT1_, symObjAddr: 0xB934, symBinAddr: 0x10000EC18, symSize: 0x44 }
  - { offsetInCU: 0x267A9, offset: 0x267A9, size: 0x8, addend: 0x0, symName: __ZNSt3__18__fill_nB8ue170006IPiliEET_S2_T0_RKT1_, symObjAddr: 0xB9A8, symBinAddr: 0x10000EC8C, symSize: 0x64 }
  - { offsetInCU: 0x2680C, offset: 0x2680C, size: 0x8, addend: 0x0, symName: __ZNSt3__121__convert_to_integralB8ue170006El, symObjAddr: 0xBA0C, symBinAddr: 0x10000ECF0, symSize: 0x14 }
  - { offsetInCU: 0x26838, offset: 0x26838, size: 0x8, addend: 0x0, symName: __ZNSt3__16fill_nB8ue170006IPflfEET_S2_T0_RKT1_, symObjAddr: 0xC1C8, symBinAddr: 0x10000F4AC, symSize: 0x44 }
  - { offsetInCU: 0x2689B, offset: 0x2689B, size: 0x8, addend: 0x0, symName: __ZNSt3__18__fill_nB8ue170006IPflfEET_S2_T0_RKT1_, symObjAddr: 0xC280, symBinAddr: 0x10000F564, symSize: 0x64 }
  - { offsetInCU: 0x268FE, offset: 0x268FE, size: 0x8, addend: 0x0, symName: __ZNSt3__122__make_exception_guardB8ue170006INS_6vectorIN5Eigen5ArrayIfLin1ELin1ELi0ELin1ELin1EEENS_9allocatorIS4_EEE16__destroy_vectorEEENS_28__exception_guard_exceptionsIT_EESA_, symObjAddr: 0xC3FC, symBinAddr: 0x10000F6E0, symSize: 0x40 }
  - { offsetInCU: 0x26933, offset: 0x26933, size: 0x8, addend: 0x0, symName: __ZNSt3__119__allocate_at_leastB8ue170006INS_9allocatorIN5Eigen5ArrayIfLin1ELin1ELi0ELin1ELin1EEEEEEENS_19__allocation_resultINS_16allocator_traitsIT_E7pointerEEERS8_m, symObjAddr: 0xC7F8, symBinAddr: 0x10000FADC, symSize: 0x40 }
  - { offsetInCU: 0x26976, offset: 0x26976, size: 0x8, addend: 0x0, symName: __ZNSt3__13minB8ue170006ImEERKT_S3_S3_, symObjAddr: 0xC950, symBinAddr: 0x10000FC34, symSize: 0x2C }
  - { offsetInCU: 0x26BC4, offset: 0x26BC4, size: 0x8, addend: 0x0, symName: __ZNSt3__13minB8ue170006ImNS_6__lessIvvEEEERKT_S5_S5_T0_, symObjAddr: 0xC9DC, symBinAddr: 0x10000FCC0, symSize: 0x54 }
  - { offsetInCU: 0x26C1F, offset: 0x26C1F, size: 0x8, addend: 0x0, symName: __ZNSt3__120__throw_length_errorB8ue170006EPKc, symObjAddr: 0xCABC, symBinAddr: 0x10000FDA0, symSize: 0x64 }
  - { offsetInCU: 0x26C49, offset: 0x26C49, size: 0x8, addend: 0x0, symName: __ZNSt3__117__libcpp_allocateB8ue170006Emm, symObjAddr: 0xCC30, symBinAddr: 0x10000FF14, symSize: 0x28 }
  - { offsetInCU: 0x26C86, offset: 0x26C86, size: 0x8, addend: 0x0, symName: __ZNSt3__121__libcpp_operator_newB8ue170006IJmEEEPvDpT_, symObjAddr: 0xCC58, symBinAddr: 0x10000FF3C, symSize: 0x24 }
  - { offsetInCU: 0x26CBF, offset: 0x26CBF, size: 0x8, addend: 0x0, symName: __ZNSt3__112__to_addressB8ue170006IN5Eigen5ArrayIfLin1ELin1ELi0ELin1ELin1EEEEEPT_S5_, symObjAddr: 0xCD74, symBinAddr: 0x100010058, symSize: 0x14 }
  - { offsetInCU: 0x26CF4, offset: 0x26CF4, size: 0x8, addend: 0x0, symName: __ZNSt3__119__libcpp_deallocateB8ue170006EPvmm, symObjAddr: 0xD47C, symBinAddr: 0x100010760, symSize: 0x30 }
  - { offsetInCU: 0x26D3C, offset: 0x26D3C, size: 0x8, addend: 0x0, symName: __ZNSt3__127__do_deallocate_handle_sizeB8ue170006IJEEEvPvmDpT_, symObjAddr: 0xD4AC, symBinAddr: 0x100010790, symSize: 0x28 }
  - { offsetInCU: 0x26D7B, offset: 0x26D7B, size: 0x8, addend: 0x0, symName: __ZNSt3__124__libcpp_operator_deleteB8ue170006IJPvEEEvDpT_, symObjAddr: 0xD4D4, symBinAddr: 0x1000107B8, symSize: 0x24 }
  - { offsetInCU: 0x26DB0, offset: 0x26DB0, size: 0x8, addend: 0x0, symName: __ZNSt3__116__pad_and_outputB8ue170006IcNS_11char_traitsIcEEEENS_19ostreambuf_iteratorIT_T0_EES6_PKS4_S8_S8_RNS_8ios_baseES4_, symObjAddr: 0xD8D8, symBinAddr: 0x100010BBC, symSize: 0x240 }
  - { offsetInCU: 0x26E7F, offset: 0x26E7F, size: 0x8, addend: 0x0, symName: __ZNSt3__112__to_addressB8ue170006IKcEEPT_S3_, symObjAddr: 0xDD1C, symBinAddr: 0x100011000, symSize: 0x14 }
  - { offsetInCU: 0x26EE7, offset: 0x26EE7, size: 0x8, addend: 0x0, symName: __ZNSt3__19use_facetB8ue170006INS_5ctypeIcEEEERKT_RKNS_6localeE, symObjAddr: 0xDF94, symBinAddr: 0x100011278, symSize: 0x2C }
  - { offsetInCU: 0x277DE, offset: 0x277DE, size: 0x8, addend: 0x0, symName: __ZSt28__throw_bad_array_new_lengthB8ue170006v, symObjAddr: 0xCBFC, symBinAddr: 0x10000FEE0, symSize: 0x34 }
  - { offsetInCU: 0x28D5A, offset: 0x28D5A, size: 0x8, addend: 0x0, symName: __ZN5Eigen8internal21dense_assignment_loopINS0_31generic_dense_assignment_kernelINS0_9evaluatorINS_5ArrayIfLin1ELin1ELi0ELin1ELin1EEEEENS3_INS_5BlockIKS5_Lin1ELin1ELb0EEEEENS0_9assign_opIffEELi0EEELi4ELi0EE3runERSD_, symObjAddr: 0x5F94, symBinAddr: 0x100009278, symSize: 0x1D8 }
  - { offsetInCU: 0x29988, offset: 0x29988, size: 0x8, addend: 0x0, symName: __ZN5Eigen8internal21dense_assignment_loopINS0_31generic_dense_assignment_kernelINS0_9evaluatorINS_5BlockINS_5ArrayIiLin1ELin1ELi0ELin1ELin1EEELin1ELin1ELb0EEEEENS3_INS_13CwiseBinaryOpINS0_17scalar_product_opIiiEEKS6_SC_EEEENS0_9assign_opIiiEELi0EEELi4ELi0EE3runERSH_, symObjAddr: 0x92B4, symBinAddr: 0x10000C598, symSize: 0x214 }
  - { offsetInCU: 0x2C619, offset: 0x2C619, size: 0x8, addend: 0x0, symName: __ZN5Eigen8symbolic10SymbolExprINS_8internal17symbolic_last_tagEEC1Ev, symObjAddr: 0x0, symBinAddr: 0x1000032E4, symSize: 0x2C }
  - { offsetInCU: 0x2C643, offset: 0x2C643, size: 0x8, addend: 0x0, symName: __ZNK5Eigen8symbolic8BaseExprINS0_10SymbolExprINS_8internal17symbolic_last_tagEEEEplILi1EEENS0_7AddExprIS5_NS0_9ValueExprINS3_8FixedIntIXT_EEEEEEESB_, symObjAddr: 0x2C, symBinAddr: 0x100003310, symSize: 0x48 }
  - { offsetInCU: 0x2C67E, offset: 0x2C67E, size: 0x8, addend: 0x0, symName: __ZNK5Eigen8internal8FixedIntILi1EEclEv, symObjAddr: 0x74, symBinAddr: 0x100003358, symSize: 0x10 }
  - { offsetInCU: 0x2C6A4, offset: 0x2C6A4, size: 0x8, addend: 0x0, symName: __ZN5Eigen8internal5all_tC1Ev, symObjAddr: 0x84, symBinAddr: 0x100003368, symSize: 0x2C }
  - { offsetInCU: 0x2C6CD, offset: 0x2C6CD, size: 0x8, addend: 0x0, symName: __Z20generateAgefromBirthiRKN5Eigen5ArrayIiLin1ELi1ELi0ELin1ELi1EEERNS0_IiLin1ELin1ELi0ELin1ELin1EEERKNSt3__16vectorINS0_IfLin1ELin1ELi0ELin1ELin1EEENS6_9allocatorIS8_EEEERNS6_23mersenne_twister_engineIjLm32ELm624ELm397ELm31ELj2567483615ELm11ELj4294967295ELm7ELj2636928640ELm15ELj4022730752ELm18ELj1812433253EEE, symObjAddr: 0xB0, symBinAddr: 0x100003394, symSize: 0x3A4 }
  - { offsetInCU: 0x2C81D, offset: 0x2C81D, size: 0x8, addend: 0x0, symName: __ZNK5Eigen9EigenBaseINS_5ArrayIiLin1ELi1ELi0ELin1ELi1EEEE4sizeEv, symObjAddr: 0x454, symBinAddr: 0x100003738, symSize: 0x44 }
  - { offsetInCU: 0x2C866, offset: 0x2C866, size: 0x8, addend: 0x0, symName: __ZNSt3__125uniform_real_distributionIfEC1B8ue170006Eff, symObjAddr: 0x498, symBinAddr: 0x10000377C, symSize: 0x3C }
  - { offsetInCU: 0x2C8AC, offset: 0x2C8AC, size: 0x8, addend: 0x0, symName: __ZNK5Eigen15DenseCoeffsBaseINS_5ArrayIiLin1ELi1ELi0ELin1ELi1EEELi0EEixEl, symObjAddr: 0x4D4, symBinAddr: 0x1000037B8, symSize: 0xA4 }
  - { offsetInCU: 0x2C8E0, offset: 0x2C8E0, size: 0x8, addend: 0x0, symName: __ZN5Eigen9DenseBaseINS_5ArrayIiLin1ELi1ELi0ELin1ELi1EEEE9LinSpacedElRKiS5_, symObjAddr: 0x578, symBinAddr: 0x10000385C, symSize: 0x58 }
  - { offsetInCU: 0x2C92A, offset: 0x2C92A, size: 0x8, addend: 0x0, symName: __ZN5Eigen5ArrayIiLin1ELi1ELi0ELin1ELi1EEC1INS_14CwiseNullaryOpINS_8internal12linspaced_opIiEES1_EEEERKNS_9EigenBaseIT_EENS4_9enable_ifIXsr8internal14is_convertibleINS9_6ScalarEiEE5valueENS1_11PrivateTypeEE4typeE, symObjAddr: 0x5D0, symBinAddr: 0x1000038B4, symSize: 0x34 }
  - { offsetInCU: 0x2C977, offset: 0x2C977, size: 0x8, addend: 0x0, symName: __ZN5Eigen9DenseBaseINS_5ArrayIiLin1ELi1ELi0ELin1ELi1EEEE9transposeEv, symObjAddr: 0x604, symBinAddr: 0x1000038E8, symSize: 0x34 }
  - { offsetInCU: 0x2C99F, offset: 0x2C99F, size: 0x8, addend: 0x0, symName: __ZNK5Eigen9DenseBaseINS_9TransposeINS_5ArrayIiLin1ELi1ELi0ELin1ELi1EEEEEE9replicateEll, symObjAddr: 0x638, symBinAddr: 0x10000391C, symSize: 0x44 }
  - { offsetInCU: 0x2C9E8, offset: 0x2C9E8, size: 0x8, addend: 0x0, symName: __ZN5Eigen5ArrayIiLin1ELin1ELi0ELin1ELin1EEC1INS_9ReplicateINS_9TransposeINS0_IiLin1ELi1ELi0ELin1ELi1EEEEELin1ELin1EEEEERKNS_9EigenBaseIT_EENS_8internal9enable_ifIXsr8internal14is_convertibleINS9_6ScalarEiEE5valueENS1_11PrivateTypeEE4typeE, symObjAddr: 0x67C, symBinAddr: 0x100003960, symSize: 0x34 }
  - { offsetInCU: 0x2CA35, offset: 0x2CA35, size: 0x8, addend: 0x0, symName: __ZNKSt3__16vectorIN5Eigen5ArrayIfLin1ELin1ELi0ELin1ELin1EEENS_9allocatorIS3_EEEixB8ue170006Em, symObjAddr: 0x6B0, symBinAddr: 0x100003994, symSize: 0x2C }
  - { offsetInCU: 0x2CA71, offset: 0x2CA71, size: 0x8, addend: 0x0, symName: __ZNK5Eigen9DenseBaseINS_5ArrayIfLin1ELin1ELi0ELin1ELin1EEEE5blockIiiEEKNS3_18ConstFixedBlockXprIXsr8internal15get_fixed_valueIT_EE5valueEXsr8internal15get_fixed_valueIT0_EE5valueEE4TypeEllS6_S7_, symObjAddr: 0x6DC, symBinAddr: 0x1000039C0, symSize: 0x94 }
  - { offsetInCU: 0x2CAE6, offset: 0x2CAE6, size: 0x8, addend: 0x0, symName: __ZN5Eigen5ArrayIfLin1ELin1ELi0ELin1ELin1EEC1INS_5BlockIKS1_Lin1ELin1ELb0EEEEERKNS_9EigenBaseIT_EENS_8internal9enable_ifIXsr8internal14is_convertibleINS7_6ScalarEfEE5valueENS1_11PrivateTypeEE4typeE, symObjAddr: 0x770, symBinAddr: 0x100003A54, symSize: 0x34 }
  - { offsetInCU: 0x2CB33, offset: 0x2CB33, size: 0x8, addend: 0x0, symName: __ZN5Eigen5ArrayIfLin1ELin1ELi0ELin1ELin1EEC1IiiEERKT_RKT0_, symObjAddr: 0x7A4, symBinAddr: 0x100003A88, symSize: 0x3C }
  - { offsetInCU: 0x2CB90, offset: 0x2CB90, size: 0x8, addend: 0x0, symName: __ZNSt3__125uniform_real_distributionIfEclB8ue170006INS_23mersenne_twister_engineIjLm32ELm624ELm397ELm31ELj2567483615ELm11ELj4294967295ELm7ELj2636928640ELm15ELj4022730752ELm18ELj1812433253EEEEEfRT_, symObjAddr: 0x7E0, symBinAddr: 0x100003AC4, symSize: 0x30 }
  - { offsetInCU: 0x2CBCD, offset: 0x2CBCD, size: 0x8, addend: 0x0, symName: __ZN5Eigen15DenseCoeffsBaseINS_5ArrayIfLin1ELin1ELi0ELin1ELin1EEELi1EEclEll, symObjAddr: 0x810, symBinAddr: 0x100003AF4, symSize: 0xF4 }
  - { offsetInCU: 0x2CC11, offset: 0x2CC11, size: 0x8, addend: 0x0, symName: __ZNK5Eigen9ArrayBaseINS_5ArrayIfLin1ELin1ELi0ELin1ELin1EEEEleIS2_EEKNS_13CwiseBinaryOpINS_8internal13scalar_cmp_opIfNT_6ScalarELNS6_14ComparisonNameE2EEEKS2_KS8_EERKNS0_IS8_EE, symObjAddr: 0x904, symBinAddr: 0x100003BE8, symSize: 0x60 }
  - { offsetInCU: 0x2CC4E, offset: 0x2CC4E, size: 0x8, addend: 0x0, symName: __ZNK5Eigen9DenseBaseINS_13CwiseBinaryOpINS_8internal13scalar_cmp_opIffLNS2_14ComparisonNameE2EEEKNS_5ArrayIfLin1ELin1ELi0ELin1ELin1EEES8_EEE4castIiEENSA_7CastXprIT_E4TypeEv, symObjAddr: 0x964, symBinAddr: 0x100003C48, symSize: 0x4C }
  - { offsetInCU: 0x2CC82, offset: 0x2CC82, size: 0x8, addend: 0x0, symName: __ZN5Eigen5ArrayIiLin1ELin1ELi0ELin1ELin1EEC1INS_12CwiseUnaryOpINS_8internal14scalar_cast_opIbiEEKNS_13CwiseBinaryOpINS4_13scalar_cmp_opIffLNS4_14ComparisonNameE2EEEKNS0_IfLin1ELin1ELi0ELin1ELin1EEESC_EEEEEERKNS_9EigenBaseIT_EENS4_9enable_ifIXsr8internal14is_convertibleINSH_6ScalarEiEE5valueENS1_11PrivateTypeEE4typeE, symObjAddr: 0x9B0, symBinAddr: 0x100003C94, symSize: 0x34 }
  - { offsetInCU: 0x2CCCF, offset: 0x2CCCF, size: 0x8, addend: 0x0, symName: __ZNK5Eigen9ArrayBaseINS_5ArrayIiLin1ELin1ELi0ELin1ELin1EEEEmlIS2_EEKNS_13CwiseBinaryOpINS_8internal17scalar_product_opIiNS6_6traitsIT_E6ScalarEEEKS2_KS9_EERKNS0_IS9_EE, symObjAddr: 0x9E4, symBinAddr: 0x100003CC8, symSize: 0x60 }
  - { offsetInCU: 0x2CD0C, offset: 0x2CD0C, size: 0x8, addend: 0x0, symName: __ZN5Eigen9DenseBaseINS_5ArrayIiLin1ELin1ELi0ELin1ELin1EEEE5blockIiiEENS3_13FixedBlockXprIXsr8internal15get_fixed_valueIT_EE5valueEXsr8internal15get_fixed_valueIT0_EE5valueEE4TypeEllS6_S7_, symObjAddr: 0xA44, symBinAddr: 0x100003D28, symSize: 0x94 }
  - { offsetInCU: 0x2CD7C, offset: 0x2CD7C, size: 0x8, addend: 0x0, symName: __ZN5Eigen5BlockINS_5ArrayIiLin1ELin1ELi0ELin1ELin1EEELin1ELin1ELb0EEaSINS_13CwiseBinaryOpINS_8internal17scalar_product_opIiiEEKS2_S9_EEEERS3_RKNS_9DenseBaseIT_EE, symObjAddr: 0xAD8, symBinAddr: 0x100003DBC, symSize: 0x40 }
  - { offsetInCU: 0x2CDB9, offset: 0x2CDB9, size: 0x8, addend: 0x0, symName: __ZN5Eigen5ArrayIiLin1ELin1ELi0ELin1ELin1EED1Ev, symObjAddr: 0xB18, symBinAddr: 0x100003DFC, symSize: 0x2C }
  - { offsetInCU: 0x2CDE5, offset: 0x2CDE5, size: 0x8, addend: 0x0, symName: __ZN5Eigen5ArrayIfLin1ELin1ELi0ELin1ELin1EED1Ev, symObjAddr: 0xB44, symBinAddr: 0x100003E28, symSize: 0x2C }
  - { offsetInCU: 0x2CE11, offset: 0x2CE11, size: 0x8, addend: 0x0, symName: __ZN5Eigen5ArrayIiLin1ELi1ELi0ELin1ELi1EED1Ev, symObjAddr: 0xB70, symBinAddr: 0x100003E54, symSize: 0x2C }
  - { offsetInCU: 0x2CE3D, offset: 0x2CE3D, size: 0x8, addend: 0x0, symName: _main, symObjAddr: 0xB9C, symBinAddr: 0x100003E80, symSize: 0x5CC }
  - { offsetInCU: 0x2CF88, offset: 0x2CF88, size: 0x8, addend: 0x0, symName: __ZNSt3__113random_deviceC1B8ue170006Ev, symObjAddr: 0x1168, symBinAddr: 0x10000444C, symSize: 0x74 }
  - { offsetInCU: 0x2CFB2, offset: 0x2CFB2, size: 0x8, addend: 0x0, symName: __ZNSt3__123mersenne_twister_engineIjLm32ELm624ELm397ELm31ELj2567483615ELm11ELj4294967295ELm7ELj2636928640ELm15ELj4022730752ELm18ELj1812433253EEC1B8ue170006Ej, symObjAddr: 0x11DC, symBinAddr: 0x1000044C0, symSize: 0x34 }
  - { offsetInCU: 0x2CFEA, offset: 0x2CFEA, size: 0x8, addend: 0x0, symName: __ZN5Eigen5ArrayIiLin1ELi1ELi0ELin1ELi1EEC1IiEERKT_, symObjAddr: 0x1210, symBinAddr: 0x1000044F4, symSize: 0x34 }
  - { offsetInCU: 0x2D02B, offset: 0x2D02B, size: 0x8, addend: 0x0, symName: __ZN5Eigen9DenseBaseINS_5ArrayIiLin1ELi1ELi0ELin1ELi1EEEElsERKi, symObjAddr: 0x1244, symBinAddr: 0x100004528, symSize: 0x40 }
  - { offsetInCU: 0x2D062, offset: 0x2D062, size: 0x8, addend: 0x0, symName: __ZN5Eigen16CommaInitializerINS_5ArrayIiLin1ELi1ELi0ELin1ELi1EEEEcmERKi, symObjAddr: 0x1284, symBinAddr: 0x100004568, symSize: 0x1B8 }
  - { offsetInCU: 0x2D096, offset: 0x2D096, size: 0x8, addend: 0x0, symName: __ZN5Eigen16CommaInitializerINS_5ArrayIiLin1ELi1ELi0ELin1ELi1EEEED1Ev, symObjAddr: 0x143C, symBinAddr: 0x100004720, symSize: 0x2C }
  - { offsetInCU: 0x2D0C0, offset: 0x2D0C0, size: 0x8, addend: 0x0, symName: __ZNK5Eigen9DenseBaseINS_5ArrayIiLin1ELi1ELi0ELin1ELi1EEEE3sumEv, symObjAddr: 0x1468, symBinAddr: 0x10000474C, symSize: 0x70 }
  - { offsetInCU: 0x2D0E9, offset: 0x2D0E9, size: 0x8, addend: 0x0, symName: __ZN5Eigen9DenseBaseINS_5ArrayIiLin1ELin1ELi0ELin1ELin1EEEE8ConstantEllRKi, symObjAddr: 0x14D8, symBinAddr: 0x1000047BC, symSize: 0x60 }
  - { offsetInCU: 0x2D132, offset: 0x2D132, size: 0x8, addend: 0x0, symName: __ZN5Eigen5ArrayIiLin1ELin1ELi0ELin1ELin1EEC1INS_14CwiseNullaryOpINS_8internal18scalar_constant_opIiEES1_EEEERKNS_9EigenBaseIT_EENS4_9enable_ifIXsr8internal14is_convertibleINS9_6ScalarEiEE5valueENS1_11PrivateTypeEE4typeE, symObjAddr: 0x1538, symBinAddr: 0x10000481C, symSize: 0x34 }
  - { offsetInCU: 0x2D17F, offset: 0x2D17F, size: 0x8, addend: 0x0, symName: __ZN5Eigen9DenseBaseINS_5ArrayIfLin1ELin1ELi0ELin1ELin1EEEE4ZeroEll, symObjAddr: 0x156C, symBinAddr: 0x100004850, symSize: 0x40 }
  - { offsetInCU: 0x2D1BA, offset: 0x2D1BA, size: 0x8, addend: 0x0, symName: __ZN5Eigen5ArrayIfLin1ELin1ELi0ELin1ELin1EEC1INS_14CwiseNullaryOpINS_8internal18scalar_constant_opIfEES1_EEEERKNS_9EigenBaseIT_EENS4_9enable_ifIXsr8internal14is_convertibleINS9_6ScalarEfEE5valueENS1_11PrivateTypeEE4typeE, symObjAddr: 0x15AC, symBinAddr: 0x100004890, symSize: 0x34 }
  - { offsetInCU: 0x2D207, offset: 0x2D207, size: 0x8, addend: 0x0, symName: __ZNSt3__16vectorIN5Eigen5ArrayIfLin1ELin1ELi0ELin1ELin1EEENS_9allocatorIS3_EEEC1EmRKS3_, symObjAddr: 0x15E0, symBinAddr: 0x1000048C4, symSize: 0x3C }
  - { offsetInCU: 0x2D251, offset: 0x2D251, size: 0x8, addend: 0x0, symName: __ZNSt3__16vectorIN5Eigen5ArrayIfLin1ELin1ELi0ELin1ELin1EEENS_9allocatorIS3_EEEixB8ue170006Em, symObjAddr: 0x161C, symBinAddr: 0x100004900, symSize: 0x2C }
  - { offsetInCU: 0x2D324, offset: 0x2D324, size: 0x8, addend: 0x0, symName: __ZNSt3__114basic_ofstreamIcNS_11char_traitsIcEEEC1EPKcj, symObjAddr: 0x1648, symBinAddr: 0x10000492C, symSize: 0x16C }
  - { offsetInCU: 0x2D36E, offset: 0x2D36E, size: 0x8, addend: 0x0, symName: __ZNKSt3__114basic_ofstreamIcNS_11char_traitsIcEEE7is_openEv, symObjAddr: 0x17B4, symBinAddr: 0x100004A98, symSize: 0x2C }
  - { offsetInCU: 0x2D396, offset: 0x2D396, size: 0x8, addend: 0x0, symName: __ZNSt3__113basic_ostreamIcNS_11char_traitsIcEEElsB8ue170006EPFRS3_S4_E, symObjAddr: 0x1828, symBinAddr: 0x100004B0C, symSize: 0x2C }
  - { offsetInCU: 0x2D3CA, offset: 0x2D3CA, size: 0x8, addend: 0x0, symName: __ZNK5Eigen15PlainObjectBaseINS_5ArrayIiLin1ELin1ELi0ELin1ELin1EEEE4rowsEv, symObjAddr: 0x18AC, symBinAddr: 0x100004B90, symSize: 0x24 }
  - { offsetInCU: 0x2D3F0, offset: 0x2D3F0, size: 0x8, addend: 0x0, symName: __ZNK5Eigen15PlainObjectBaseINS_5ArrayIiLin1ELin1ELi0ELin1ELin1EEEE4colsEv, symObjAddr: 0x18D0, symBinAddr: 0x100004BB4, symSize: 0x24 }
  - { offsetInCU: 0x2D416, offset: 0x2D416, size: 0x8, addend: 0x0, symName: __ZN5Eigen15DenseCoeffsBaseINS_5ArrayIiLin1ELin1ELi0ELin1ELin1EEELi1EEclEll, symObjAddr: 0x18F4, symBinAddr: 0x100004BD8, symSize: 0xF4 }
  - { offsetInCU: 0x2D45A, offset: 0x2D45A, size: 0x8, addend: 0x0, symName: __ZNSt3__114basic_ofstreamIcNS_11char_traitsIcEEE5closeEv, symObjAddr: 0x1A1C, symBinAddr: 0x100004D00, symSize: 0x58 }
  - { offsetInCU: 0x2D487, offset: 0x2D487, size: 0x8, addend: 0x0, symName: __ZNSt3__114basic_ofstreamIcNS_11char_traitsIcEEED1Ev, symObjAddr: 0x1A74, symBinAddr: 0x100004D58, symSize: 0x40 }
  - { offsetInCU: 0x2D4B4, offset: 0x2D4B4, size: 0x8, addend: 0x0, symName: __ZNSt3__16vectorIN5Eigen5ArrayIfLin1ELin1ELi0ELin1ELin1EEENS_9allocatorIS3_EEED1B8ue170006Ev, symObjAddr: 0x1AB4, symBinAddr: 0x100004D98, symSize: 0x2C }
  - { offsetInCU: 0x2D4DE, offset: 0x2D4DE, size: 0x8, addend: 0x0, symName: __ZN5Eigen8internal8FixedIntILi1EEC1Ev, symObjAddr: 0x1AE0, symBinAddr: 0x100004DC4, symSize: 0x2C }
  - { offsetInCU: 0x2D508, offset: 0x2D508, size: 0x8, addend: 0x0, symName: __ZN5Eigen8internal5all_tC2Ev, symObjAddr: 0x1B0C, symBinAddr: 0x100004DF0, symSize: 0x14 }
  - { offsetInCU: 0x2D532, offset: 0x2D532, size: 0x8, addend: 0x0, symName: __ZNK5Eigen9EigenBaseINS_5ArrayIiLin1ELi1ELi0ELin1ELi1EEEE4rowsEv, symObjAddr: 0x1B20, symBinAddr: 0x100004E04, symSize: 0x38 }
  - { offsetInCU: 0x2D558, offset: 0x2D558, size: 0x8, addend: 0x0, symName: __ZNK5Eigen9EigenBaseINS_5ArrayIiLin1ELi1ELi0ELin1ELi1EEEE4colsEv, symObjAddr: 0x1B58, symBinAddr: 0x100004E3C, symSize: 0x28 }
  - { offsetInCU: 0x2D57E, offset: 0x2D57E, size: 0x8, addend: 0x0, symName: __ZNK5Eigen9EigenBaseINS_5ArrayIiLin1ELi1ELi0ELin1ELi1EEEE7derivedEv, symObjAddr: 0x1B80, symBinAddr: 0x100004E64, symSize: 0x14 }
  - { offsetInCU: 0x2D5A4, offset: 0x2D5A4, size: 0x8, addend: 0x0, symName: __ZNK5Eigen15PlainObjectBaseINS_5ArrayIiLin1ELi1ELi0ELin1ELi1EEEE4rowsEv, symObjAddr: 0x1BA0, symBinAddr: 0x100004E84, symSize: 0x24 }
  - { offsetInCU: 0x2D5CA, offset: 0x2D5CA, size: 0x8, addend: 0x0, symName: __ZNK5Eigen12DenseStorageIiLin1ELin1ELi1ELi0EE4rowsEv, symObjAddr: 0x1BC4, symBinAddr: 0x100004EA8, symSize: 0x18 }
  - { offsetInCU: 0x2D5F0, offset: 0x2D5F0, size: 0x8, addend: 0x0, symName: __ZNK5Eigen15PlainObjectBaseINS_5ArrayIiLin1ELi1ELi0ELin1ELi1EEEE4colsEv, symObjAddr: 0x1BDC, symBinAddr: 0x100004EC0, symSize: 0x30 }
  - { offsetInCU: 0x2D616, offset: 0x2D616, size: 0x8, addend: 0x0, symName: __ZN5Eigen12DenseStorageIiLin1ELin1ELi1ELi0EE4colsEv, symObjAddr: 0x1C0C, symBinAddr: 0x100004EF0, symSize: 0x8 }
  - { offsetInCU: 0x2D62A, offset: 0x2D62A, size: 0x8, addend: 0x0, symName: __ZN5Eigen5ArrayIiLin1ELin1ELi0ELin1ELin1EED2Ev, symObjAddr: 0x1C14, symBinAddr: 0x100004EF8, symSize: 0x2C }
  - { offsetInCU: 0x2D656, offset: 0x2D656, size: 0x8, addend: 0x0, symName: __ZN5Eigen15PlainObjectBaseINS_5ArrayIiLin1ELin1ELi0ELin1ELin1EEEED2Ev, symObjAddr: 0x1C40, symBinAddr: 0x100004F24, symSize: 0x2C }
  - { offsetInCU: 0x2D682, offset: 0x2D682, size: 0x8, addend: 0x0, symName: __ZN5Eigen12DenseStorageIiLin1ELin1ELin1ELi0EED1Ev, symObjAddr: 0x1C6C, symBinAddr: 0x100004F50, symSize: 0x2C }
  - { offsetInCU: 0x2D6AC, offset: 0x2D6AC, size: 0x8, addend: 0x0, symName: __ZN5Eigen12DenseStorageIiLin1ELin1ELin1ELi0EED2Ev, symObjAddr: 0x1C98, symBinAddr: 0x100004F7C, symSize: 0x44 }
  - { offsetInCU: 0x2D6D6, offset: 0x2D6D6, size: 0x8, addend: 0x0, symName: __ZN5Eigen5ArrayIfLin1ELin1ELi0ELin1ELin1EED2Ev, symObjAddr: 0x1D4C, symBinAddr: 0x100005030, symSize: 0x2C }
  - { offsetInCU: 0x2D702, offset: 0x2D702, size: 0x8, addend: 0x0, symName: __ZN5Eigen15PlainObjectBaseINS_5ArrayIfLin1ELin1ELi0ELin1ELin1EEEED2Ev, symObjAddr: 0x1D78, symBinAddr: 0x10000505C, symSize: 0x2C }
  - { offsetInCU: 0x2D72E, offset: 0x2D72E, size: 0x8, addend: 0x0, symName: __ZN5Eigen12DenseStorageIfLin1ELin1ELin1ELi0EED1Ev, symObjAddr: 0x1DA4, symBinAddr: 0x100005088, symSize: 0x2C }
  - { offsetInCU: 0x2D758, offset: 0x2D758, size: 0x8, addend: 0x0, symName: __ZN5Eigen12DenseStorageIfLin1ELin1ELin1ELi0EED2Ev, symObjAddr: 0x1DD0, symBinAddr: 0x1000050B4, symSize: 0x44 }
  - { offsetInCU: 0x2D782, offset: 0x2D782, size: 0x8, addend: 0x0, symName: __ZN5Eigen5ArrayIiLin1ELi1ELi0ELin1ELi1EED2Ev, symObjAddr: 0x1E3C, symBinAddr: 0x100005120, symSize: 0x2C }
  - { offsetInCU: 0x2D7AE, offset: 0x2D7AE, size: 0x8, addend: 0x0, symName: __ZN5Eigen15PlainObjectBaseINS_5ArrayIiLin1ELi1ELi0ELin1ELi1EEEED2Ev, symObjAddr: 0x1E68, symBinAddr: 0x10000514C, symSize: 0x2C }
  - { offsetInCU: 0x2D7DA, offset: 0x2D7DA, size: 0x8, addend: 0x0, symName: __ZN5Eigen12DenseStorageIiLin1ELin1ELi1ELi0EED1Ev, symObjAddr: 0x1E94, symBinAddr: 0x100005178, symSize: 0x2C }
  - { offsetInCU: 0x2D804, offset: 0x2D804, size: 0x8, addend: 0x0, symName: __ZN5Eigen12DenseStorageIiLin1ELin1ELi1ELi0EED2Ev, symObjAddr: 0x1EC0, symBinAddr: 0x1000051A4, symSize: 0x44 }
  - { offsetInCU: 0x2D833, offset: 0x2D833, size: 0x8, addend: 0x0, symName: __ZNSt3__112basic_stringIcNS_11char_traitsIcEENS_9allocatorIcEEEC1B8ue170006ILi0EEEPKc, symObjAddr: 0x1F04, symBinAddr: 0x1000051E8, symSize: 0x34 }
  - { offsetInCU: 0x2D872, offset: 0x2D872, size: 0x8, addend: 0x0, symName: __ZNSt3__112basic_stringIcNS_11char_traitsIcEENS_9allocatorIcEEEC2B8ue170006ILi0EEEPKc, symObjAddr: 0x1F38, symBinAddr: 0x10000521C, symSize: 0x58 }
  - { offsetInCU: 0x2D8B7, offset: 0x2D8B7, size: 0x8, addend: 0x0, symName: __ZNSt3__117__compressed_pairINS_12basic_stringIcNS_11char_traitsIcEENS_9allocatorIcEEE5__repES5_EC1B8ue170006INS_18__default_init_tagESA_EEOT_OT0_, symObjAddr: 0x1F90, symBinAddr: 0x100005274, symSize: 0x3C }
  - { offsetInCU: 0x2D90F, offset: 0x2D90F, size: 0x8, addend: 0x0, symName: __ZNSt3__111char_traitsIcE6lengthB8ue170006EPKc, symObjAddr: 0x1FCC, symBinAddr: 0x1000052B0, symSize: 0x34 }
  - { offsetInCU: 0x2D932, offset: 0x2D932, size: 0x8, addend: 0x0, symName: __ZNSt3__117__compressed_pairINS_12basic_stringIcNS_11char_traitsIcEENS_9allocatorIcEEE5__repES5_EC2B8ue170006INS_18__default_init_tagESA_EEOT_OT0_, symObjAddr: 0x2000, symBinAddr: 0x1000052E4, symSize: 0x3C }
  - { offsetInCU: 0x2D98A, offset: 0x2D98A, size: 0x8, addend: 0x0, symName: __ZNSt3__122__compressed_pair_elemINS_12basic_stringIcNS_11char_traitsIcEENS_9allocatorIcEEE5__repELi0ELb0EEC2B8ue170006ENS_18__default_init_tagE, symObjAddr: 0x203C, symBinAddr: 0x100005320, symSize: 0x14 }
  - { offsetInCU: 0x2D9BF, offset: 0x2D9BF, size: 0x8, addend: 0x0, symName: __ZNSt3__122__compressed_pair_elemINS_9allocatorIcEELi1ELb1EEC2B8ue170006ENS_18__default_init_tagE, symObjAddr: 0x2050, symBinAddr: 0x100005334, symSize: 0x2C }
  - { offsetInCU: 0x2D9F4, offset: 0x2D9F4, size: 0x8, addend: 0x0, symName: __ZNSt3__19allocatorIcEC2B8ue170006Ev, symObjAddr: 0x207C, symBinAddr: 0x100005360, symSize: 0x2C }
  - { offsetInCU: 0x2DA1E, offset: 0x2DA1E, size: 0x8, addend: 0x0, symName: __ZNSt3__116__non_trivial_ifILb1ENS_9allocatorIcEEEC2B8ue170006Ev, symObjAddr: 0x20A8, symBinAddr: 0x10000538C, symSize: 0x14 }
  - { offsetInCU: 0x2DA48, offset: 0x2DA48, size: 0x8, addend: 0x0, symName: __ZNK5Eigen12DenseStorageIiLin1ELin1ELin1ELi0EE4rowsEv, symObjAddr: 0x20E0, symBinAddr: 0x1000053C4, symSize: 0x18 }
  - { offsetInCU: 0x2DA6E, offset: 0x2DA6E, size: 0x8, addend: 0x0, symName: __ZNK5Eigen12DenseStorageIiLin1ELin1ELin1ELi0EE4colsEv, symObjAddr: 0x20F8, symBinAddr: 0x1000053DC, symSize: 0x18 }
  - { offsetInCU: 0x2DA94, offset: 0x2DA94, size: 0x8, addend: 0x0, symName: __ZNSt3__114basic_ofstreamIcNS_11char_traitsIcEEED2Ev, symObjAddr: 0x2110, symBinAddr: 0x1000053F4, symSize: 0x64 }
  - { offsetInCU: 0x2DACE, offset: 0x2DACE, size: 0x8, addend: 0x0, symName: __ZTv0_n24_NSt3__114basic_ofstreamIcNS_11char_traitsIcEEED1Ev, symObjAddr: 0x2174, symBinAddr: 0x100005458, symSize: 0x28 }
  - { offsetInCU: 0x2DAE5, offset: 0x2DAE5, size: 0x8, addend: 0x0, symName: __ZN5Eigen8symbolic10SymbolExprINS_8internal17symbolic_last_tagEEC2Ev, symObjAddr: 0x219C, symBinAddr: 0x100005480, symSize: 0x14 }
  - { offsetInCU: 0x2DB0F, offset: 0x2DB0F, size: 0x8, addend: 0x0, symName: __ZN5Eigen8internal8FixedIntILi1EEC2Ev, symObjAddr: 0x21B0, symBinAddr: 0x100005494, symSize: 0x14 }
  - { offsetInCU: 0x2DB39, offset: 0x2DB39, size: 0x8, addend: 0x0, symName: __ZNK5Eigen8symbolic8BaseExprINS0_10SymbolExprINS_8internal17symbolic_last_tagEEEE7derivedEv, symObjAddr: 0x21C4, symBinAddr: 0x1000054A8, symSize: 0x14 }
  - { offsetInCU: 0x2DB5F, offset: 0x2DB5F, size: 0x8, addend: 0x0, symName: __ZN5Eigen8symbolic9ValueExprINS_8internal8FixedIntILi1EEEEC1Ev, symObjAddr: 0x21D8, symBinAddr: 0x1000054BC, symSize: 0x2C }
  - { offsetInCU: 0x2DB89, offset: 0x2DB89, size: 0x8, addend: 0x0, symName: __ZN5Eigen8symbolic7AddExprINS0_10SymbolExprINS_8internal17symbolic_last_tagEEENS0_9ValueExprINS3_8FixedIntILi1EEEEEEC1ERKS5_RKS9_, symObjAddr: 0x2204, symBinAddr: 0x1000054E8, symSize: 0x3C }
  - { offsetInCU: 0x2DBCF, offset: 0x2DBCF, size: 0x8, addend: 0x0, symName: __ZN5Eigen8symbolic9ValueExprINS_8internal8FixedIntILi1EEEEC2Ev, symObjAddr: 0x2240, symBinAddr: 0x100005524, symSize: 0x14 }
  - { offsetInCU: 0x2DBF9, offset: 0x2DBF9, size: 0x8, addend: 0x0, symName: __ZN5Eigen8symbolic7AddExprINS0_10SymbolExprINS_8internal17symbolic_last_tagEEENS0_9ValueExprINS3_8FixedIntILi1EEEEEEC2ERKS5_RKS9_, symObjAddr: 0x2254, symBinAddr: 0x100005538, symSize: 0x1C }
  - { offsetInCU: 0x2DC3F, offset: 0x2DC3F, size: 0x8, addend: 0x0, symName: __ZNSt3__125uniform_real_distributionIfEC2B8ue170006Eff, symObjAddr: 0x2270, symBinAddr: 0x100005554, symSize: 0x3C }
  - { offsetInCU: 0x2DC85, offset: 0x2DC85, size: 0x8, addend: 0x0, symName: __ZNSt3__125uniform_real_distributionIfE10param_typeC1B8ue170006Eff, symObjAddr: 0x22AC, symBinAddr: 0x100005590, symSize: 0x3C }
  - { offsetInCU: 0x2DCCB, offset: 0x2DCCB, size: 0x8, addend: 0x0, symName: __ZNSt3__125uniform_real_distributionIfE10param_typeC2B8ue170006Eff, symObjAddr: 0x22E8, symBinAddr: 0x1000055CC, symSize: 0x2C }
  - { offsetInCU: 0x2DD11, offset: 0x2DD11, size: 0x8, addend: 0x0, symName: __ZNK5Eigen15DenseCoeffsBaseINS_5ArrayIiLin1ELi1ELi0ELin1ELi1EEELi0EE5coeffEl, symObjAddr: 0x2314, symBinAddr: 0x1000055F8, symSize: 0x78 }
  - { offsetInCU: 0x2DD45, offset: 0x2DD45, size: 0x8, addend: 0x0, symName: __ZN5Eigen8internal9evaluatorINS_5ArrayIiLin1ELi1ELi0ELin1ELi1EEEEC1ERKS3_, symObjAddr: 0x238C, symBinAddr: 0x100005670, symSize: 0x34 }
  - { offsetInCU: 0x2DD7E, offset: 0x2DD7E, size: 0x8, addend: 0x0, symName: __ZNK5Eigen8internal9evaluatorINS_15PlainObjectBaseINS_5ArrayIiLin1ELi1ELi0ELin1ELi1EEEEEE5coeffEl, symObjAddr: 0x23C0, symBinAddr: 0x1000056A4, symSize: 0x24 }
  - { offsetInCU: 0x2DDB2, offset: 0x2DDB2, size: 0x8, addend: 0x0, symName: __ZN5Eigen8internal9evaluatorINS_5ArrayIiLin1ELi1ELi0ELin1ELi1EEEED1Ev, symObjAddr: 0x23E4, symBinAddr: 0x1000056C8, symSize: 0x2C }
  - { offsetInCU: 0x2DDDF, offset: 0x2DDDF, size: 0x8, addend: 0x0, symName: __ZN5Eigen8internal9evaluatorINS_5ArrayIiLin1ELi1ELi0ELin1ELi1EEEEC2ERKS3_, symObjAddr: 0x2410, symBinAddr: 0x1000056F4, symSize: 0x34 }
  - { offsetInCU: 0x2DE18, offset: 0x2DE18, size: 0x8, addend: 0x0, symName: __ZN5Eigen8internal9evaluatorINS_15PlainObjectBaseINS_5ArrayIiLin1ELi1ELi0ELin1ELi1EEEEEEC2ERKS5_, symObjAddr: 0x2444, symBinAddr: 0x100005728, symSize: 0x78 }
  - { offsetInCU: 0x2DE50, offset: 0x2DE50, size: 0x8, addend: 0x0, symName: __ZN5Eigen8internal14evaluator_baseINS_5ArrayIiLin1ELi1ELi0ELin1ELi1EEEEC2Ev, symObjAddr: 0x24BC, symBinAddr: 0x1000057A0, symSize: 0x14 }
  - { offsetInCU: 0x2DE7A, offset: 0x2DE7A, size: 0x8, addend: 0x0, symName: __ZNK5Eigen15PlainObjectBaseINS_5ArrayIiLin1ELi1ELi0ELin1ELi1EEEE4dataEv, symObjAddr: 0x24D0, symBinAddr: 0x1000057B4, symSize: 0x24 }
  - { offsetInCU: 0x2DEA0, offset: 0x2DEA0, size: 0x8, addend: 0x0, symName: __ZN5Eigen8internal30plainobjectbase_evaluator_dataIiLi0EEC1EPKil, symObjAddr: 0x24F4, symBinAddr: 0x1000057D8, symSize: 0x3C }
  - { offsetInCU: 0x2DEE6, offset: 0x2DEE6, size: 0x8, addend: 0x0, symName: __ZN5Eigen8internal14evaluator_baseINS_5ArrayIiLin1ELi1ELi0ELin1ELi1EEEED2Ev, symObjAddr: 0x2530, symBinAddr: 0x100005814, symSize: 0x14 }
  - { offsetInCU: 0x2DF10, offset: 0x2DF10, size: 0x8, addend: 0x0, symName: __ZNK5Eigen12DenseStorageIiLin1ELin1ELi1ELi0EE4dataEv, symObjAddr: 0x2544, symBinAddr: 0x100005828, symSize: 0x18 }
  - { offsetInCU: 0x2DF36, offset: 0x2DF36, size: 0x8, addend: 0x0, symName: __ZN5Eigen8internal30plainobjectbase_evaluator_dataIiLi0EEC2EPKil, symObjAddr: 0x255C, symBinAddr: 0x100005840, symSize: 0x40 }
  - { offsetInCU: 0x2DF7C, offset: 0x2DF7C, size: 0x8, addend: 0x0, symName: __ZN5Eigen8internal9evaluatorINS_5ArrayIiLin1ELi1ELi0ELin1ELi1EEEED2Ev, symObjAddr: 0x25AC, symBinAddr: 0x100005890, symSize: 0x2C }
  - { offsetInCU: 0x2DFA9, offset: 0x2DFA9, size: 0x8, addend: 0x0, symName: __ZN5Eigen8internal9evaluatorINS_15PlainObjectBaseINS_5ArrayIiLin1ELi1ELi0ELin1ELi1EEEEEED2Ev, symObjAddr: 0x25D8, symBinAddr: 0x1000058BC, symSize: 0x2C }
  - { offsetInCU: 0x2DFD5, offset: 0x2DFD5, size: 0x8, addend: 0x0, symName: __ZN5Eigen9DenseBaseINS_5ArrayIiLin1ELi1ELi0ELin1ELi1EEEE11NullaryExprINS_8internal12linspaced_opIiEEEEKNS_14CwiseNullaryOpIT_S2_EElRKS9_, symObjAddr: 0x2604, symBinAddr: 0x1000058E8, symSize: 0x3C }
  - { offsetInCU: 0x2E013, offset: 0x2E013, size: 0x8, addend: 0x0, symName: __ZN5Eigen8internal12linspaced_opIiEC1ERKiS4_l, symObjAddr: 0x2640, symBinAddr: 0x100005924, symSize: 0x44 }
  - { offsetInCU: 0x2E067, offset: 0x2E067, size: 0x8, addend: 0x0, symName: __ZN5Eigen14CwiseNullaryOpINS_8internal12linspaced_opIiEENS_5ArrayIiLin1ELi1ELi0ELin1ELi1EEEEC1EllRKS3_, symObjAddr: 0x2684, symBinAddr: 0x100005968, symSize: 0x44 }
  - { offsetInCU: 0x2E0BB, offset: 0x2E0BB, size: 0x8, addend: 0x0, symName: __ZN5Eigen14CwiseNullaryOpINS_8internal12linspaced_opIiEENS_5ArrayIiLin1ELi1ELi0ELin1ELi1EEEEC2EllRKS3_, symObjAddr: 0x26C8, symBinAddr: 0x1000059AC, symSize: 0xEC }
  - { offsetInCU: 0x2E10F, offset: 0x2E10F, size: 0x8, addend: 0x0, symName: __ZN5Eigen9ArrayBaseINS_14CwiseNullaryOpINS_8internal12linspaced_opIiEENS_5ArrayIiLin1ELi1ELi0ELin1ELi1EEEEEEC2Ev, symObjAddr: 0x27B4, symBinAddr: 0x100005A98, symSize: 0x2C }
  - { offsetInCU: 0x2E139, offset: 0x2E139, size: 0x8, addend: 0x0, symName: __ZN5Eigen8internal19variable_if_dynamicIlLin1EEC1El, symObjAddr: 0x27E0, symBinAddr: 0x100005AC4, symSize: 0x34 }
  - { offsetInCU: 0x2E171, offset: 0x2E171, size: 0x8, addend: 0x0, symName: __ZN5Eigen8internal19variable_if_dynamicIlLi1EEC1El, symObjAddr: 0x2814, symBinAddr: 0x100005AF8, symSize: 0x34 }
  - { offsetInCU: 0x2E1A9, offset: 0x2E1A9, size: 0x8, addend: 0x0, symName: __ZN5Eigen9DenseBaseINS_14CwiseNullaryOpINS_8internal12linspaced_opIiEENS_5ArrayIiLin1ELi1ELi0ELin1ELi1EEEEEEC2Ev, symObjAddr: 0x2848, symBinAddr: 0x100005B2C, symSize: 0x14 }
  - { offsetInCU: 0x2E1D3, offset: 0x2E1D3, size: 0x8, addend: 0x0, symName: __ZN5Eigen8internal19variable_if_dynamicIlLin1EEC2El, symObjAddr: 0x285C, symBinAddr: 0x100005B40, symSize: 0x20 }
  - { offsetInCU: 0x2E20B, offset: 0x2E20B, size: 0x8, addend: 0x0, symName: __ZN5Eigen8internal19variable_if_dynamicIlLi1EEC2El, symObjAddr: 0x287C, symBinAddr: 0x100005B60, symSize: 0x64 }
  - { offsetInCU: 0x2E243, offset: 0x2E243, size: 0x8, addend: 0x0, symName: __ZN5Eigen8internal12linspaced_opIiEC2ERKiS4_l, symObjAddr: 0x28E0, symBinAddr: 0x100005BC4, symSize: 0x78 }
  - { offsetInCU: 0x2E297, offset: 0x2E297, size: 0x8, addend: 0x0, symName: __ZN5Eigen8internal17linspaced_op_implIiLb1EEC1ERKiS4_l, symObjAddr: 0x2958, symBinAddr: 0x100005C3C, symSize: 0x44 }
  - { offsetInCU: 0x2E2FD, offset: 0x2E2FD, size: 0x8, addend: 0x0, symName: __ZN5Eigen8internal17linspaced_op_implIiLb1EEC2ERKiS4_l, symObjAddr: 0x299C, symBinAddr: 0x100005C80, symSize: 0x22C }
  - { offsetInCU: 0x2E3C3, offset: 0x2E3C3, size: 0x8, addend: 0x0, symName: __ZN5Eigen5ArrayIiLin1ELi1ELi0ELin1ELi1EEC2INS_14CwiseNullaryOpINS_8internal12linspaced_opIiEES1_EEEERKNS_9EigenBaseIT_EENS4_9enable_ifIXsr8internal14is_convertibleINS9_6ScalarEiEE5valueENS1_11PrivateTypeEE4typeE, symObjAddr: 0x2BE4, symBinAddr: 0x100005EC8, symSize: 0x40 }
  - { offsetInCU: 0x2E410, offset: 0x2E410, size: 0x8, addend: 0x0, symName: __ZNK5Eigen9EigenBaseINS_14CwiseNullaryOpINS_8internal12linspaced_opIiEENS_5ArrayIiLin1ELi1ELi0ELin1ELi1EEEEEE7derivedEv, symObjAddr: 0x2C24, symBinAddr: 0x100005F08, symSize: 0x14 }
  - { offsetInCU: 0x2E436, offset: 0x2E436, size: 0x8, addend: 0x0, symName: __ZN5Eigen15PlainObjectBaseINS_5ArrayIiLin1ELi1ELi0ELin1ELi1EEEEC2INS_14CwiseNullaryOpINS_8internal12linspaced_opIiEES2_EEEERKNS_9DenseBaseIT_EE, symObjAddr: 0x2C38, symBinAddr: 0x100005F1C, symSize: 0x84 }
  - { offsetInCU: 0x2E478, offset: 0x2E478, size: 0x8, addend: 0x0, symName: __ZN5Eigen9ArrayBaseINS_5ArrayIiLin1ELi1ELi0ELin1ELi1EEEEC2Ev, symObjAddr: 0x2CBC, symBinAddr: 0x100005FA0, symSize: 0x2C }
  - { offsetInCU: 0x2E4A2, offset: 0x2E4A2, size: 0x8, addend: 0x0, symName: __ZN5Eigen12DenseStorageIiLin1ELin1ELi1ELi0EEC1Ev, symObjAddr: 0x2CE8, symBinAddr: 0x100005FCC, symSize: 0x2C }
  - { offsetInCU: 0x2E4CC, offset: 0x2E4CC, size: 0x8, addend: 0x0, symName: __ZN5Eigen15PlainObjectBaseINS_5ArrayIiLin1ELi1ELi0ELin1ELi1EEEE22_check_template_paramsEv, symObjAddr: 0x2D14, symBinAddr: 0x100005FF8, symSize: 0x4 }
  - { offsetInCU: 0x2E521, offset: 0x2E521, size: 0x8, addend: 0x0, symName: __ZN5Eigen15PlainObjectBaseINS_5ArrayIiLin1ELi1ELi0ELin1ELi1EEEE10resizeLikeINS_14CwiseNullaryOpINS_8internal12linspaced_opIiEES2_EEEEvRKNS_9EigenBaseIT_EE, symObjAddr: 0x2D18, symBinAddr: 0x100005FFC, symSize: 0x170 }
  - { offsetInCU: 0x2E5B5, offset: 0x2E5B5, size: 0x8, addend: 0x0, symName: __ZN5Eigen15PlainObjectBaseINS_5ArrayIiLin1ELi1ELi0ELin1ELi1EEEE12_set_noaliasINS_14CwiseNullaryOpINS_8internal12linspaced_opIiEES2_EEEERS2_RKNS_9DenseBaseIT_EE, symObjAddr: 0x2E88, symBinAddr: 0x10000616C, symSize: 0x60 }
  - { offsetInCU: 0x2E5F3, offset: 0x2E5F3, size: 0x8, addend: 0x0, symName: __ZN5Eigen9DenseBaseINS_5ArrayIiLin1ELi1ELi0ELin1ELi1EEEEC2Ev, symObjAddr: 0x2EE8, symBinAddr: 0x1000061CC, symSize: 0x14 }
  - { offsetInCU: 0x2E61D, offset: 0x2E61D, size: 0x8, addend: 0x0, symName: __ZN5Eigen12DenseStorageIiLin1ELin1ELi1ELi0EEC2Ev, symObjAddr: 0x2EFC, symBinAddr: 0x1000061E0, symSize: 0x1C }
  - { offsetInCU: 0x2E647, offset: 0x2E647, size: 0x8, addend: 0x0, symName: __ZNK5Eigen14CwiseNullaryOpINS_8internal12linspaced_opIiEENS_5ArrayIiLin1ELi1ELi0ELin1ELi1EEEE4rowsEv, symObjAddr: 0x2F18, symBinAddr: 0x1000061FC, symSize: 0x24 }
  - { offsetInCU: 0x2E66D, offset: 0x2E66D, size: 0x8, addend: 0x0, symName: __ZNK5Eigen14CwiseNullaryOpINS_8internal12linspaced_opIiEENS_5ArrayIiLin1ELi1ELi0ELin1ELi1EEEE4colsEv, symObjAddr: 0x2F3C, symBinAddr: 0x100006220, symSize: 0x20 }
  - { offsetInCU: 0x2E693, offset: 0x2E693, size: 0x8, addend: 0x0, symName: __ZN5Eigen15PlainObjectBaseINS_5ArrayIiLin1ELi1ELi0ELin1ELi1EEEE6resizeEll, symObjAddr: 0x2F5C, symBinAddr: 0x100006240, symSize: 0x168 }
  - { offsetInCU: 0x2E70F, offset: 0x2E70F, size: 0x8, addend: 0x0, symName: __ZNK5Eigen8internal19variable_if_dynamicIlLin1EE5valueEv, symObjAddr: 0x30F8, symBinAddr: 0x1000063DC, symSize: 0x18 }
  - { offsetInCU: 0x2E735, offset: 0x2E735, size: 0x8, addend: 0x0, symName: __ZN5Eigen8internal19variable_if_dynamicIlLi1EE5valueEv, symObjAddr: 0x3110, symBinAddr: 0x1000063F4, symSize: 0x8 }
  - { offsetInCU: 0x2E749, offset: 0x2E749, size: 0x8, addend: 0x0, symName: __ZN5Eigen12DenseStorageIiLin1ELin1ELi1ELi0EE6resizeElll, symObjAddr: 0x3118, symBinAddr: 0x1000063FC, symSize: 0xA4 }
  - { offsetInCU: 0x2E798, offset: 0x2E798, size: 0x8, addend: 0x0, symName: __ZN5Eigen9EigenBaseINS_5ArrayIiLin1ELi1ELi0ELin1ELi1EEEE7derivedEv, symObjAddr: 0x3380, symBinAddr: 0x100006664, symSize: 0x14 }
  - { offsetInCU: 0x2E7BE, offset: 0x2E7BE, size: 0x8, addend: 0x0, symName: __ZN5Eigen8internal9assign_opIiiEC1Ev, symObjAddr: 0x3394, symBinAddr: 0x100006678, symSize: 0x2C }
  - { offsetInCU: 0x2E7E8, offset: 0x2E7E8, size: 0x8, addend: 0x0, symName: __ZN5Eigen8internal10AssignmentINS_5ArrayIiLin1ELi1ELi0ELin1ELi1EEENS_14CwiseNullaryOpINS0_12linspaced_opIiEES3_EENS0_9assign_opIiiEENS0_11Dense2DenseEvE3runERS3_RKS7_RKS9_, symObjAddr: 0x33C0, symBinAddr: 0x1000066A4, symSize: 0x40 }
  - { offsetInCU: 0x2E84D, offset: 0x2E84D, size: 0x8, addend: 0x0, symName: __ZN5Eigen8internal9evaluatorINS_14CwiseNullaryOpINS0_12linspaced_opIiEENS_5ArrayIiLin1ELi1ELi0ELin1ELi1EEEEEEC1ERKS7_, symObjAddr: 0x34F4, symBinAddr: 0x1000067D8, symSize: 0x34 }
  - { offsetInCU: 0x2E886, offset: 0x2E886, size: 0x8, addend: 0x0, symName: __ZNK5Eigen9EigenBaseINS_5ArrayIiLin1ELi1ELi0ELin1ELi1EEEE18const_cast_derivedEv, symObjAddr: 0x3620, symBinAddr: 0x100006904, symSize: 0x14 }
  - { offsetInCU: 0x2E8D9, offset: 0x2E8D9, size: 0x8, addend: 0x0, symName: __ZN5Eigen8internal31generic_dense_assignment_kernelINS0_9evaluatorINS_5ArrayIiLin1ELi1ELi0ELin1ELi1EEEEENS2_INS_14CwiseNullaryOpINS0_12linspaced_opIiEES4_EEEENS0_9assign_opIiiEELi0EEC1ERS5_RKSA_RKSC_RS4_, symObjAddr: 0x3634, symBinAddr: 0x100006918, symSize: 0x4C }
  - { offsetInCU: 0x2E944, offset: 0x2E944, size: 0x8, addend: 0x0, symName: __ZN5Eigen8internal21dense_assignment_loopINS0_31generic_dense_assignment_kernelINS0_9evaluatorINS_5ArrayIiLin1ELi1ELi0ELin1ELi1EEEEENS3_INS_14CwiseNullaryOpINS0_12linspaced_opIiEES5_EEEENS0_9assign_opIiiEELi0EEELi1ELi0EE3runERSE_, symObjAddr: 0x3680, symBinAddr: 0x100006964, symSize: 0x68 }
  - { offsetInCU: 0x2E994, offset: 0x2E994, size: 0x8, addend: 0x0, symName: __ZN5Eigen8internal9evaluatorINS_14CwiseNullaryOpINS0_12linspaced_opIiEENS_5ArrayIiLin1ELi1ELi0ELin1ELi1EEEEEED1Ev, symObjAddr: 0x36E8, symBinAddr: 0x1000069CC, symSize: 0x2C }
  - { offsetInCU: 0x2E9C0, offset: 0x2E9C0, size: 0x8, addend: 0x0, symName: __ZN5Eigen8internal9evaluatorINS_14CwiseNullaryOpINS0_12linspaced_opIiEENS_5ArrayIiLin1ELi1ELi0ELin1ELi1EEEEEEC2ERKS7_, symObjAddr: 0x3714, symBinAddr: 0x1000069F8, symSize: 0x70 }
  - { offsetInCU: 0x2E9F9, offset: 0x2E9F9, size: 0x8, addend: 0x0, symName: __ZN5Eigen8internal14evaluator_baseINS_14CwiseNullaryOpINS0_12linspaced_opIiEENS_5ArrayIiLin1ELi1ELi0ELin1ELi1EEEEEEC2Ev, symObjAddr: 0x3784, symBinAddr: 0x100006A68, symSize: 0x14 }
  - { offsetInCU: 0x2EA23, offset: 0x2EA23, size: 0x8, addend: 0x0, symName: __ZNK5Eigen14CwiseNullaryOpINS_8internal12linspaced_opIiEENS_5ArrayIiLin1ELi1ELi0ELin1ELi1EEEE7functorEv, symObjAddr: 0x3798, symBinAddr: 0x100006A7C, symSize: 0x18 }
  - { offsetInCU: 0x2EA49, offset: 0x2EA49, size: 0x8, addend: 0x0, symName: __ZN5Eigen8internal14evaluator_baseINS_14CwiseNullaryOpINS0_12linspaced_opIiEENS_5ArrayIiLin1ELi1ELi0ELin1ELi1EEEEEED2Ev, symObjAddr: 0x37B0, symBinAddr: 0x100006A94, symSize: 0x14 }
  - { offsetInCU: 0x2EA73, offset: 0x2EA73, size: 0x8, addend: 0x0, symName: __ZN5Eigen8internal31generic_dense_assignment_kernelINS0_9evaluatorINS_5ArrayIiLin1ELi1ELi0ELin1ELi1EEEEENS2_INS_14CwiseNullaryOpINS0_12linspaced_opIiEES4_EEEENS0_9assign_opIiiEELi0EEC2ERS5_RKSA_RKSC_RS4_, symObjAddr: 0x37C4, symBinAddr: 0x100006AA8, symSize: 0x44 }
  - { offsetInCU: 0x2EAD9, offset: 0x2EAD9, size: 0x8, addend: 0x0, symName: __ZNK5Eigen8internal31generic_dense_assignment_kernelINS0_9evaluatorINS_5ArrayIiLin1ELi1ELi0ELin1ELi1EEEEENS2_INS_14CwiseNullaryOpINS0_12linspaced_opIiEES4_EEEENS0_9assign_opIiiEELi0EE4sizeEv, symObjAddr: 0x3808, symBinAddr: 0x100006AEC, symSize: 0x28 }
  - { offsetInCU: 0x2EAFF, offset: 0x2EAFF, size: 0x8, addend: 0x0, symName: __ZN5Eigen8internal31generic_dense_assignment_kernelINS0_9evaluatorINS_5ArrayIiLin1ELi1ELi0ELin1ELi1EEEEENS2_INS_14CwiseNullaryOpINS0_12linspaced_opIiEES4_EEEENS0_9assign_opIiiEELi0EE11assignCoeffEl, symObjAddr: 0x3830, symBinAddr: 0x100006B14, symSize: 0x68 }
  - { offsetInCU: 0x2EB34, offset: 0x2EB34, size: 0x8, addend: 0x0, symName: __ZNK5Eigen8internal9assign_opIiiE11assignCoeffERiRKi, symObjAddr: 0x3898, symBinAddr: 0x100006B7C, symSize: 0x28 }
  - { offsetInCU: 0x2EB76, offset: 0x2EB76, size: 0x8, addend: 0x0, symName: __ZN5Eigen8internal9evaluatorINS_15PlainObjectBaseINS_5ArrayIiLin1ELi1ELi0ELin1ELi1EEEEEE8coeffRefEl, symObjAddr: 0x38C0, symBinAddr: 0x100006BA4, symSize: 0x24 }
  - { offsetInCU: 0x2EBB4, offset: 0x2EBB4, size: 0x8, addend: 0x0, symName: __ZNK5Eigen8internal9evaluatorINS_14CwiseNullaryOpINS0_12linspaced_opIiEENS_5ArrayIiLin1ELi1ELi0ELin1ELi1EEEEEE5coeffIlEEiT_, symObjAddr: 0x38E4, symBinAddr: 0x100006BC8, symSize: 0x34 }
  - { offsetInCU: 0x2EBF7, offset: 0x2EBF7, size: 0x8, addend: 0x0, symName: __ZNK5Eigen8internal15nullary_wrapperIiNS0_12linspaced_opIiEELb0ELb1ELb0EEclIlEEiRKS3_T_, symObjAddr: 0x3918, symBinAddr: 0x100006BFC, symSize: 0x30 }
  - { offsetInCU: 0x2EC49, offset: 0x2EC49, size: 0x8, addend: 0x0, symName: __ZNK5Eigen8internal12linspaced_opIiEclIlEEKiT_, symObjAddr: 0x3948, symBinAddr: 0x100006C2C, symSize: 0x2C }
  - { offsetInCU: 0x2EC8B, offset: 0x2EC8B, size: 0x8, addend: 0x0, symName: __ZNK5Eigen8internal17linspaced_op_implIiLb1EEclIlEEKiT_, symObjAddr: 0x3974, symBinAddr: 0x100006C58, symSize: 0x98 }
  - { offsetInCU: 0x2ECC8, offset: 0x2ECC8, size: 0x8, addend: 0x0, symName: __ZN5Eigen8internal9evaluatorINS_14CwiseNullaryOpINS0_12linspaced_opIiEENS_5ArrayIiLin1ELi1ELi0ELin1ELi1EEEEEED2Ev, symObjAddr: 0x3A0C, symBinAddr: 0x100006CF0, symSize: 0x2C }
  - { offsetInCU: 0x2ECF4, offset: 0x2ECF4, size: 0x8, addend: 0x0, symName: __ZN5Eigen8internal9assign_opIiiEC2Ev, symObjAddr: 0x3A38, symBinAddr: 0x100006D1C, symSize: 0x14 }
  - { offsetInCU: 0x2ED1E, offset: 0x2ED1E, size: 0x8, addend: 0x0, symName: __ZN5Eigen9TransposeINS_5ArrayIiLin1ELi1ELi0ELin1ELi1EEEEC1ERS2_, symObjAddr: 0x3A4C, symBinAddr: 0x100006D30, symSize: 0x34 }
  - { offsetInCU: 0x2ED56, offset: 0x2ED56, size: 0x8, addend: 0x0, symName: __ZN5Eigen9TransposeINS_5ArrayIiLin1ELi1ELi0ELin1ELi1EEEEC2ERS2_, symObjAddr: 0x3A80, symBinAddr: 0x100006D64, symSize: 0x38 }
  - { offsetInCU: 0x2ED8E, offset: 0x2ED8E, size: 0x8, addend: 0x0, symName: __ZN5Eigen13TransposeImplINS_5ArrayIiLin1ELi1ELi0ELin1ELi1EEENS_5DenseEEC2Ev, symObjAddr: 0x3AB8, symBinAddr: 0x100006D9C, symSize: 0x2C }
  - { offsetInCU: 0x2EDB8, offset: 0x2EDB8, size: 0x8, addend: 0x0, symName: __ZN5Eigen9ArrayBaseINS_9TransposeINS_5ArrayIiLin1ELi1ELi0ELin1ELi1EEEEEEC2Ev, symObjAddr: 0x3AE4, symBinAddr: 0x100006DC8, symSize: 0x2C }
  - { offsetInCU: 0x2EDE2, offset: 0x2EDE2, size: 0x8, addend: 0x0, symName: __ZN5Eigen9DenseBaseINS_9TransposeINS_5ArrayIiLin1ELi1ELi0ELin1ELi1EEEEEEC2Ev, symObjAddr: 0x3B10, symBinAddr: 0x100006DF4, symSize: 0x14 }
  - { offsetInCU: 0x2EE0C, offset: 0x2EE0C, size: 0x8, addend: 0x0, symName: __ZNK5Eigen9EigenBaseINS_9TransposeINS_5ArrayIiLin1ELi1ELi0ELin1ELi1EEEEEE7derivedEv, symObjAddr: 0x3B24, symBinAddr: 0x100006E08, symSize: 0x14 }
  - { offsetInCU: 0x2EE37, offset: 0x2EE37, size: 0x8, addend: 0x0, symName: __ZN5Eigen9ReplicateINS_9TransposeINS_5ArrayIiLin1ELi1ELi0ELin1ELi1EEEEELin1ELin1EEC1IS4_EERKT_ll, symObjAddr: 0x3B38, symBinAddr: 0x100006E1C, symSize: 0x44 }
  - { offsetInCU: 0x2EE94, offset: 0x2EE94, size: 0x8, addend: 0x0, symName: __ZN5Eigen9ReplicateINS_9TransposeINS_5ArrayIiLin1ELi1ELi0ELin1ELi1EEEEELin1ELin1EEC2IS4_EERKT_ll, symObjAddr: 0x3B7C, symBinAddr: 0x100006E60, symSize: 0x64 }
  - { offsetInCU: 0x2EEF1, offset: 0x2EEF1, size: 0x8, addend: 0x0, symName: __ZN5Eigen9ArrayBaseINS_9ReplicateINS_9TransposeINS_5ArrayIiLin1ELi1ELi0ELin1ELi1EEEEELin1ELin1EEEEC2Ev, symObjAddr: 0x3BE0, symBinAddr: 0x100006EC4, symSize: 0x2C }
  - { offsetInCU: 0x2EF1B, offset: 0x2EF1B, size: 0x8, addend: 0x0, symName: __ZN5Eigen9DenseBaseINS_9ReplicateINS_9TransposeINS_5ArrayIiLin1ELi1ELi0ELin1ELi1EEEEELin1ELin1EEEEC2Ev, symObjAddr: 0x3C0C, symBinAddr: 0x100006EF0, symSize: 0x14 }
  - { offsetInCU: 0x2EF45, offset: 0x2EF45, size: 0x8, addend: 0x0, symName: __ZN5Eigen5ArrayIiLin1ELin1ELi0ELin1ELin1EEC2INS_9ReplicateINS_9TransposeINS0_IiLin1ELi1ELi0ELin1ELi1EEEEELin1ELin1EEEEERKNS_9EigenBaseIT_EENS_8internal9enable_ifIXsr8internal14is_convertibleINS9_6ScalarEiEE5valueENS1_11PrivateTypeEE4typeE, symObjAddr: 0x3C20, symBinAddr: 0x100006F04, symSize: 0x40 }
  - { offsetInCU: 0x2EF92, offset: 0x2EF92, size: 0x8, addend: 0x0, symName: __ZNK5Eigen9EigenBaseINS_9ReplicateINS_9TransposeINS_5ArrayIiLin1ELi1ELi0ELin1ELi1EEEEELin1ELin1EEEE7derivedEv, symObjAddr: 0x3C60, symBinAddr: 0x100006F44, symSize: 0x14 }
  - { offsetInCU: 0x2EFB8, offset: 0x2EFB8, size: 0x8, addend: 0x0, symName: __ZN5Eigen15PlainObjectBaseINS_5ArrayIiLin1ELin1ELi0ELin1ELin1EEEEC2INS_9ReplicateINS_9TransposeINS1_IiLin1ELi1ELi0ELin1ELi1EEEEELin1ELin1EEEEERKNS_9DenseBaseIT_EE, symObjAddr: 0x3C74, symBinAddr: 0x100006F58, symSize: 0x84 }
  - { offsetInCU: 0x2EFFA, offset: 0x2EFFA, size: 0x8, addend: 0x0, symName: __ZN5Eigen9ArrayBaseINS_5ArrayIiLin1ELin1ELi0ELin1ELin1EEEEC2Ev, symObjAddr: 0x3CF8, symBinAddr: 0x100006FDC, symSize: 0x2C }
  - { offsetInCU: 0x2F024, offset: 0x2F024, size: 0x8, addend: 0x0, symName: __ZN5Eigen12DenseStorageIiLin1ELin1ELin1ELi0EEC1Ev, symObjAddr: 0x3D24, symBinAddr: 0x100007008, symSize: 0x2C }
  - { offsetInCU: 0x2F04E, offset: 0x2F04E, size: 0x8, addend: 0x0, symName: __ZN5Eigen15PlainObjectBaseINS_5ArrayIiLin1ELin1ELi0ELin1ELin1EEEE22_check_template_paramsEv, symObjAddr: 0x3D50, symBinAddr: 0x100007034, symSize: 0x4 }
  - { offsetInCU: 0x2F062, offset: 0x2F062, size: 0x8, addend: 0x0, symName: __ZN5Eigen15PlainObjectBaseINS_5ArrayIiLin1ELin1ELi0ELin1ELin1EEEE10resizeLikeINS_9ReplicateINS_9TransposeINS1_IiLin1ELi1ELi0ELin1ELi1EEEEELin1ELin1EEEEEvRKNS_9EigenBaseIT_EE, symObjAddr: 0x3D54, symBinAddr: 0x100007038, symSize: 0x11C }
  - { offsetInCU: 0x2F0F6, offset: 0x2F0F6, size: 0x8, addend: 0x0, symName: __ZN5Eigen15PlainObjectBaseINS_5ArrayIiLin1ELin1ELi0ELin1ELin1EEEE12_set_noaliasINS_9ReplicateINS_9TransposeINS1_IiLin1ELi1ELi0ELin1ELi1EEEEELin1ELin1EEEEERS2_RKNS_9DenseBaseIT_EE, symObjAddr: 0x3E70, symBinAddr: 0x100007154, symSize: 0x60 }
  - { offsetInCU: 0x2F134, offset: 0x2F134, size: 0x8, addend: 0x0, symName: __ZN5Eigen9DenseBaseINS_5ArrayIiLin1ELin1ELi0ELin1ELin1EEEEC2Ev, symObjAddr: 0x3ED0, symBinAddr: 0x1000071B4, symSize: 0x14 }
  - { offsetInCU: 0x2F15E, offset: 0x2F15E, size: 0x8, addend: 0x0, symName: __ZN5Eigen12DenseStorageIiLin1ELin1ELin1ELi0EEC2Ev, symObjAddr: 0x3EE4, symBinAddr: 0x1000071C8, symSize: 0x20 }
  - { offsetInCU: 0x2F188, offset: 0x2F188, size: 0x8, addend: 0x0, symName: __ZNK5Eigen9ReplicateINS_9TransposeINS_5ArrayIiLin1ELi1ELi0ELin1ELi1EEEEELin1ELin1EE4rowsEv, symObjAddr: 0x3F04, symBinAddr: 0x1000071E8, symSize: 0x44 }
  - { offsetInCU: 0x2F1AE, offset: 0x2F1AE, size: 0x8, addend: 0x0, symName: __ZNK5Eigen9ReplicateINS_9TransposeINS_5ArrayIiLin1ELi1ELi0ELin1ELi1EEEEELin1ELin1EE4colsEv, symObjAddr: 0x3F48, symBinAddr: 0x10000722C, symSize: 0x44 }
  - { offsetInCU: 0x2F1D4, offset: 0x2F1D4, size: 0x8, addend: 0x0, symName: __ZN5Eigen15PlainObjectBaseINS_5ArrayIiLin1ELin1ELi0ELin1ELin1EEEE6resizeEll, symObjAddr: 0x3F8C, symBinAddr: 0x100007270, symSize: 0x14C }
  - { offsetInCU: 0x2F250, offset: 0x2F250, size: 0x8, addend: 0x0, symName: __ZNK5Eigen9TransposeINS_5ArrayIiLin1ELi1ELi0ELin1ELi1EEEE4rowsEv, symObjAddr: 0x40D8, symBinAddr: 0x1000073BC, symSize: 0x28 }
  - { offsetInCU: 0x2F276, offset: 0x2F276, size: 0x8, addend: 0x0, symName: __ZNK5Eigen9TransposeINS_5ArrayIiLin1ELi1ELi0ELin1ELi1EEEE4colsEv, symObjAddr: 0x4100, symBinAddr: 0x1000073E4, symSize: 0x28 }
  - { offsetInCU: 0x2F29C, offset: 0x2F29C, size: 0x8, addend: 0x0, symName: __ZN5Eigen12DenseStorageIiLin1ELin1ELin1ELi0EE6resizeElll, symObjAddr: 0x4128, symBinAddr: 0x10000740C, symSize: 0xB4 }
  - { offsetInCU: 0x2F2EF, offset: 0x2F2EF, size: 0x8, addend: 0x0, symName: __ZN5Eigen9EigenBaseINS_5ArrayIiLin1ELin1ELi0ELin1ELin1EEEE7derivedEv, symObjAddr: 0x4218, symBinAddr: 0x1000074FC, symSize: 0x14 }
  - { offsetInCU: 0x2F315, offset: 0x2F315, size: 0x8, addend: 0x0, symName: __ZN5Eigen8internal10AssignmentINS_5ArrayIiLin1ELin1ELi0ELin1ELin1EEENS_9ReplicateINS_9TransposeINS2_IiLin1ELi1ELi0ELin1ELi1EEEEELin1ELin1EEENS0_9assign_opIiiEENS0_11Dense2DenseEvE3runERS3_RKS8_RKSA_, symObjAddr: 0x422C, symBinAddr: 0x100007510, symSize: 0x40 }
  - { offsetInCU: 0x2F357, offset: 0x2F357, size: 0x8, addend: 0x0, symName: __ZN5Eigen8internal27checkTransposeAliasing_implINS_5ArrayIiLin1ELin1ELi0ELin1ELin1EEENS_9ReplicateINS_9TransposeINS2_IiLin1ELi1ELi0ELin1ELi1EEEEELin1ELin1EEELb0EE3runERKS3_RKS8_, symObjAddr: 0x43AC, symBinAddr: 0x100007690, symSize: 0x14 }
  - { offsetInCU: 0x2F3EB, offset: 0x2F3EB, size: 0x8, addend: 0x0, symName: __ZN5Eigen8internal9evaluatorINS_9ReplicateINS_9TransposeINS_5ArrayIiLin1ELi1ELi0ELin1ELi1EEEEELin1ELin1EEEEC1ERKS7_, symObjAddr: 0x43C0, symBinAddr: 0x1000076A4, symSize: 0x34 }
  - { offsetInCU: 0x2F423, offset: 0x2F423, size: 0x8, addend: 0x0, symName: __ZN5Eigen8internal9evaluatorINS_5ArrayIiLin1ELin1ELi0ELin1ELin1EEEEC1ERKS3_, symObjAddr: 0x44EC, symBinAddr: 0x1000077D0, symSize: 0x34 }
  - { offsetInCU: 0x2F45C, offset: 0x2F45C, size: 0x8, addend: 0x0, symName: __ZNK5Eigen9EigenBaseINS_5ArrayIiLin1ELin1ELi0ELin1ELin1EEEE18const_cast_derivedEv, symObjAddr: 0x4520, symBinAddr: 0x100007804, symSize: 0x14 }
  - { offsetInCU: 0x2F4AF, offset: 0x2F4AF, size: 0x8, addend: 0x0, symName: __ZN5Eigen8internal31generic_dense_assignment_kernelINS0_9evaluatorINS_5ArrayIiLin1ELin1ELi0ELin1ELin1EEEEENS2_INS_9ReplicateINS_9TransposeINS3_IiLin1ELi1ELi0ELin1ELi1EEEEELin1ELin1EEEEENS0_9assign_opIiiEELi0EEC1ERS5_RKSB_RKSD_RS4_, symObjAddr: 0x4534, symBinAddr: 0x100007818, symSize: 0x4C }
  - { offsetInCU: 0x2F51A, offset: 0x2F51A, size: 0x8, addend: 0x0, symName: __ZN5Eigen8internal21dense_assignment_loopINS0_31generic_dense_assignment_kernelINS0_9evaluatorINS_5ArrayIiLin1ELin1ELi0ELin1ELin1EEEEENS3_INS_9ReplicateINS_9TransposeINS4_IiLin1ELi1ELi0ELin1ELi1EEEEELin1ELin1EEEEENS0_9assign_opIiiEELi0EEELi0ELi0EE3runERSF_, symObjAddr: 0x4580, symBinAddr: 0x100007864, symSize: 0xAC }
  - { offsetInCU: 0x2F578, offset: 0x2F578, size: 0x8, addend: 0x0, symName: __ZN5Eigen8internal9evaluatorINS_5ArrayIiLin1ELin1ELi0ELin1ELin1EEEED1Ev, symObjAddr: 0x462C, symBinAddr: 0x100007910, symSize: 0x2C }
  - { offsetInCU: 0x2F5A5, offset: 0x2F5A5, size: 0x8, addend: 0x0, symName: __ZN5Eigen8internal9evaluatorINS_9ReplicateINS_9TransposeINS_5ArrayIiLin1ELi1ELi0ELin1ELi1EEEEELin1ELin1EEEED1Ev, symObjAddr: 0x4658, symBinAddr: 0x10000793C, symSize: 0x2C }
  - { offsetInCU: 0x2F5D1, offset: 0x2F5D1, size: 0x8, addend: 0x0, symName: __ZN5Eigen8internal9evaluatorINS_9ReplicateINS_9TransposeINS_5ArrayIiLin1ELi1ELi0ELin1ELi1EEEEELin1ELin1EEEEC2ERKS7_, symObjAddr: 0x4684, symBinAddr: 0x100007968, symSize: 0x34 }
  - { offsetInCU: 0x2F609, offset: 0x2F609, size: 0x8, addend: 0x0, symName: __ZN5Eigen8internal15unary_evaluatorINS_9ReplicateINS_9TransposeINS_5ArrayIiLin1ELi1ELi0ELin1ELi1EEEEELin1ELin1EEENS0_10IndexBasedEiEC2ERKS7_, symObjAddr: 0x46B8, symBinAddr: 0x10000799C, symSize: 0x104 }
  - { offsetInCU: 0x2F642, offset: 0x2F642, size: 0x8, addend: 0x0, symName: __ZN5Eigen8internal14evaluator_baseINS_9ReplicateINS_9TransposeINS_5ArrayIiLin1ELi1ELi0ELin1ELi1EEEEELin1ELin1EEEEC2Ev, symObjAddr: 0x47BC, symBinAddr: 0x100007AA0, symSize: 0x14 }
  - { offsetInCU: 0x2F66C, offset: 0x2F66C, size: 0x8, addend: 0x0, symName: __ZNK5Eigen9ReplicateINS_9TransposeINS_5ArrayIiLin1ELi1ELi0ELin1ELi1EEEEELin1ELin1EE16nestedExpressionEv, symObjAddr: 0x47D0, symBinAddr: 0x100007AB4, symSize: 0x14 }
  - { offsetInCU: 0x2F692, offset: 0x2F692, size: 0x8, addend: 0x0, symName: __ZN5Eigen8internal9evaluatorINS_9TransposeINS_5ArrayIiLin1ELi1ELi0ELin1ELi1EEEEEEC1ERKS5_, symObjAddr: 0x47E4, symBinAddr: 0x100007AC8, symSize: 0x34 }
  - { offsetInCU: 0x2F6CA, offset: 0x2F6CA, size: 0x8, addend: 0x0, symName: __ZN5Eigen8internal9evaluatorINS_9TransposeINS_5ArrayIiLin1ELi1ELi0ELin1ELi1EEEEEED1Ev, symObjAddr: 0x4818, symBinAddr: 0x100007AFC, symSize: 0x2C }
  - { offsetInCU: 0x2F6F6, offset: 0x2F6F6, size: 0x8, addend: 0x0, symName: __ZN5Eigen8internal14evaluator_baseINS_9ReplicateINS_9TransposeINS_5ArrayIiLin1ELi1ELi0ELin1ELi1EEEEELin1ELin1EEEED2Ev, symObjAddr: 0x4844, symBinAddr: 0x100007B28, symSize: 0x14 }
  - { offsetInCU: 0x2F720, offset: 0x2F720, size: 0x8, addend: 0x0, symName: __ZN5Eigen8internal9evaluatorINS_9TransposeINS_5ArrayIiLin1ELi1ELi0ELin1ELi1EEEEEEC2ERKS5_, symObjAddr: 0x4858, symBinAddr: 0x100007B3C, symSize: 0x34 }
  - { offsetInCU: 0x2F758, offset: 0x2F758, size: 0x8, addend: 0x0, symName: __ZN5Eigen8internal15unary_evaluatorINS_9TransposeINS_5ArrayIiLin1ELi1ELi0ELin1ELi1EEEEENS0_10IndexBasedEiEC2ERKS5_, symObjAddr: 0x488C, symBinAddr: 0x100007B70, symSize: 0x74 }
  - { offsetInCU: 0x2F791, offset: 0x2F791, size: 0x8, addend: 0x0, symName: __ZN5Eigen8internal14evaluator_baseINS_9TransposeINS_5ArrayIiLin1ELi1ELi0ELin1ELi1EEEEEEC2Ev, symObjAddr: 0x4900, symBinAddr: 0x100007BE4, symSize: 0x14 }
  - { offsetInCU: 0x2F7BB, offset: 0x2F7BB, size: 0x8, addend: 0x0, symName: __ZNK5Eigen9TransposeINS_5ArrayIiLin1ELi1ELi0ELin1ELi1EEEE16nestedExpressionEv, symObjAddr: 0x4914, symBinAddr: 0x100007BF8, symSize: 0x18 }
  - { offsetInCU: 0x2F7E1, offset: 0x2F7E1, size: 0x8, addend: 0x0, symName: __ZN5Eigen8internal14evaluator_baseINS_9TransposeINS_5ArrayIiLin1ELi1ELi0ELin1ELi1EEEEEED2Ev, symObjAddr: 0x492C, symBinAddr: 0x100007C10, symSize: 0x14 }
  - { offsetInCU: 0x2F80B, offset: 0x2F80B, size: 0x8, addend: 0x0, symName: __ZN5Eigen8internal9evaluatorINS_9TransposeINS_5ArrayIiLin1ELi1ELi0ELin1ELi1EEEEEED2Ev, symObjAddr: 0x4940, symBinAddr: 0x100007C24, symSize: 0x2C }
  - { offsetInCU: 0x2F837, offset: 0x2F837, size: 0x8, addend: 0x0, symName: __ZN5Eigen8internal15unary_evaluatorINS_9TransposeINS_5ArrayIiLin1ELi1ELi0ELin1ELi1EEEEENS0_10IndexBasedEiED2Ev, symObjAddr: 0x496C, symBinAddr: 0x100007C50, symSize: 0x34 }
  - { offsetInCU: 0x2F863, offset: 0x2F863, size: 0x8, addend: 0x0, symName: __ZN5Eigen8internal9evaluatorINS_5ArrayIiLin1ELin1ELi0ELin1ELin1EEEEC2ERKS3_, symObjAddr: 0x49A0, symBinAddr: 0x100007C84, symSize: 0x34 }
  - { offsetInCU: 0x2F89C, offset: 0x2F89C, size: 0x8, addend: 0x0, symName: __ZN5Eigen8internal9evaluatorINS_15PlainObjectBaseINS_5ArrayIiLin1ELin1ELi0ELin1ELin1EEEEEEC2ERKS5_, symObjAddr: 0x49D4, symBinAddr: 0x100007CB8, symSize: 0x80 }
  - { offsetInCU: 0x2F8D4, offset: 0x2F8D4, size: 0x8, addend: 0x0, symName: __ZN5Eigen8internal14evaluator_baseINS_5ArrayIiLin1ELin1ELi0ELin1ELin1EEEEC2Ev, symObjAddr: 0x4A54, symBinAddr: 0x100007D38, symSize: 0x14 }
  - { offsetInCU: 0x2F8FE, offset: 0x2F8FE, size: 0x8, addend: 0x0, symName: __ZNK5Eigen15PlainObjectBaseINS_5ArrayIiLin1ELin1ELi0ELin1ELin1EEEE4dataEv, symObjAddr: 0x4A68, symBinAddr: 0x100007D4C, symSize: 0x24 }
  - { offsetInCU: 0x2F924, offset: 0x2F924, size: 0x8, addend: 0x0, symName: __ZNK5Eigen15DenseCoeffsBaseINS_5ArrayIiLin1ELin1ELi0ELin1ELin1EEELi3EE11outerStrideEv, symObjAddr: 0x4A8C, symBinAddr: 0x100007D70, symSize: 0x38 }
  - { offsetInCU: 0x2F94A, offset: 0x2F94A, size: 0x8, addend: 0x0, symName: __ZN5Eigen8internal30plainobjectbase_evaluator_dataIiLin1EEC1EPKil, symObjAddr: 0x4AC4, symBinAddr: 0x100007DA8, symSize: 0x3C }
  - { offsetInCU: 0x2F990, offset: 0x2F990, size: 0x8, addend: 0x0, symName: __ZN5Eigen8internal14evaluator_baseINS_5ArrayIiLin1ELin1ELi0ELin1ELin1EEEED2Ev, symObjAddr: 0x4B00, symBinAddr: 0x100007DE4, symSize: 0x14 }
  - { offsetInCU: 0x2F9BA, offset: 0x2F9BA, size: 0x8, addend: 0x0, symName: __ZNK5Eigen12DenseStorageIiLin1ELin1ELin1ELi0EE4dataEv, symObjAddr: 0x4B14, symBinAddr: 0x100007DF8, symSize: 0x18 }
  - { offsetInCU: 0x2F9E0, offset: 0x2F9E0, size: 0x8, addend: 0x0, symName: __ZNK5Eigen9EigenBaseINS_5ArrayIiLin1ELin1ELi0ELin1ELin1EEEE7derivedEv, symObjAddr: 0x4B2C, symBinAddr: 0x100007E10, symSize: 0x14 }
  - { offsetInCU: 0x2FA06, offset: 0x2FA06, size: 0x8, addend: 0x0, symName: __ZNK5Eigen5ArrayIiLin1ELin1ELi0ELin1ELin1EE11outerStrideEv, symObjAddr: 0x4B40, symBinAddr: 0x100007E24, symSize: 0x34 }
  - { offsetInCU: 0x2FA2C, offset: 0x2FA2C, size: 0x8, addend: 0x0, symName: __ZNK5Eigen9DenseBaseINS_5ArrayIiLin1ELin1ELi0ELin1ELin1EEEE9innerSizeEv, symObjAddr: 0x4B74, symBinAddr: 0x100007E58, symSize: 0x24 }
  - { offsetInCU: 0x2FA52, offset: 0x2FA52, size: 0x8, addend: 0x0, symName: __ZNK5Eigen9EigenBaseINS_5ArrayIiLin1ELin1ELi0ELin1ELin1EEEE4rowsEv, symObjAddr: 0x4B98, symBinAddr: 0x100007E7C, symSize: 0x28 }
  - { offsetInCU: 0x2FA78, offset: 0x2FA78, size: 0x8, addend: 0x0, symName: __ZN5Eigen8internal30plainobjectbase_evaluator_dataIiLin1EEC2EPKil, symObjAddr: 0x4BC0, symBinAddr: 0x100007EA4, symSize: 0x2C }
  - { offsetInCU: 0x2FABE, offset: 0x2FABE, size: 0x8, addend: 0x0, symName: __ZN5Eigen8internal31generic_dense_assignment_kernelINS0_9evaluatorINS_5ArrayIiLin1ELin1ELi0ELin1ELin1EEEEENS2_INS_9ReplicateINS_9TransposeINS3_IiLin1ELi1ELi0ELin1ELi1EEEEELin1ELin1EEEEENS0_9assign_opIiiEELi0EEC2ERS5_RKSB_RKSD_RS4_, symObjAddr: 0x4BEC, symBinAddr: 0x100007ED0, symSize: 0x44 }
  - { offsetInCU: 0x2FB24, offset: 0x2FB24, size: 0x8, addend: 0x0, symName: __ZNK5Eigen8internal31generic_dense_assignment_kernelINS0_9evaluatorINS_5ArrayIiLin1ELin1ELi0ELin1ELin1EEEEENS2_INS_9ReplicateINS_9TransposeINS3_IiLin1ELi1ELi0ELin1ELi1EEEEELin1ELin1EEEEENS0_9assign_opIiiEELi0EE9outerSizeEv, symObjAddr: 0x4C30, symBinAddr: 0x100007F14, symSize: 0x38 }
  - { offsetInCU: 0x2FB4A, offset: 0x2FB4A, size: 0x8, addend: 0x0, symName: __ZNK5Eigen8internal31generic_dense_assignment_kernelINS0_9evaluatorINS_5ArrayIiLin1ELin1ELi0ELin1ELin1EEEEENS2_INS_9ReplicateINS_9TransposeINS3_IiLin1ELi1ELi0ELin1ELi1EEEEELin1ELin1EEEEENS0_9assign_opIiiEELi0EE9innerSizeEv, symObjAddr: 0x4C68, symBinAddr: 0x100007F4C, symSize: 0x28 }
  - { offsetInCU: 0x2FB70, offset: 0x2FB70, size: 0x8, addend: 0x0, symName: __ZN5Eigen8internal31generic_dense_assignment_kernelINS0_9evaluatorINS_5ArrayIiLin1ELin1ELi0ELin1ELin1EEEEENS2_INS_9ReplicateINS_9TransposeINS3_IiLin1ELi1ELi0ELin1ELi1EEEEELin1ELin1EEEEENS0_9assign_opIiiEELi0EE23assignCoeffByOuterInnerEll, symObjAddr: 0x4C90, symBinAddr: 0x100007F74, symSize: 0x60 }
  - { offsetInCU: 0x2FBD2, offset: 0x2FBD2, size: 0x8, addend: 0x0, symName: __ZNK5Eigen9DenseBaseINS_5ArrayIiLin1ELin1ELi0ELin1ELin1EEEE9outerSizeEv, symObjAddr: 0x4CF0, symBinAddr: 0x100007FD4, symSize: 0x24 }
  - { offsetInCU: 0x2FBF8, offset: 0x2FBF8, size: 0x8, addend: 0x0, symName: __ZNK5Eigen9EigenBaseINS_5ArrayIiLin1ELin1ELi0ELin1ELin1EEEE4colsEv, symObjAddr: 0x4D14, symBinAddr: 0x100007FF8, symSize: 0x28 }
  - { offsetInCU: 0x2FC1E, offset: 0x2FC1E, size: 0x8, addend: 0x0, symName: __ZN5Eigen8internal31generic_dense_assignment_kernelINS0_9evaluatorINS_5ArrayIiLin1ELin1ELi0ELin1ELin1EEEEENS2_INS_9ReplicateINS_9TransposeINS3_IiLin1ELi1ELi0ELin1ELi1EEEEELin1ELin1EEEEENS0_9assign_opIiiEELi0EE20rowIndexByOuterInnerEll, symObjAddr: 0x4D3C, symBinAddr: 0x100008020, symSize: 0x18 }
  - { offsetInCU: 0x2FC51, offset: 0x2FC51, size: 0x8, addend: 0x0, symName: __ZN5Eigen8internal31generic_dense_assignment_kernelINS0_9evaluatorINS_5ArrayIiLin1ELin1ELi0ELin1ELin1EEEEENS2_INS_9ReplicateINS_9TransposeINS3_IiLin1ELi1ELi0ELin1ELi1EEEEELin1ELin1EEEEENS0_9assign_opIiiEELi0EE20colIndexByOuterInnerEll, symObjAddr: 0x4D54, symBinAddr: 0x100008038, symSize: 0x18 }
  - { offsetInCU: 0x2FC84, offset: 0x2FC84, size: 0x8, addend: 0x0, symName: __ZN5Eigen8internal31generic_dense_assignment_kernelINS0_9evaluatorINS_5ArrayIiLin1ELin1ELi0ELin1ELin1EEEEENS2_INS_9ReplicateINS_9TransposeINS3_IiLin1ELi1ELi0ELin1ELi1EEEEELin1ELin1EEEEENS0_9assign_opIiiEELi0EE11assignCoeffEll, symObjAddr: 0x4D6C, symBinAddr: 0x100008050, symSize: 0x74 }
  - { offsetInCU: 0x2FCC8, offset: 0x2FCC8, size: 0x8, addend: 0x0, symName: __ZN5Eigen8internal9evaluatorINS_15PlainObjectBaseINS_5ArrayIiLin1ELin1ELi0ELin1ELin1EEEEEE8coeffRefEll, symObjAddr: 0x4DE0, symBinAddr: 0x1000080C4, symSize: 0x5C }
  - { offsetInCU: 0x2FD0A, offset: 0x2FD0A, size: 0x8, addend: 0x0, symName: __ZNK5Eigen8internal15unary_evaluatorINS_9ReplicateINS_9TransposeINS_5ArrayIiLin1ELi1ELi0ELin1ELi1EEEEELin1ELin1EEENS0_10IndexBasedEiE5coeffEll, symObjAddr: 0x4E3C, symBinAddr: 0x100008120, symSize: 0x8C }
  - { offsetInCU: 0x2FD6C, offset: 0x2FD6C, size: 0x8, addend: 0x0, symName: __ZNK5Eigen8internal30plainobjectbase_evaluator_dataIiLin1EE11outerStrideEv, symObjAddr: 0x4EC8, symBinAddr: 0x1000081AC, symSize: 0x18 }
  - { offsetInCU: 0x2FD92, offset: 0x2FD92, size: 0x8, addend: 0x0, symName: __ZNK5Eigen8internal15unary_evaluatorINS_9TransposeINS_5ArrayIiLin1ELi1ELi0ELin1ELi1EEEEENS0_10IndexBasedEiE5coeffEll, symObjAddr: 0x4EE0, symBinAddr: 0x1000081C4, symSize: 0x34 }
  - { offsetInCU: 0x2FDD6, offset: 0x2FDD6, size: 0x8, addend: 0x0, symName: __ZNK5Eigen8internal9evaluatorINS_15PlainObjectBaseINS_5ArrayIiLin1ELi1ELi0ELin1ELi1EEEEEE5coeffEll, symObjAddr: 0x4F14, symBinAddr: 0x1000081F8, symSize: 0x5C }
  - { offsetInCU: 0x2FE18, offset: 0x2FE18, size: 0x8, addend: 0x0, symName: __ZNK5Eigen8internal30plainobjectbase_evaluator_dataIiLi0EE11outerStrideEv, symObjAddr: 0x4F70, symBinAddr: 0x100008254, symSize: 0x14 }
  - { offsetInCU: 0x2FE3E, offset: 0x2FE3E, size: 0x8, addend: 0x0, symName: __ZN5Eigen8internal9evaluatorINS_5ArrayIiLin1ELin1ELi0ELin1ELin1EEEED2Ev, symObjAddr: 0x4F84, symBinAddr: 0x100008268, symSize: 0x2C }
  - { offsetInCU: 0x2FE6B, offset: 0x2FE6B, size: 0x8, addend: 0x0, symName: __ZN5Eigen8internal9evaluatorINS_15PlainObjectBaseINS_5ArrayIiLin1ELin1ELi0ELin1ELin1EEEEEED2Ev, symObjAddr: 0x4FB0, symBinAddr: 0x100008294, symSize: 0x2C }
  - { offsetInCU: 0x2FE97, offset: 0x2FE97, size: 0x8, addend: 0x0, symName: __ZN5Eigen8internal9evaluatorINS_9ReplicateINS_9TransposeINS_5ArrayIiLin1ELi1ELi0ELin1ELi1EEEEELin1ELin1EEEED2Ev, symObjAddr: 0x4FDC, symBinAddr: 0x1000082C0, symSize: 0x2C }
  - { offsetInCU: 0x2FEC3, offset: 0x2FEC3, size: 0x8, addend: 0x0, symName: __ZN5Eigen8internal15unary_evaluatorINS_9ReplicateINS_9TransposeINS_5ArrayIiLin1ELi1ELi0ELin1ELi1EEEEELin1ELin1EEENS0_10IndexBasedEiED2Ev, symObjAddr: 0x5008, symBinAddr: 0x1000082EC, symSize: 0x38 }
  - { offsetInCU: 0x2FEEF, offset: 0x2FEEF, size: 0x8, addend: 0x0, symName: __ZNK5Eigen9EigenBaseINS_5ArrayIfLin1ELin1ELi0ELin1ELin1EEEE7derivedEv, symObjAddr: 0x5040, symBinAddr: 0x100008324, symSize: 0x14 }
  - { offsetInCU: 0x2FF15, offset: 0x2FF15, size: 0x8, addend: 0x0, symName: __ZN5Eigen5BlockIKNS_5ArrayIfLin1ELin1ELi0ELin1ELin1EEELin1ELin1ELb0EEC1ERS3_llll, symObjAddr: 0x506C, symBinAddr: 0x100008350, symSize: 0x54 }
  - { offsetInCU: 0x2FF85, offset: 0x2FF85, size: 0x8, addend: 0x0, symName: __ZN5Eigen5BlockIKNS_5ArrayIfLin1ELin1ELi0ELin1ELin1EEELin1ELin1ELb0EEC2ERS3_llll, symObjAddr: 0x50C0, symBinAddr: 0x1000083A4, symSize: 0x154 }
  - { offsetInCU: 0x2FFF5, offset: 0x2FFF5, size: 0x8, addend: 0x0, symName: __ZN5Eigen9BlockImplIKNS_5ArrayIfLin1ELin1ELi0ELin1ELin1EEELin1ELin1ELb0ENS_5DenseEEC2ERS3_llll, symObjAddr: 0x5214, symBinAddr: 0x1000084F8, symSize: 0x54 }
  - { offsetInCU: 0x30065, offset: 0x30065, size: 0x8, addend: 0x0, symName: __ZNK5Eigen15PlainObjectBaseINS_5ArrayIfLin1ELin1ELi0ELin1ELin1EEEE4rowsEv, symObjAddr: 0x5268, symBinAddr: 0x10000854C, symSize: 0x24 }
  - { offsetInCU: 0x3008B, offset: 0x3008B, size: 0x8, addend: 0x0, symName: __ZNK5Eigen15PlainObjectBaseINS_5ArrayIfLin1ELin1ELi0ELin1ELin1EEEE4colsEv, symObjAddr: 0x528C, symBinAddr: 0x100008570, symSize: 0x24 }
  - { offsetInCU: 0x300B1, offset: 0x300B1, size: 0x8, addend: 0x0, symName: __ZN5Eigen8internal15BlockImpl_denseIKNS_5ArrayIfLin1ELin1ELi0ELin1ELin1EEELin1ELin1ELb0ELb1EEC2ERS4_llll, symObjAddr: 0x52B0, symBinAddr: 0x100008594, symSize: 0xC4 }
  - { offsetInCU: 0x30126, offset: 0x30126, size: 0x8, addend: 0x0, symName: __ZNK5Eigen15PlainObjectBaseINS_5ArrayIfLin1ELin1ELi0ELin1ELin1EEEE4dataEv, symObjAddr: 0x5374, symBinAddr: 0x100008658, symSize: 0x24 }
  - { offsetInCU: 0x3014C, offset: 0x3014C, size: 0x8, addend: 0x0, symName: __ZNK5Eigen5ArrayIfLin1ELin1ELi0ELin1ELin1EE11innerStrideEv, symObjAddr: 0x5398, symBinAddr: 0x10000867C, symSize: 0x14 }
  - { offsetInCU: 0x30172, offset: 0x30172, size: 0x8, addend: 0x0, symName: __ZNK5Eigen5ArrayIfLin1ELin1ELi0ELin1ELin1EE11outerStrideEv, symObjAddr: 0x53AC, symBinAddr: 0x100008690, symSize: 0x34 }
  - { offsetInCU: 0x30198, offset: 0x30198, size: 0x8, addend: 0x0, symName: __ZN5Eigen7MapBaseINS_5BlockIKNS_5ArrayIfLin1ELin1ELi0ELin1ELin1EEELin1ELin1ELb0EEELi0EEC2EPKfll, symObjAddr: 0x53E0, symBinAddr: 0x1000086C4, symSize: 0x110 }
  - { offsetInCU: 0x301EC, offset: 0x301EC, size: 0x8, addend: 0x0, symName: __ZN5Eigen8internal15BlockImpl_denseIKNS_5ArrayIfLin1ELin1ELi0ELin1ELin1EEELin1ELin1ELb0ELb1EE4initEv, symObjAddr: 0x54F0, symBinAddr: 0x1000087D4, symSize: 0x34 }
  - { offsetInCU: 0x30212, offset: 0x30212, size: 0x8, addend: 0x0, symName: __ZNK5Eigen12DenseStorageIfLin1ELin1ELin1ELi0EE4dataEv, symObjAddr: 0x5524, symBinAddr: 0x100008808, symSize: 0x18 }
  - { offsetInCU: 0x30238, offset: 0x30238, size: 0x8, addend: 0x0, symName: __ZNK5Eigen9DenseBaseINS_5ArrayIfLin1ELin1ELi0ELin1ELin1EEEE9innerSizeEv, symObjAddr: 0x553C, symBinAddr: 0x100008820, symSize: 0x24 }
  - { offsetInCU: 0x3025E, offset: 0x3025E, size: 0x8, addend: 0x0, symName: __ZNK5Eigen9EigenBaseINS_5ArrayIfLin1ELin1ELi0ELin1ELin1EEEE4rowsEv, symObjAddr: 0x5560, symBinAddr: 0x100008844, symSize: 0x28 }
  - { offsetInCU: 0x30284, offset: 0x30284, size: 0x8, addend: 0x0, symName: __ZN5Eigen9ArrayBaseINS_5BlockIKNS_5ArrayIfLin1ELin1ELi0ELin1ELin1EEELin1ELin1ELb0EEEEC2Ev, symObjAddr: 0x5588, symBinAddr: 0x10000886C, symSize: 0x2C }
  - { offsetInCU: 0x302AE, offset: 0x302AE, size: 0x8, addend: 0x0, symName: __ZNK5Eigen7MapBaseINS_5BlockIKNS_5ArrayIfLin1ELin1ELi0ELin1ELin1EEELin1ELin1ELb0EEELi0EE11checkSanityIS5_EEvNS_8internal9enable_ifIXeqsr8internal6traitsIT_EE9AlignmentLi0EEPvE4typeE, symObjAddr: 0x55B4, symBinAddr: 0x100008898, symSize: 0x14 }
  - { offsetInCU: 0x302E8, offset: 0x302E8, size: 0x8, addend: 0x0, symName: __ZN5Eigen9DenseBaseINS_5BlockIKNS_5ArrayIfLin1ELin1ELi0ELin1ELin1EEELin1ELin1ELb0EEEEC2Ev, symObjAddr: 0x55C8, symBinAddr: 0x1000088AC, symSize: 0x14 }
  - { offsetInCU: 0x30312, offset: 0x30312, size: 0x8, addend: 0x0, symName: __ZNK5Eigen12DenseStorageIfLin1ELin1ELin1ELi0EE4rowsEv, symObjAddr: 0x55DC, symBinAddr: 0x1000088C0, symSize: 0x18 }
  - { offsetInCU: 0x30338, offset: 0x30338, size: 0x8, addend: 0x0, symName: __ZNK5Eigen12DenseStorageIfLin1ELin1ELin1ELi0EE4colsEv, symObjAddr: 0x55F4, symBinAddr: 0x1000088D8, symSize: 0x18 }
  - { offsetInCU: 0x3035E, offset: 0x3035E, size: 0x8, addend: 0x0, symName: __ZN5Eigen5ArrayIfLin1ELin1ELi0ELin1ELin1EEC2INS_5BlockIKS1_Lin1ELin1ELb0EEEEERKNS_9EigenBaseIT_EENS_8internal9enable_ifIXsr8internal14is_convertibleINS7_6ScalarEfEE5valueENS1_11PrivateTypeEE4typeE, symObjAddr: 0x560C, symBinAddr: 0x1000088F0, symSize: 0x40 }
  - { offsetInCU: 0x303AB, offset: 0x303AB, size: 0x8, addend: 0x0, symName: __ZNK5Eigen9EigenBaseINS_5BlockIKNS_5ArrayIfLin1ELin1ELi0ELin1ELin1EEELin1ELin1ELb0EEEE7derivedEv, symObjAddr: 0x564C, symBinAddr: 0x100008930, symSize: 0x14 }
  - { offsetInCU: 0x303D1, offset: 0x303D1, size: 0x8, addend: 0x0, symName: __ZN5Eigen15PlainObjectBaseINS_5ArrayIfLin1ELin1ELi0ELin1ELin1EEEEC2INS_5BlockIKS2_Lin1ELin1ELb0EEEEERKNS_9DenseBaseIT_EE, symObjAddr: 0x5660, symBinAddr: 0x100008944, symSize: 0x84 }
  - { offsetInCU: 0x30413, offset: 0x30413, size: 0x8, addend: 0x0, symName: __ZN5Eigen9ArrayBaseINS_5ArrayIfLin1ELin1ELi0ELin1ELin1EEEEC2Ev, symObjAddr: 0x56E4, symBinAddr: 0x1000089C8, symSize: 0x2C }
  - { offsetInCU: 0x3043D, offset: 0x3043D, size: 0x8, addend: 0x0, symName: __ZN5Eigen12DenseStorageIfLin1ELin1ELin1ELi0EEC1Ev, symObjAddr: 0x5710, symBinAddr: 0x1000089F4, symSize: 0x2C }
  - { offsetInCU: 0x30467, offset: 0x30467, size: 0x8, addend: 0x0, symName: __ZN5Eigen15PlainObjectBaseINS_5ArrayIfLin1ELin1ELi0ELin1ELin1EEEE22_check_template_paramsEv, symObjAddr: 0x573C, symBinAddr: 0x100008A20, symSize: 0x4 }
  - { offsetInCU: 0x3047B, offset: 0x3047B, size: 0x8, addend: 0x0, symName: __ZN5Eigen15PlainObjectBaseINS_5ArrayIfLin1ELin1ELi0ELin1ELin1EEEE10resizeLikeINS_5BlockIKS2_Lin1ELin1ELb0EEEEEvRKNS_9EigenBaseIT_EE, symObjAddr: 0x5740, symBinAddr: 0x100008A24, symSize: 0x11C }
  - { offsetInCU: 0x3050F, offset: 0x3050F, size: 0x8, addend: 0x0, symName: __ZN5Eigen15PlainObjectBaseINS_5ArrayIfLin1ELin1ELi0ELin1ELin1EEEE12_set_noaliasINS_5BlockIKS2_Lin1ELin1ELb0EEEEERS2_RKNS_9DenseBaseIT_EE, symObjAddr: 0x585C, symBinAddr: 0x100008B40, symSize: 0x60 }
  - { offsetInCU: 0x3054D, offset: 0x3054D, size: 0x8, addend: 0x0, symName: __ZN5Eigen9DenseBaseINS_5ArrayIfLin1ELin1ELi0ELin1ELin1EEEEC2Ev, symObjAddr: 0x58BC, symBinAddr: 0x100008BA0, symSize: 0x14 }
  - { offsetInCU: 0x30577, offset: 0x30577, size: 0x8, addend: 0x0, symName: __ZN5Eigen12DenseStorageIfLin1ELin1ELin1ELi0EEC2Ev, symObjAddr: 0x58D0, symBinAddr: 0x100008BB4, symSize: 0x20 }
  - { offsetInCU: 0x305A1, offset: 0x305A1, size: 0x8, addend: 0x0, symName: __ZNK5Eigen7MapBaseINS_5BlockIKNS_5ArrayIfLin1ELin1ELi0ELin1ELin1EEELin1ELin1ELb0EEELi0EE4rowsEv, symObjAddr: 0x58F0, symBinAddr: 0x100008BD4, symSize: 0x28 }
  - { offsetInCU: 0x305C7, offset: 0x305C7, size: 0x8, addend: 0x0, symName: __ZNK5Eigen7MapBaseINS_5BlockIKNS_5ArrayIfLin1ELin1ELi0ELin1ELin1EEELin1ELin1ELb0EEELi0EE4colsEv, symObjAddr: 0x5918, symBinAddr: 0x100008BFC, symSize: 0x28 }
  - { offsetInCU: 0x305ED, offset: 0x305ED, size: 0x8, addend: 0x0, symName: __ZN5Eigen15PlainObjectBaseINS_5ArrayIfLin1ELin1ELi0ELin1ELin1EEEE6resizeEll, symObjAddr: 0x5940, symBinAddr: 0x100008C24, symSize: 0x14C }
  - { offsetInCU: 0x30669, offset: 0x30669, size: 0x8, addend: 0x0, symName: __ZN5Eigen12DenseStorageIfLin1ELin1ELin1ELi0EE6resizeElll, symObjAddr: 0x5A8C, symBinAddr: 0x100008D70, symSize: 0xB4 }
  - { offsetInCU: 0x306BC, offset: 0x306BC, size: 0x8, addend: 0x0, symName: __ZN5Eigen9EigenBaseINS_5ArrayIfLin1ELin1ELi0ELin1ELin1EEEE7derivedEv, symObjAddr: 0x5C00, symBinAddr: 0x100008EE4, symSize: 0x14 }
  - { offsetInCU: 0x306E2, offset: 0x306E2, size: 0x8, addend: 0x0, symName: __ZN5Eigen8internal9assign_opIffEC1Ev, symObjAddr: 0x5C14, symBinAddr: 0x100008EF8, symSize: 0x2C }
  - { offsetInCU: 0x3070C, offset: 0x3070C, size: 0x8, addend: 0x0, symName: __ZN5Eigen8internal10AssignmentINS_5ArrayIfLin1ELin1ELi0ELin1ELin1EEENS_5BlockIKS3_Lin1ELin1ELb0EEENS0_9assign_opIffEENS0_11Dense2DenseEvE3runERS3_RKS6_RKS8_, symObjAddr: 0x5C40, symBinAddr: 0x100008F24, symSize: 0x40 }
  - { offsetInCU: 0x3074E, offset: 0x3074E, size: 0x8, addend: 0x0, symName: __ZN5Eigen8internal27checkTransposeAliasing_implINS_5ArrayIfLin1ELin1ELi0ELin1ELin1EEENS_5BlockIKS3_Lin1ELin1ELb0EEELb0EE3runERS5_RKS6_, symObjAddr: 0x5DC0, symBinAddr: 0x1000090A4, symSize: 0x14 }
  - { offsetInCU: 0x30779, offset: 0x30779, size: 0x8, addend: 0x0, symName: __ZN5Eigen8internal9evaluatorINS_5BlockIKNS_5ArrayIfLin1ELin1ELi0ELin1ELin1EEELin1ELin1ELb0EEEEC1ERKS6_, symObjAddr: 0x5DD4, symBinAddr: 0x1000090B8, symSize: 0x34 }
  - { offsetInCU: 0x307B2, offset: 0x307B2, size: 0x8, addend: 0x0, symName: __ZN5Eigen8internal9evaluatorINS_5ArrayIfLin1ELin1ELi0ELin1ELin1EEEEC1ERKS3_, symObjAddr: 0x5F00, symBinAddr: 0x1000091E4, symSize: 0x34 }
  - { offsetInCU: 0x307EB, offset: 0x307EB, size: 0x8, addend: 0x0, symName: __ZNK5Eigen9EigenBaseINS_5ArrayIfLin1ELin1ELi0ELin1ELin1EEEE18const_cast_derivedEv, symObjAddr: 0x5F34, symBinAddr: 0x100009218, symSize: 0x14 }
  - { offsetInCU: 0x30811, offset: 0x30811, size: 0x8, addend: 0x0, symName: __ZN5Eigen8internal31generic_dense_assignment_kernelINS0_9evaluatorINS_5ArrayIfLin1ELin1ELi0ELin1ELin1EEEEENS2_INS_5BlockIKS4_Lin1ELin1ELb0EEEEENS0_9assign_opIffEELi0EEC1ERS5_RKS9_RKSB_RS4_, symObjAddr: 0x5F48, symBinAddr: 0x10000922C, symSize: 0x4C }
  - { offsetInCU: 0x30881, offset: 0x30881, size: 0x8, addend: 0x0, symName: __ZN5Eigen8internal9evaluatorINS_5ArrayIfLin1ELin1ELi0ELin1ELin1EEEED1Ev, symObjAddr: 0x616C, symBinAddr: 0x100009450, symSize: 0x2C }
  - { offsetInCU: 0x308AE, offset: 0x308AE, size: 0x8, addend: 0x0, symName: __ZN5Eigen8internal9evaluatorINS_5BlockIKNS_5ArrayIfLin1ELin1ELi0ELin1ELin1EEELin1ELin1ELb0EEEED1Ev, symObjAddr: 0x6198, symBinAddr: 0x10000947C, symSize: 0x2C }
  - { offsetInCU: 0x308DB, offset: 0x308DB, size: 0x8, addend: 0x0, symName: __ZN5Eigen8internal9evaluatorINS_5BlockIKNS_5ArrayIfLin1ELin1ELi0ELin1ELin1EEELin1ELin1ELb0EEEEC2ERKS6_, symObjAddr: 0x61C4, symBinAddr: 0x1000094A8, symSize: 0x34 }
  - { offsetInCU: 0x30914, offset: 0x30914, size: 0x8, addend: 0x0, symName: __ZN5Eigen8internal15block_evaluatorIKNS_5ArrayIfLin1ELin1ELi0ELin1ELin1EEELin1ELin1ELb0ELb1EEC2ERKNS_5BlockIS4_Lin1ELin1ELb0EEE, symObjAddr: 0x61F8, symBinAddr: 0x1000094DC, symSize: 0xDC }
  - { offsetInCU: 0x3094D, offset: 0x3094D, size: 0x8, addend: 0x0, symName: __ZN5Eigen8internal17mapbase_evaluatorINS_5BlockIKNS_5ArrayIfLin1ELin1ELi0ELin1ELin1EEELin1ELin1ELb0EEES4_EC2ERKS6_, symObjAddr: 0x62D4, symBinAddr: 0x1000095B8, symSize: 0xB0 }
  - { offsetInCU: 0x30986, offset: 0x30986, size: 0x8, addend: 0x0, symName: __ZNK5Eigen7MapBaseINS_5BlockIKNS_5ArrayIfLin1ELin1ELi0ELin1ELin1EEELin1ELin1ELb0EEELi0EE4dataEv, symObjAddr: 0x6384, symBinAddr: 0x100009668, symSize: 0x18 }
  - { offsetInCU: 0x309AC, offset: 0x309AC, size: 0x8, addend: 0x0, symName: __ZN5Eigen8internal17mapbase_evaluatorINS_5BlockIKNS_5ArrayIfLin1ELin1ELi0ELin1ELin1EEELin1ELin1ELb0EEES4_ED2Ev, symObjAddr: 0x639C, symBinAddr: 0x100009680, symSize: 0x2C }
  - { offsetInCU: 0x309D9, offset: 0x309D9, size: 0x8, addend: 0x0, symName: __ZN5Eigen8internal14evaluator_baseINS_5BlockIKNS_5ArrayIfLin1ELin1ELi0ELin1ELin1EEELin1ELin1ELb0EEEEC2Ev, symObjAddr: 0x63C8, symBinAddr: 0x1000096AC, symSize: 0x14 }
  - { offsetInCU: 0x30A03, offset: 0x30A03, size: 0x8, addend: 0x0, symName: __ZNK5Eigen8internal15BlockImpl_denseIKNS_5ArrayIfLin1ELin1ELi0ELin1ELin1EEELin1ELin1ELb0ELb1EE11innerStrideEv, symObjAddr: 0x63DC, symBinAddr: 0x1000096C0, symSize: 0x28 }
  - { offsetInCU: 0x30A29, offset: 0x30A29, size: 0x8, addend: 0x0, symName: __ZNK5Eigen8internal15BlockImpl_denseIKNS_5ArrayIfLin1ELin1ELi0ELin1ELin1EEELin1ELin1ELb0ELb1EE11outerStrideEv, symObjAddr: 0x6404, symBinAddr: 0x1000096E8, symSize: 0x28 }
  - { offsetInCU: 0x30A4F, offset: 0x30A4F, size: 0x8, addend: 0x0, symName: __ZN5Eigen8internal14evaluator_baseINS_5BlockIKNS_5ArrayIfLin1ELin1ELi0ELin1ELin1EEELin1ELin1ELb0EEEED2Ev, symObjAddr: 0x642C, symBinAddr: 0x100009710, symSize: 0x14 }
  - { offsetInCU: 0x30A79, offset: 0x30A79, size: 0x8, addend: 0x0, symName: __ZN5Eigen8internal9evaluatorINS_5ArrayIfLin1ELin1ELi0ELin1ELin1EEEEC2ERKS3_, symObjAddr: 0x6440, symBinAddr: 0x100009724, symSize: 0x34 }
  - { offsetInCU: 0x30AB2, offset: 0x30AB2, size: 0x8, addend: 0x0, symName: __ZN5Eigen8internal9evaluatorINS_15PlainObjectBaseINS_5ArrayIfLin1ELin1ELi0ELin1ELin1EEEEEEC2ERKS5_, symObjAddr: 0x6474, symBinAddr: 0x100009758, symSize: 0x80 }
  - { offsetInCU: 0x30AEA, offset: 0x30AEA, size: 0x8, addend: 0x0, symName: __ZN5Eigen8internal14evaluator_baseINS_5ArrayIfLin1ELin1ELi0ELin1ELin1EEEEC2Ev, symObjAddr: 0x64F4, symBinAddr: 0x1000097D8, symSize: 0x14 }
  - { offsetInCU: 0x30B14, offset: 0x30B14, size: 0x8, addend: 0x0, symName: __ZNK5Eigen15DenseCoeffsBaseINS_5ArrayIfLin1ELin1ELi0ELin1ELin1EEELi3EE11outerStrideEv, symObjAddr: 0x6508, symBinAddr: 0x1000097EC, symSize: 0x28 }
  - { offsetInCU: 0x30B3A, offset: 0x30B3A, size: 0x8, addend: 0x0, symName: __ZN5Eigen8internal30plainobjectbase_evaluator_dataIfLin1EEC1EPKfl, symObjAddr: 0x6530, symBinAddr: 0x100009814, symSize: 0x3C }
  - { offsetInCU: 0x30B80, offset: 0x30B80, size: 0x8, addend: 0x0, symName: __ZN5Eigen8internal14evaluator_baseINS_5ArrayIfLin1ELin1ELi0ELin1ELin1EEEED2Ev, symObjAddr: 0x656C, symBinAddr: 0x100009850, symSize: 0x14 }
  - { offsetInCU: 0x30BAA, offset: 0x30BAA, size: 0x8, addend: 0x0, symName: __ZN5Eigen8internal30plainobjectbase_evaluator_dataIfLin1EEC2EPKfl, symObjAddr: 0x6580, symBinAddr: 0x100009864, symSize: 0x2C }
  - { offsetInCU: 0x30BF0, offset: 0x30BF0, size: 0x8, addend: 0x0, symName: __ZN5Eigen8internal31generic_dense_assignment_kernelINS0_9evaluatorINS_5ArrayIfLin1ELin1ELi0ELin1ELin1EEEEENS2_INS_5BlockIKS4_Lin1ELin1ELb0EEEEENS0_9assign_opIffEELi0EEC2ERS5_RKS9_RKSB_RS4_, symObjAddr: 0x65AC, symBinAddr: 0x100009890, symSize: 0x44 }
  - { offsetInCU: 0x30C56, offset: 0x30C56, size: 0x8, addend: 0x0, symName: __ZNK5Eigen8internal31generic_dense_assignment_kernelINS0_9evaluatorINS_5ArrayIfLin1ELin1ELi0ELin1ELin1EEEEENS2_INS_5BlockIKS4_Lin1ELin1ELb0EEEEENS0_9assign_opIffEELi0EE10dstDataPtrEv, symObjAddr: 0x65F0, symBinAddr: 0x1000098D4, symSize: 0x28 }
  - { offsetInCU: 0x30C7C, offset: 0x30C7C, size: 0x8, addend: 0x0, symName: __ZNK5Eigen8internal31generic_dense_assignment_kernelINS0_9evaluatorINS_5ArrayIfLin1ELin1ELi0ELin1ELin1EEEEENS2_INS_5BlockIKS4_Lin1ELin1ELb0EEEEENS0_9assign_opIffEELi0EE9innerSizeEv, symObjAddr: 0x6618, symBinAddr: 0x1000098FC, symSize: 0x28 }
  - { offsetInCU: 0x30CA2, offset: 0x30CA2, size: 0x8, addend: 0x0, symName: __ZNK5Eigen8internal31generic_dense_assignment_kernelINS0_9evaluatorINS_5ArrayIfLin1ELin1ELi0ELin1ELin1EEEEENS2_INS_5BlockIKS4_Lin1ELin1ELb0EEEEENS0_9assign_opIffEELi0EE9outerSizeEv, symObjAddr: 0x6640, symBinAddr: 0x100009924, symSize: 0x38 }
  - { offsetInCU: 0x30CC8, offset: 0x30CC8, size: 0x8, addend: 0x0, symName: __ZNK5Eigen8internal31generic_dense_assignment_kernelINS0_9evaluatorINS_5ArrayIfLin1ELin1ELi0ELin1ELin1EEEEENS2_INS_5BlockIKS4_Lin1ELin1ELb0EEEEENS0_9assign_opIffEELi0EE11outerStrideEv, symObjAddr: 0x6678, symBinAddr: 0x10000995C, symSize: 0x28 }
  - { offsetInCU: 0x30CEE, offset: 0x30CEE, size: 0x8, addend: 0x0, symName: __ZN5Eigen8internal31generic_dense_assignment_kernelINS0_9evaluatorINS_5ArrayIfLin1ELin1ELi0ELin1ELin1EEEEENS2_INS_5BlockIKS4_Lin1ELin1ELb0EEEEENS0_9assign_opIffEELi0EE23assignCoeffByOuterInnerEll, symObjAddr: 0x66A0, symBinAddr: 0x100009984, symSize: 0x60 }
  - { offsetInCU: 0x30D5E, offset: 0x30D5E, size: 0x8, addend: 0x0, symName: __ZN5Eigen8internal31generic_dense_assignment_kernelINS0_9evaluatorINS_5ArrayIfLin1ELin1ELi0ELin1ELin1EEEEENS2_INS_5BlockIKS4_Lin1ELin1ELb0EEEEENS0_9assign_opIffEELi0EE24assignPacketByOuterInnerILi16ELi0E19__simd128_float32_tEEvll, symObjAddr: 0x6700, symBinAddr: 0x1000099E4, symSize: 0x60 }
  - { offsetInCU: 0x30DDD, offset: 0x30DDD, size: 0x8, addend: 0x0, symName: __ZN5Eigen15PlainObjectBaseINS_5ArrayIfLin1ELin1ELi0ELin1ELin1EEEE4dataEv, symObjAddr: 0x6760, symBinAddr: 0x100009A44, symSize: 0x24 }
  - { offsetInCU: 0x30E03, offset: 0x30E03, size: 0x8, addend: 0x0, symName: __ZN5Eigen12DenseStorageIfLin1ELin1ELin1ELi0EE4dataEv, symObjAddr: 0x6784, symBinAddr: 0x100009A68, symSize: 0x18 }
  - { offsetInCU: 0x30E29, offset: 0x30E29, size: 0x8, addend: 0x0, symName: __ZNK5Eigen9DenseBaseINS_5ArrayIfLin1ELin1ELi0ELin1ELin1EEEE9outerSizeEv, symObjAddr: 0x679C, symBinAddr: 0x100009A80, symSize: 0x24 }
  - { offsetInCU: 0x30E4F, offset: 0x30E4F, size: 0x8, addend: 0x0, symName: __ZNK5Eigen9EigenBaseINS_5ArrayIfLin1ELin1ELi0ELin1ELin1EEEE4colsEv, symObjAddr: 0x67C0, symBinAddr: 0x100009AA4, symSize: 0x28 }
  - { offsetInCU: 0x30E75, offset: 0x30E75, size: 0x8, addend: 0x0, symName: __ZN5Eigen8internal31generic_dense_assignment_kernelINS0_9evaluatorINS_5ArrayIfLin1ELin1ELi0ELin1ELin1EEEEENS2_INS_5BlockIKS4_Lin1ELin1ELb0EEEEENS0_9assign_opIffEELi0EE20rowIndexByOuterInnerEll, symObjAddr: 0x67E8, symBinAddr: 0x100009ACC, symSize: 0x18 }
  - { offsetInCU: 0x30EA8, offset: 0x30EA8, size: 0x8, addend: 0x0, symName: __ZN5Eigen8internal31generic_dense_assignment_kernelINS0_9evaluatorINS_5ArrayIfLin1ELin1ELi0ELin1ELin1EEEEENS2_INS_5BlockIKS4_Lin1ELin1ELb0EEEEENS0_9assign_opIffEELi0EE20colIndexByOuterInnerEll, symObjAddr: 0x6800, symBinAddr: 0x100009AE4, symSize: 0x18 }
  - { offsetInCU: 0x30EDB, offset: 0x30EDB, size: 0x8, addend: 0x0, symName: __ZN5Eigen8internal31generic_dense_assignment_kernelINS0_9evaluatorINS_5ArrayIfLin1ELin1ELi0ELin1ELin1EEEEENS2_INS_5BlockIKS4_Lin1ELin1ELb0EEEEENS0_9assign_opIffEELi0EE11assignCoeffEll, symObjAddr: 0x6818, symBinAddr: 0x100009AFC, symSize: 0x70 }
  - { offsetInCU: 0x30F1F, offset: 0x30F1F, size: 0x8, addend: 0x0, symName: __ZNK5Eigen8internal9assign_opIffE11assignCoeffERfRKf, symObjAddr: 0x6888, symBinAddr: 0x100009B6C, symSize: 0x28 }
  - { offsetInCU: 0x30F61, offset: 0x30F61, size: 0x8, addend: 0x0, symName: __ZN5Eigen8internal9evaluatorINS_15PlainObjectBaseINS_5ArrayIfLin1ELin1ELi0ELin1ELin1EEEEEE8coeffRefEll, symObjAddr: 0x68B0, symBinAddr: 0x100009B94, symSize: 0x5C }
  - { offsetInCU: 0x30FA3, offset: 0x30FA3, size: 0x8, addend: 0x0, symName: __ZNK5Eigen8internal17mapbase_evaluatorINS_5BlockIKNS_5ArrayIfLin1ELin1ELi0ELin1ELin1EEELin1ELin1ELb0EEES4_E5coeffEll, symObjAddr: 0x690C, symBinAddr: 0x100009BF0, symSize: 0x78 }
  - { offsetInCU: 0x30FE7, offset: 0x30FE7, size: 0x8, addend: 0x0, symName: __ZNK5Eigen8internal30plainobjectbase_evaluator_dataIfLin1EE11outerStrideEv, symObjAddr: 0x6984, symBinAddr: 0x100009C68, symSize: 0x18 }
  - { offsetInCU: 0x3100D, offset: 0x3100D, size: 0x8, addend: 0x0, symName: __ZNK5Eigen8internal17mapbase_evaluatorINS_5BlockIKNS_5ArrayIfLin1ELin1ELi0ELin1ELin1EEELin1ELin1ELb0EEES4_E9colStrideEv, symObjAddr: 0x699C, symBinAddr: 0x100009C80, symSize: 0x28 }
  - { offsetInCU: 0x31033, offset: 0x31033, size: 0x8, addend: 0x0, symName: __ZNK5Eigen8internal17mapbase_evaluatorINS_5BlockIKNS_5ArrayIfLin1ELin1ELi0ELin1ELin1EEELin1ELin1ELb0EEES4_E9rowStrideEv, symObjAddr: 0x69C4, symBinAddr: 0x100009CA8, symSize: 0x20 }
  - { offsetInCU: 0x31059, offset: 0x31059, size: 0x8, addend: 0x0, symName: __ZN5Eigen8internal31generic_dense_assignment_kernelINS0_9evaluatorINS_5ArrayIfLin1ELin1ELi0ELin1ELin1EEEEENS2_INS_5BlockIKS4_Lin1ELin1ELb0EEEEENS0_9assign_opIffEELi0EE12assignPacketILi16ELi0E19__simd128_float32_tEEvll, symObjAddr: 0x69E4, symBinAddr: 0x100009CC8, symSize: 0x70 }
  - { offsetInCU: 0x310C4, offset: 0x310C4, size: 0x8, addend: 0x0, symName: __ZNK5Eigen8internal9assign_opIffE12assignPacketILi16E19__simd128_float32_tEEvPfRKT0_, symObjAddr: 0x6A54, symBinAddr: 0x100009D38, symSize: 0x40 }
  - { offsetInCU: 0x31149, offset: 0x31149, size: 0x8, addend: 0x0, symName: __ZNK5Eigen8internal17mapbase_evaluatorINS_5BlockIKNS_5ArrayIfLin1ELin1ELi0ELin1ELin1EEELin1ELin1ELb0EEES4_E6packetILi0E19__simd128_float32_tEET0_ll, symObjAddr: 0x6A94, symBinAddr: 0x100009D78, symSize: 0x8C }
  - { offsetInCU: 0x311D7, offset: 0x311D7, size: 0x8, addend: 0x0, symName: __ZNKSt3__16__lessIvvEclB8ue170006IllEEbRKT_RKT0_, symObjAddr: 0x6BF4, symBinAddr: 0x100009ED8, symSize: 0x34 }
  - { offsetInCU: 0x3122B, offset: 0x3122B, size: 0x8, addend: 0x0, symName: __ZN5Eigen8internal9evaluatorINS_5ArrayIfLin1ELin1ELi0ELin1ELin1EEEED2Ev, symObjAddr: 0x6C28, symBinAddr: 0x100009F0C, symSize: 0x2C }
  - { offsetInCU: 0x31258, offset: 0x31258, size: 0x8, addend: 0x0, symName: __ZN5Eigen8internal9evaluatorINS_15PlainObjectBaseINS_5ArrayIfLin1ELin1ELi0ELin1ELin1EEEEEED2Ev, symObjAddr: 0x6C54, symBinAddr: 0x100009F38, symSize: 0x2C }
  - { offsetInCU: 0x31284, offset: 0x31284, size: 0x8, addend: 0x0, symName: __ZN5Eigen8internal9evaluatorINS_5BlockIKNS_5ArrayIfLin1ELin1ELi0ELin1ELin1EEELin1ELin1ELb0EEEED2Ev, symObjAddr: 0x6C80, symBinAddr: 0x100009F64, symSize: 0x2C }
  - { offsetInCU: 0x312B1, offset: 0x312B1, size: 0x8, addend: 0x0, symName: __ZN5Eigen8internal15block_evaluatorIKNS_5ArrayIfLin1ELin1ELi0ELin1ELin1EEELin1ELin1ELb0ELb1EED2Ev, symObjAddr: 0x6CAC, symBinAddr: 0x100009F90, symSize: 0x2C }
  - { offsetInCU: 0x312DE, offset: 0x312DE, size: 0x8, addend: 0x0, symName: __ZN5Eigen8internal9assign_opIffEC2Ev, symObjAddr: 0x6CD8, symBinAddr: 0x100009FBC, symSize: 0x14 }
  - { offsetInCU: 0x31308, offset: 0x31308, size: 0x8, addend: 0x0, symName: __ZN5Eigen5ArrayIfLin1ELin1ELi0ELin1ELin1EEC2IiiEERKT_RKT0_, symObjAddr: 0x6CEC, symBinAddr: 0x100009FD0, symSize: 0x7C }
  - { offsetInCU: 0x31360, offset: 0x31360, size: 0x8, addend: 0x0, symName: __ZN5Eigen15PlainObjectBaseINS_5ArrayIfLin1ELin1ELi0ELin1ELin1EEEEC2Ev, symObjAddr: 0x6D68, symBinAddr: 0x10000A04C, symSize: 0x34 }
  - { offsetInCU: 0x3138F, offset: 0x3138F, size: 0x8, addend: 0x0, symName: __ZN5Eigen15PlainObjectBaseINS_5ArrayIfLin1ELin1ELi0ELin1ELin1EEEE6_init2IiiEEvllPNS_8internal9enable_ifILb1ET_E4typeE, symObjAddr: 0x6D9C, symBinAddr: 0x10000A080, symSize: 0x44 }
  - { offsetInCU: 0x3140E, offset: 0x3140E, size: 0x8, addend: 0x0, symName: __ZN5Eigen15DenseCoeffsBaseINS_5ArrayIfLin1ELin1ELi0ELin1ELin1EEELi1EE8coeffRefEll, symObjAddr: 0x6DE0, symBinAddr: 0x10000A0C4, symSize: 0x80 }
  - { offsetInCU: 0x31452, offset: 0x31452, size: 0x8, addend: 0x0, symName: __ZNSt3__125uniform_real_distributionIfEclINS_23mersenne_twister_engineIjLm32ELm624ELm397ELm31ELj2567483615ELm11ELj4294967295ELm7ELj2636928640ELm15ELj4022730752ELm18ELj1812433253EEEEEfRT_RKNS1_10param_typeE, symObjAddr: 0x6E60, symBinAddr: 0x10000A144, symSize: 0x6C }
  - { offsetInCU: 0x3149E, offset: 0x3149E, size: 0x8, addend: 0x0, symName: __ZNKSt3__125uniform_real_distributionIfE10param_type1bB8ue170006Ev, symObjAddr: 0x6ECC, symBinAddr: 0x10000A1B0, symSize: 0x18 }
  - { offsetInCU: 0x314C4, offset: 0x314C4, size: 0x8, addend: 0x0, symName: __ZNKSt3__125uniform_real_distributionIfE10param_type1aB8ue170006Ev, symObjAddr: 0x6EE4, symBinAddr: 0x10000A1C8, symSize: 0x18 }
  - { offsetInCU: 0x314EA, offset: 0x314EA, size: 0x8, addend: 0x0, symName: __ZNSt3__123mersenne_twister_engineIjLm32ELm624ELm397ELm31ELj2567483615ELm11ELj4294967295ELm7ELj2636928640ELm15ELj4022730752ELm18ELj1812433253EE3maxB8ue170006Ev, symObjAddr: 0x7014, symBinAddr: 0x10000A2F8, symSize: 0x8 }
  - { offsetInCU: 0x314FE, offset: 0x314FE, size: 0x8, addend: 0x0, symName: __ZNSt3__123mersenne_twister_engineIjLm32ELm624ELm397ELm31ELj2567483615ELm11ELj4294967295ELm7ELj2636928640ELm15ELj4022730752ELm18ELj1812433253EE3minB8ue170006Ev, symObjAddr: 0x701C, symBinAddr: 0x10000A300, symSize: 0x8 }
  - { offsetInCU: 0x31512, offset: 0x31512, size: 0x8, addend: 0x0, symName: __ZNSt3__123mersenne_twister_engineIjLm32ELm624ELm397ELm31ELj2567483615ELm11ELj4294967295ELm7ELj2636928640ELm15ELj4022730752ELm18ELj1812433253EEclEv, symObjAddr: 0x7024, symBinAddr: 0x10000A308, symSize: 0x14C }
  - { offsetInCU: 0x31585, offset: 0x31585, size: 0x8, addend: 0x0, symName: __ZNSt3__123mersenne_twister_engineIjLm32ELm624ELm397ELm31ELj2567483615ELm11ELj4294967295ELm7ELj2636928640ELm15ELj4022730752ELm18ELj1812433253EE8__rshiftB8ue170006ILm1EEENS_9enable_ifIXltT_L_ZNS1_3_DtEEEjE4typeEj, symObjAddr: 0x7170, symBinAddr: 0x10000A454, symSize: 0x18 }
  - { offsetInCU: 0x315B2, offset: 0x315B2, size: 0x8, addend: 0x0, symName: __ZNSt3__123mersenne_twister_engineIjLm32ELm624ELm397ELm31ELj2567483615ELm11ELj4294967295ELm7ELj2636928640ELm15ELj4022730752ELm18ELj1812433253EE8__rshiftB8ue170006ILm11EEENS_9enable_ifIXltT_L_ZNS1_3_DtEEEjE4typeEj, symObjAddr: 0x7188, symBinAddr: 0x10000A46C, symSize: 0x18 }
  - { offsetInCU: 0x315DF, offset: 0x315DF, size: 0x8, addend: 0x0, symName: __ZNSt3__123mersenne_twister_engineIjLm32ELm624ELm397ELm31ELj2567483615ELm11ELj4294967295ELm7ELj2636928640ELm15ELj4022730752ELm18ELj1812433253EE8__lshiftB8ue170006ILm7EEENS_9enable_ifIXltT_Lm32EEjE4typeEj, symObjAddr: 0x71A0, symBinAddr: 0x10000A484, symSize: 0x1C }
  - { offsetInCU: 0x3160C, offset: 0x3160C, size: 0x8, addend: 0x0, symName: __ZNSt3__123mersenne_twister_engineIjLm32ELm624ELm397ELm31ELj2567483615ELm11ELj4294967295ELm7ELj2636928640ELm15ELj4022730752ELm18ELj1812433253EE8__lshiftB8ue170006ILm15EEENS_9enable_ifIXltT_Lm32EEjE4typeEj, symObjAddr: 0x71BC, symBinAddr: 0x10000A4A0, symSize: 0x1C }
  - { offsetInCU: 0x31639, offset: 0x31639, size: 0x8, addend: 0x0, symName: __ZNSt3__123mersenne_twister_engineIjLm32ELm624ELm397ELm31ELj2567483615ELm11ELj4294967295ELm7ELj2636928640ELm15ELj4022730752ELm18ELj1812433253EE8__rshiftB8ue170006ILm18EEENS_9enable_ifIXltT_L_ZNS1_3_DtEEEjE4typeEj, symObjAddr: 0x71D8, symBinAddr: 0x10000A4BC, symSize: 0x18 }
  - { offsetInCU: 0x31666, offset: 0x31666, size: 0x8, addend: 0x0, symName: __ZN5Eigen8internal13scalar_cmp_opIffLNS0_14ComparisonNameE2EEC1Ev, symObjAddr: 0x71F0, symBinAddr: 0x10000A4D4, symSize: 0x2C }
  - { offsetInCU: 0x31690, offset: 0x31690, size: 0x8, addend: 0x0, symName: __ZN5Eigen13CwiseBinaryOpINS_8internal13scalar_cmp_opIffLNS1_14ComparisonNameE2EEEKNS_5ArrayIfLin1ELin1ELi0ELin1ELin1EEES7_EC1ERS7_S9_RKS4_, symObjAddr: 0x721C, symBinAddr: 0x10000A500, symSize: 0x44 }
  - { offsetInCU: 0x316E4, offset: 0x316E4, size: 0x8, addend: 0x0, symName: __ZN5Eigen8internal13scalar_cmp_opIffLNS0_14ComparisonNameE2EEC2Ev, symObjAddr: 0x7260, symBinAddr: 0x10000A544, symSize: 0x14 }
  - { offsetInCU: 0x3170E, offset: 0x3170E, size: 0x8, addend: 0x0, symName: __ZN5Eigen13CwiseBinaryOpINS_8internal13scalar_cmp_opIffLNS1_14ComparisonNameE2EEEKNS_5ArrayIfLin1ELin1ELi0ELin1ELin1EEES7_EC2ERS7_S9_RKS4_, symObjAddr: 0x7274, symBinAddr: 0x10000A558, symSize: 0xF0 }
  - { offsetInCU: 0x31767, offset: 0x31767, size: 0x8, addend: 0x0, symName: __ZN5Eigen17CwiseBinaryOpImplINS_8internal13scalar_cmp_opIffLNS1_14ComparisonNameE2EEEKNS_5ArrayIfLin1ELin1ELi0ELin1ELin1EEES7_NS_5DenseEEC2Ev, symObjAddr: 0x7364, symBinAddr: 0x10000A648, symSize: 0x2C }
  - { offsetInCU: 0x31793, offset: 0x31793, size: 0x8, addend: 0x0, symName: __ZN5Eigen8internal13scalar_cmp_opIffLNS0_14ComparisonNameE2EEC1ERKS3_, symObjAddr: 0x7390, symBinAddr: 0x10000A674, symSize: 0x34 }
  - { offsetInCU: 0x317C8, offset: 0x317C8, size: 0x8, addend: 0x0, symName: __ZN5Eigen9ArrayBaseINS_13CwiseBinaryOpINS_8internal13scalar_cmp_opIffLNS2_14ComparisonNameE2EEEKNS_5ArrayIfLin1ELin1ELi0ELin1ELin1EEES8_EEEC2Ev, symObjAddr: 0x73C4, symBinAddr: 0x10000A6A8, symSize: 0x2C }
  - { offsetInCU: 0x317F2, offset: 0x317F2, size: 0x8, addend: 0x0, symName: __ZN5Eigen9DenseBaseINS_13CwiseBinaryOpINS_8internal13scalar_cmp_opIffLNS2_14ComparisonNameE2EEEKNS_5ArrayIfLin1ELin1ELi0ELin1ELin1EEES8_EEEC2Ev, symObjAddr: 0x73F0, symBinAddr: 0x10000A6D4, symSize: 0x14 }
  - { offsetInCU: 0x3181C, offset: 0x3181C, size: 0x8, addend: 0x0, symName: __ZN5Eigen8internal13scalar_cmp_opIffLNS0_14ComparisonNameE2EEC2ERKS3_, symObjAddr: 0x7404, symBinAddr: 0x10000A6E8, symSize: 0x18 }
  - { offsetInCU: 0x31851, offset: 0x31851, size: 0x8, addend: 0x0, symName: __ZNK5Eigen9EigenBaseINS_13CwiseBinaryOpINS_8internal13scalar_cmp_opIffLNS2_14ComparisonNameE2EEEKNS_5ArrayIfLin1ELin1ELi0ELin1ELin1EEES8_EEE7derivedEv, symObjAddr: 0x741C, symBinAddr: 0x10000A700, symSize: 0x14 }
  - { offsetInCU: 0x31877, offset: 0x31877, size: 0x8, addend: 0x0, symName: __ZN5Eigen8internal14scalar_cast_opIbiEC1Ev, symObjAddr: 0x7430, symBinAddr: 0x10000A714, symSize: 0x2C }
  - { offsetInCU: 0x318A1, offset: 0x318A1, size: 0x8, addend: 0x0, symName: __ZN5Eigen12CwiseUnaryOpINS_8internal14scalar_cast_opIbiEEKNS_13CwiseBinaryOpINS1_13scalar_cmp_opIffLNS1_14ComparisonNameE2EEEKNS_5ArrayIfLin1ELin1ELi0ELin1ELin1EEESA_EEEC1ERSC_RKS3_, symObjAddr: 0x745C, symBinAddr: 0x10000A740, symSize: 0x3C }
  - { offsetInCU: 0x318E7, offset: 0x318E7, size: 0x8, addend: 0x0, symName: __ZN5Eigen8internal14scalar_cast_opIbiEC2Ev, symObjAddr: 0x7498, symBinAddr: 0x10000A77C, symSize: 0x14 }
  - { offsetInCU: 0x31911, offset: 0x31911, size: 0x8, addend: 0x0, symName: __ZN5Eigen12CwiseUnaryOpINS_8internal14scalar_cast_opIbiEEKNS_13CwiseBinaryOpINS1_13scalar_cmp_opIffLNS1_14ComparisonNameE2EEEKNS_5ArrayIfLin1ELin1ELi0ELin1ELin1EEESA_EEEC2ERSC_RKS3_, symObjAddr: 0x74AC, symBinAddr: 0x10000A790, symSize: 0x54 }
  - { offsetInCU: 0x3195C, offset: 0x3195C, size: 0x8, addend: 0x0, symName: __ZN5Eigen16CwiseUnaryOpImplINS_8internal14scalar_cast_opIbiEEKNS_13CwiseBinaryOpINS1_13scalar_cmp_opIffLNS1_14ComparisonNameE2EEEKNS_5ArrayIfLin1ELin1ELi0ELin1ELin1EEESA_EENS_5DenseEEC2Ev, symObjAddr: 0x7500, symBinAddr: 0x10000A7E4, symSize: 0x2C }
  - { offsetInCU: 0x31988, offset: 0x31988, size: 0x8, addend: 0x0, symName: __ZN5Eigen13CwiseBinaryOpINS_8internal13scalar_cmp_opIffLNS1_14ComparisonNameE2EEEKNS_5ArrayIfLin1ELin1ELi0ELin1ELin1EEES7_EC1ERKS8_, symObjAddr: 0x752C, symBinAddr: 0x10000A810, symSize: 0x34 }
  - { offsetInCU: 0x319BD, offset: 0x319BD, size: 0x8, addend: 0x0, symName: __ZN5Eigen8internal14scalar_cast_opIbiEC1ERKS2_, symObjAddr: 0x7560, symBinAddr: 0x10000A844, symSize: 0x34 }
  - { offsetInCU: 0x319F2, offset: 0x319F2, size: 0x8, addend: 0x0, symName: __ZN5Eigen9ArrayBaseINS_12CwiseUnaryOpINS_8internal14scalar_cast_opIbiEEKNS_13CwiseBinaryOpINS2_13scalar_cmp_opIffLNS2_14ComparisonNameE2EEEKNS_5ArrayIfLin1ELin1ELi0ELin1ELin1EEESB_EEEEEC2Ev, symObjAddr: 0x7594, symBinAddr: 0x10000A878, symSize: 0x2C }
  - { offsetInCU: 0x31A1C, offset: 0x31A1C, size: 0x8, addend: 0x0, symName: __ZN5Eigen9DenseBaseINS_12CwiseUnaryOpINS_8internal14scalar_cast_opIbiEEKNS_13CwiseBinaryOpINS2_13scalar_cmp_opIffLNS2_14ComparisonNameE2EEEKNS_5ArrayIfLin1ELin1ELi0ELin1ELin1EEESB_EEEEEC2Ev, symObjAddr: 0x75C0, symBinAddr: 0x10000A8A4, symSize: 0x14 }
  - { offsetInCU: 0x31A46, offset: 0x31A46, size: 0x8, addend: 0x0, symName: __ZN5Eigen13CwiseBinaryOpINS_8internal13scalar_cmp_opIffLNS1_14ComparisonNameE2EEEKNS_5ArrayIfLin1ELin1ELi0ELin1ELin1EEES7_EC2ERKS8_, symObjAddr: 0x75D4, symBinAddr: 0x10000A8B8, symSize: 0x48 }
  - { offsetInCU: 0x31A7B, offset: 0x31A7B, size: 0x8, addend: 0x0, symName: __ZN5Eigen8internal14scalar_cast_opIbiEC2ERKS2_, symObjAddr: 0x761C, symBinAddr: 0x10000A900, symSize: 0x18 }
  - { offsetInCU: 0x31AB0, offset: 0x31AB0, size: 0x8, addend: 0x0, symName: __ZN5Eigen5ArrayIiLin1ELin1ELi0ELin1ELin1EEC2INS_12CwiseUnaryOpINS_8internal14scalar_cast_opIbiEEKNS_13CwiseBinaryOpINS4_13scalar_cmp_opIffLNS4_14ComparisonNameE2EEEKNS0_IfLin1ELin1ELi0ELin1ELin1EEESC_EEEEEERKNS_9EigenBaseIT_EENS4_9enable_ifIXsr8internal14is_convertibleINSH_6ScalarEiEE5valueENS1_11PrivateTypeEE4typeE, symObjAddr: 0x7634, symBinAddr: 0x10000A918, symSize: 0x40 }
  - { offsetInCU: 0x31AFD, offset: 0x31AFD, size: 0x8, addend: 0x0, symName: __ZNK5Eigen9EigenBaseINS_12CwiseUnaryOpINS_8internal14scalar_cast_opIbiEEKNS_13CwiseBinaryOpINS2_13scalar_cmp_opIffLNS2_14ComparisonNameE2EEEKNS_5ArrayIfLin1ELin1ELi0ELin1ELin1EEESB_EEEEE7derivedEv, symObjAddr: 0x7674, symBinAddr: 0x10000A958, symSize: 0x14 }
  - { offsetInCU: 0x31B23, offset: 0x31B23, size: 0x8, addend: 0x0, symName: __ZN5Eigen15PlainObjectBaseINS_5ArrayIiLin1ELin1ELi0ELin1ELin1EEEEC2INS_12CwiseUnaryOpINS_8internal14scalar_cast_opIbiEEKNS_13CwiseBinaryOpINS6_13scalar_cmp_opIffLNS6_14ComparisonNameE2EEEKNS1_IfLin1ELin1ELi0ELin1ELin1EEESE_EEEEEERKNS_9DenseBaseIT_EE, symObjAddr: 0x7688, symBinAddr: 0x10000A96C, symSize: 0x80 }
  - { offsetInCU: 0x31B65, offset: 0x31B65, size: 0x8, addend: 0x0, symName: __ZN5Eigen15PlainObjectBaseINS_5ArrayIiLin1ELin1ELi0ELin1ELin1EEEE10resizeLikeINS_12CwiseUnaryOpINS_8internal14scalar_cast_opIbiEEKNS_13CwiseBinaryOpINS6_13scalar_cmp_opIffLNS6_14ComparisonNameE2EEEKNS1_IfLin1ELin1ELi0ELin1ELin1EEESE_EEEEEEvRKNS_9EigenBaseIT_EE, symObjAddr: 0x7708, symBinAddr: 0x10000A9EC, symSize: 0x11C }
  - { offsetInCU: 0x31BF9, offset: 0x31BF9, size: 0x8, addend: 0x0, symName: __ZN5Eigen15PlainObjectBaseINS_5ArrayIiLin1ELin1ELi0ELin1ELin1EEEE12_set_noaliasINS_12CwiseUnaryOpINS_8internal14scalar_cast_opIbiEEKNS_13CwiseBinaryOpINS6_13scalar_cmp_opIffLNS6_14ComparisonNameE2EEEKNS1_IfLin1ELin1ELi0ELin1ELin1EEESE_EEEEEERS2_RKNS_9DenseBaseIT_EE, symObjAddr: 0x7824, symBinAddr: 0x10000AB08, symSize: 0x60 }
  - { offsetInCU: 0x31C37, offset: 0x31C37, size: 0x8, addend: 0x0, symName: __ZNK5Eigen12CwiseUnaryOpINS_8internal14scalar_cast_opIbiEEKNS_13CwiseBinaryOpINS1_13scalar_cmp_opIffLNS1_14ComparisonNameE2EEEKNS_5ArrayIfLin1ELin1ELi0ELin1ELin1EEESA_EEE4rowsEv, symObjAddr: 0x7884, symBinAddr: 0x10000AB68, symSize: 0x28 }
  - { offsetInCU: 0x31C5D, offset: 0x31C5D, size: 0x8, addend: 0x0, symName: __ZNK5Eigen12CwiseUnaryOpINS_8internal14scalar_cast_opIbiEEKNS_13CwiseBinaryOpINS1_13scalar_cmp_opIffLNS1_14ComparisonNameE2EEEKNS_5ArrayIfLin1ELin1ELi0ELin1ELin1EEESA_EEE4colsEv, symObjAddr: 0x78AC, symBinAddr: 0x10000AB90, symSize: 0x28 }
  - { offsetInCU: 0x31C83, offset: 0x31C83, size: 0x8, addend: 0x0, symName: __ZNK5Eigen13CwiseBinaryOpINS_8internal13scalar_cmp_opIffLNS1_14ComparisonNameE2EEEKNS_5ArrayIfLin1ELin1ELi0ELin1ELin1EEES7_E4rowsEv, symObjAddr: 0x78D4, symBinAddr: 0x10000ABB8, symSize: 0x28 }
  - { offsetInCU: 0x31CA9, offset: 0x31CA9, size: 0x8, addend: 0x0, symName: __ZNK5Eigen13CwiseBinaryOpINS_8internal13scalar_cmp_opIffLNS1_14ComparisonNameE2EEEKNS_5ArrayIfLin1ELin1ELi0ELin1ELin1EEES7_E4colsEv, symObjAddr: 0x78FC, symBinAddr: 0x10000ABE0, symSize: 0x28 }
  - { offsetInCU: 0x31CCF, offset: 0x31CCF, size: 0x8, addend: 0x0, symName: __ZN5Eigen8internal10AssignmentINS_5ArrayIiLin1ELin1ELi0ELin1ELin1EEENS_12CwiseUnaryOpINS0_14scalar_cast_opIbiEEKNS_13CwiseBinaryOpINS0_13scalar_cmp_opIffLNS0_14ComparisonNameE2EEEKNS2_IfLin1ELin1ELi0ELin1ELin1EEESC_EEEENS0_9assign_opIiiEENS0_11Dense2DenseEvE3runERS3_RKSF_RKSH_, symObjAddr: 0x7960, symBinAddr: 0x10000AC44, symSize: 0x40 }
  - { offsetInCU: 0x31D11, offset: 0x31D11, size: 0x8, addend: 0x0, symName: __ZN5Eigen8internal27checkTransposeAliasing_implINS_5ArrayIiLin1ELin1ELi0ELin1ELin1EEENS_12CwiseUnaryOpINS0_14scalar_cast_opIbiEEKNS_13CwiseBinaryOpINS0_13scalar_cmp_opIffLNS0_14ComparisonNameE2EEEKNS2_IfLin1ELin1ELi0ELin1ELin1EEESC_EEEELb0EE3runERKS3_RKSF_, symObjAddr: 0x7AD8, symBinAddr: 0x10000ADBC, symSize: 0x14 }
  - { offsetInCU: 0x31DC8, offset: 0x31DC8, size: 0x8, addend: 0x0, symName: __ZN5Eigen8internal9evaluatorINS_12CwiseUnaryOpINS0_14scalar_cast_opIbiEEKNS_13CwiseBinaryOpINS0_13scalar_cmp_opIffLNS0_14ComparisonNameE2EEEKNS_5ArrayIfLin1ELin1ELi0ELin1ELin1EEESB_EEEEEC1ERKSE_, symObjAddr: 0x7AEC, symBinAddr: 0x10000ADD0, symSize: 0x34 }
  - { offsetInCU: 0x31E2D, offset: 0x31E2D, size: 0x8, addend: 0x0, symName: __ZN5Eigen8internal31generic_dense_assignment_kernelINS0_9evaluatorINS_5ArrayIiLin1ELin1ELi0ELin1ELin1EEEEENS2_INS_12CwiseUnaryOpINS0_14scalar_cast_opIbiEEKNS_13CwiseBinaryOpINS0_13scalar_cmp_opIffLNS0_14ComparisonNameE2EEEKNS3_IfLin1ELin1ELi0ELin1ELin1EEESE_EEEEEENS0_9assign_opIiiEELi0EEC1ERS5_RKSI_RKSK_RS4_, symObjAddr: 0x7C18, symBinAddr: 0x10000AEFC, symSize: 0x4C }
  - { offsetInCU: 0x31E98, offset: 0x31E98, size: 0x8, addend: 0x0, symName: __ZN5Eigen8internal21dense_assignment_loopINS0_31generic_dense_assignment_kernelINS0_9evaluatorINS_5ArrayIiLin1ELin1ELi0ELin1ELin1EEEEENS3_INS_12CwiseUnaryOpINS0_14scalar_cast_opIbiEEKNS_13CwiseBinaryOpINS0_13scalar_cmp_opIffLNS0_14ComparisonNameE2EEEKNS4_IfLin1ELin1ELi0ELin1ELin1EEESF_EEEEEENS0_9assign_opIiiEELi0EEELi1ELi0EE3runERSM_, symObjAddr: 0x7C64, symBinAddr: 0x10000AF48, symSize: 0x68 }
  - { offsetInCU: 0x31EE8, offset: 0x31EE8, size: 0x8, addend: 0x0, symName: __ZN5Eigen8internal9evaluatorINS_12CwiseUnaryOpINS0_14scalar_cast_opIbiEEKNS_13CwiseBinaryOpINS0_13scalar_cmp_opIffLNS0_14ComparisonNameE2EEEKNS_5ArrayIfLin1ELin1ELi0ELin1ELin1EEESB_EEEEED1Ev, symObjAddr: 0x7CCC, symBinAddr: 0x10000AFB0, symSize: 0x2C }
  - { offsetInCU: 0x31F14, offset: 0x31F14, size: 0x8, addend: 0x0, symName: __ZN5Eigen8internal9evaluatorINS_12CwiseUnaryOpINS0_14scalar_cast_opIbiEEKNS_13CwiseBinaryOpINS0_13scalar_cmp_opIffLNS0_14ComparisonNameE2EEEKNS_5ArrayIfLin1ELin1ELi0ELin1ELin1EEESB_EEEEEC2ERKSE_, symObjAddr: 0x7CF8, symBinAddr: 0x10000AFDC, symSize: 0x34 }
  - { offsetInCU: 0x31F4C, offset: 0x31F4C, size: 0x8, addend: 0x0, symName: __ZN5Eigen8internal15unary_evaluatorINS_12CwiseUnaryOpINS0_14scalar_cast_opIbiEEKNS_13CwiseBinaryOpINS0_13scalar_cmp_opIffLNS0_14ComparisonNameE2EEEKNS_5ArrayIfLin1ELin1ELi0ELin1ELin1EEESB_EEEENS0_10IndexBasedEiEC2ERKSE_, symObjAddr: 0x7D2C, symBinAddr: 0x10000B010, symSize: 0x64 }
  - { offsetInCU: 0x31F85, offset: 0x31F85, size: 0x8, addend: 0x0, symName: __ZN5Eigen8internal14evaluator_baseINS_12CwiseUnaryOpINS0_14scalar_cast_opIbiEEKNS_13CwiseBinaryOpINS0_13scalar_cmp_opIffLNS0_14ComparisonNameE2EEEKNS_5ArrayIfLin1ELin1ELi0ELin1ELin1EEESB_EEEEEC2Ev, symObjAddr: 0x7D90, symBinAddr: 0x10000B074, symSize: 0x14 }
  - { offsetInCU: 0x31FAF, offset: 0x31FAF, size: 0x8, addend: 0x0, symName: __ZN5Eigen8internal15unary_evaluatorINS_12CwiseUnaryOpINS0_14scalar_cast_opIbiEEKNS_13CwiseBinaryOpINS0_13scalar_cmp_opIffLNS0_14ComparisonNameE2EEEKNS_5ArrayIfLin1ELin1ELi0ELin1ELin1EEESB_EEEENS0_10IndexBasedEiE4DataC1ERKSE_, symObjAddr: 0x7DA4, symBinAddr: 0x10000B088, symSize: 0x34 }
  - { offsetInCU: 0x31FE8, offset: 0x31FE8, size: 0x8, addend: 0x0, symName: __ZN5Eigen8internal14evaluator_baseINS_12CwiseUnaryOpINS0_14scalar_cast_opIbiEEKNS_13CwiseBinaryOpINS0_13scalar_cmp_opIffLNS0_14ComparisonNameE2EEEKNS_5ArrayIfLin1ELin1ELi0ELin1ELin1EEESB_EEEEED2Ev, symObjAddr: 0x7DD8, symBinAddr: 0x10000B0BC, symSize: 0x14 }
  - { offsetInCU: 0x32012, offset: 0x32012, size: 0x8, addend: 0x0, symName: __ZN5Eigen8internal15unary_evaluatorINS_12CwiseUnaryOpINS0_14scalar_cast_opIbiEEKNS_13CwiseBinaryOpINS0_13scalar_cmp_opIffLNS0_14ComparisonNameE2EEEKNS_5ArrayIfLin1ELin1ELi0ELin1ELin1EEESB_EEEENS0_10IndexBasedEiE4DataC2ERKSE_, symObjAddr: 0x7DEC, symBinAddr: 0x10000B0D0, symSize: 0x58 }
  - { offsetInCU: 0x3204B, offset: 0x3204B, size: 0x8, addend: 0x0, symName: __ZNK5Eigen12CwiseUnaryOpINS_8internal14scalar_cast_opIbiEEKNS_13CwiseBinaryOpINS1_13scalar_cmp_opIffLNS1_14ComparisonNameE2EEEKNS_5ArrayIfLin1ELin1ELi0ELin1ELin1EEESA_EEE7functorEv, symObjAddr: 0x7E44, symBinAddr: 0x10000B128, symSize: 0x18 }
  - { offsetInCU: 0x32071, offset: 0x32071, size: 0x8, addend: 0x0, symName: __ZNK5Eigen12CwiseUnaryOpINS_8internal14scalar_cast_opIbiEEKNS_13CwiseBinaryOpINS1_13scalar_cmp_opIffLNS1_14ComparisonNameE2EEEKNS_5ArrayIfLin1ELin1ELi0ELin1ELin1EEESA_EEE16nestedExpressionEv, symObjAddr: 0x7E5C, symBinAddr: 0x10000B140, symSize: 0x18 }
  - { offsetInCU: 0x32097, offset: 0x32097, size: 0x8, addend: 0x0, symName: __ZN5Eigen8internal9evaluatorIKNS_13CwiseBinaryOpINS0_13scalar_cmp_opIffLNS0_14ComparisonNameE2EEEKNS_5ArrayIfLin1ELin1ELi0ELin1ELin1EEES8_EEEC1ERSA_, symObjAddr: 0x7E74, symBinAddr: 0x10000B158, symSize: 0x34 }
  - { offsetInCU: 0x320CF, offset: 0x320CF, size: 0x8, addend: 0x0, symName: __ZN5Eigen8internal9evaluatorIKNS_13CwiseBinaryOpINS0_13scalar_cmp_opIffLNS0_14ComparisonNameE2EEEKNS_5ArrayIfLin1ELin1ELi0ELin1ELin1EEES8_EEEC2ERSA_, symObjAddr: 0x7EA8, symBinAddr: 0x10000B18C, symSize: 0x34 }
  - { offsetInCU: 0x32107, offset: 0x32107, size: 0x8, addend: 0x0, symName: __ZN5Eigen8internal9evaluatorINS_13CwiseBinaryOpINS0_13scalar_cmp_opIffLNS0_14ComparisonNameE2EEEKNS_5ArrayIfLin1ELin1ELi0ELin1ELin1EEES8_EEEC2ERKS9_, symObjAddr: 0x7EDC, symBinAddr: 0x10000B1C0, symSize: 0x34 }
  - { offsetInCU: 0x32140, offset: 0x32140, size: 0x8, addend: 0x0, symName: __ZN5Eigen8internal16binary_evaluatorINS_13CwiseBinaryOpINS0_13scalar_cmp_opIffLNS0_14ComparisonNameE2EEEKNS_5ArrayIfLin1ELin1ELi0ELin1ELin1EEES8_EENS0_10IndexBasedESA_ffEC2ERKS9_, symObjAddr: 0x7F10, symBinAddr: 0x10000B1F4, symSize: 0x64 }
  - { offsetInCU: 0x32179, offset: 0x32179, size: 0x8, addend: 0x0, symName: __ZN5Eigen8internal14evaluator_baseINS_13CwiseBinaryOpINS0_13scalar_cmp_opIffLNS0_14ComparisonNameE2EEEKNS_5ArrayIfLin1ELin1ELi0ELin1ELin1EEES8_EEEC2Ev, symObjAddr: 0x7F74, symBinAddr: 0x10000B258, symSize: 0x14 }
  - { offsetInCU: 0x321A3, offset: 0x321A3, size: 0x8, addend: 0x0, symName: __ZN5Eigen8internal16binary_evaluatorINS_13CwiseBinaryOpINS0_13scalar_cmp_opIffLNS0_14ComparisonNameE2EEEKNS_5ArrayIfLin1ELin1ELi0ELin1ELin1EEES8_EENS0_10IndexBasedESA_ffE4DataC1ERKS9_, symObjAddr: 0x7F88, symBinAddr: 0x10000B26C, symSize: 0x34 }
  - { offsetInCU: 0x321DC, offset: 0x321DC, size: 0x8, addend: 0x0, symName: __ZN5Eigen8internal14evaluator_baseINS_13CwiseBinaryOpINS0_13scalar_cmp_opIffLNS0_14ComparisonNameE2EEEKNS_5ArrayIfLin1ELin1ELi0ELin1ELin1EEES8_EEED2Ev, symObjAddr: 0x7FBC, symBinAddr: 0x10000B2A0, symSize: 0x14 }
  - { offsetInCU: 0x32206, offset: 0x32206, size: 0x8, addend: 0x0, symName: __ZN5Eigen8internal16binary_evaluatorINS_13CwiseBinaryOpINS0_13scalar_cmp_opIffLNS0_14ComparisonNameE2EEEKNS_5ArrayIfLin1ELin1ELi0ELin1ELin1EEES8_EENS0_10IndexBasedESA_ffE4DataC2ERKS9_, symObjAddr: 0x7FD0, symBinAddr: 0x10000B2B4, symSize: 0xA8 }
  - { offsetInCU: 0x3223F, offset: 0x3223F, size: 0x8, addend: 0x0, symName: __ZNK5Eigen13CwiseBinaryOpINS_8internal13scalar_cmp_opIffLNS1_14ComparisonNameE2EEEKNS_5ArrayIfLin1ELin1ELi0ELin1ELin1EEES7_E7functorEv, symObjAddr: 0x8078, symBinAddr: 0x10000B35C, symSize: 0x18 }
  - { offsetInCU: 0x32265, offset: 0x32265, size: 0x8, addend: 0x0, symName: __ZNK5Eigen13CwiseBinaryOpINS_8internal13scalar_cmp_opIffLNS1_14ComparisonNameE2EEEKNS_5ArrayIfLin1ELin1ELi0ELin1ELin1EEES7_E3lhsEv, symObjAddr: 0x8090, symBinAddr: 0x10000B374, symSize: 0x18 }
  - { offsetInCU: 0x3228B, offset: 0x3228B, size: 0x8, addend: 0x0, symName: __ZN5Eigen8internal9evaluatorIKNS_5ArrayIfLin1ELin1ELi0ELin1ELin1EEEEC1ERS4_, symObjAddr: 0x80A8, symBinAddr: 0x10000B38C, symSize: 0x34 }
  - { offsetInCU: 0x322C3, offset: 0x322C3, size: 0x8, addend: 0x0, symName: __ZNK5Eigen13CwiseBinaryOpINS_8internal13scalar_cmp_opIffLNS1_14ComparisonNameE2EEEKNS_5ArrayIfLin1ELin1ELi0ELin1ELin1EEES7_E3rhsEv, symObjAddr: 0x80DC, symBinAddr: 0x10000B3C0, symSize: 0x18 }
  - { offsetInCU: 0x322E9, offset: 0x322E9, size: 0x8, addend: 0x0, symName: __ZN5Eigen8internal9evaluatorIKNS_5ArrayIfLin1ELin1ELi0ELin1ELin1EEEED1Ev, symObjAddr: 0x80F4, symBinAddr: 0x10000B3D8, symSize: 0x2C }
  - { offsetInCU: 0x32315, offset: 0x32315, size: 0x8, addend: 0x0, symName: __ZN5Eigen8internal9evaluatorIKNS_5ArrayIfLin1ELin1ELi0ELin1ELin1EEEEC2ERS4_, symObjAddr: 0x8120, symBinAddr: 0x10000B404, symSize: 0x34 }
  - { offsetInCU: 0x3234D, offset: 0x3234D, size: 0x8, addend: 0x0, symName: __ZN5Eigen8internal9evaluatorIKNS_5ArrayIfLin1ELin1ELi0ELin1ELin1EEEED2Ev, symObjAddr: 0x8154, symBinAddr: 0x10000B438, symSize: 0x2C }
  - { offsetInCU: 0x32379, offset: 0x32379, size: 0x8, addend: 0x0, symName: __ZN5Eigen8internal31generic_dense_assignment_kernelINS0_9evaluatorINS_5ArrayIiLin1ELin1ELi0ELin1ELin1EEEEENS2_INS_12CwiseUnaryOpINS0_14scalar_cast_opIbiEEKNS_13CwiseBinaryOpINS0_13scalar_cmp_opIffLNS0_14ComparisonNameE2EEEKNS3_IfLin1ELin1ELi0ELin1ELin1EEESE_EEEEEENS0_9assign_opIiiEELi0EEC2ERS5_RKSI_RKSK_RS4_, symObjAddr: 0x8180, symBinAddr: 0x10000B464, symSize: 0x44 }
  - { offsetInCU: 0x323DF, offset: 0x323DF, size: 0x8, addend: 0x0, symName: __ZNK5Eigen8internal31generic_dense_assignment_kernelINS0_9evaluatorINS_5ArrayIiLin1ELin1ELi0ELin1ELin1EEEEENS2_INS_12CwiseUnaryOpINS0_14scalar_cast_opIbiEEKNS_13CwiseBinaryOpINS0_13scalar_cmp_opIffLNS0_14ComparisonNameE2EEEKNS3_IfLin1ELin1ELi0ELin1ELin1EEESE_EEEEEENS0_9assign_opIiiEELi0EE4sizeEv, symObjAddr: 0x81C4, symBinAddr: 0x10000B4A8, symSize: 0x28 }
  - { offsetInCU: 0x32405, offset: 0x32405, size: 0x8, addend: 0x0, symName: __ZN5Eigen8internal31generic_dense_assignment_kernelINS0_9evaluatorINS_5ArrayIiLin1ELin1ELi0ELin1ELin1EEEEENS2_INS_12CwiseUnaryOpINS0_14scalar_cast_opIbiEEKNS_13CwiseBinaryOpINS0_13scalar_cmp_opIffLNS0_14ComparisonNameE2EEEKNS3_IfLin1ELin1ELi0ELin1ELin1EEESE_EEEEEENS0_9assign_opIiiEELi0EE11assignCoeffEl, symObjAddr: 0x81EC, symBinAddr: 0x10000B4D0, symSize: 0x68 }
  - { offsetInCU: 0x3243A, offset: 0x3243A, size: 0x8, addend: 0x0, symName: __ZNK5Eigen9EigenBaseINS_5ArrayIiLin1ELin1ELi0ELin1ELin1EEEE4sizeEv, symObjAddr: 0x8254, symBinAddr: 0x10000B538, symSize: 0x44 }
  - { offsetInCU: 0x32460, offset: 0x32460, size: 0x8, addend: 0x0, symName: __ZN5Eigen8internal9evaluatorINS_15PlainObjectBaseINS_5ArrayIiLin1ELin1ELi0ELin1ELin1EEEEEE8coeffRefEl, symObjAddr: 0x8298, symBinAddr: 0x10000B57C, symSize: 0x24 }
  - { offsetInCU: 0x32494, offset: 0x32494, size: 0x8, addend: 0x0, symName: __ZNK5Eigen8internal15unary_evaluatorINS_12CwiseUnaryOpINS0_14scalar_cast_opIbiEEKNS_13CwiseBinaryOpINS0_13scalar_cmp_opIffLNS0_14ComparisonNameE2EEEKNS_5ArrayIfLin1ELin1ELi0ELin1ELin1EEESB_EEEENS0_10IndexBasedEiE5coeffEl, symObjAddr: 0x82BC, symBinAddr: 0x10000B5A0, symSize: 0x58 }
  - { offsetInCU: 0x324C9, offset: 0x324C9, size: 0x8, addend: 0x0, symName: __ZNK5Eigen8internal15unary_evaluatorINS_12CwiseUnaryOpINS0_14scalar_cast_opIbiEEKNS_13CwiseBinaryOpINS0_13scalar_cmp_opIffLNS0_14ComparisonNameE2EEEKNS_5ArrayIfLin1ELin1ELi0ELin1ELin1EEESB_EEEENS0_10IndexBasedEiE4Data4funcEv, symObjAddr: 0x8314, symBinAddr: 0x10000B5F8, symSize: 0x14 }
  - { offsetInCU: 0x324EF, offset: 0x324EF, size: 0x8, addend: 0x0, symName: __ZNK5Eigen8internal14scalar_cast_opIbiEclERKb, symObjAddr: 0x8328, symBinAddr: 0x10000B60C, symSize: 0x28 }
  - { offsetInCU: 0x32523, offset: 0x32523, size: 0x8, addend: 0x0, symName: __ZNK5Eigen8internal16binary_evaluatorINS_13CwiseBinaryOpINS0_13scalar_cmp_opIffLNS0_14ComparisonNameE2EEEKNS_5ArrayIfLin1ELin1ELi0ELin1ELin1EEES8_EENS0_10IndexBasedESA_ffE5coeffEl, symObjAddr: 0x8350, symBinAddr: 0x10000B634, symSize: 0x68 }
  - { offsetInCU: 0x32558, offset: 0x32558, size: 0x8, addend: 0x0, symName: __ZN5Eigen8internal9cast_implIbivE3runERKb, symObjAddr: 0x83DC, symBinAddr: 0x10000B6C0, symSize: 0x1C }
  - { offsetInCU: 0x3257C, offset: 0x3257C, size: 0x8, addend: 0x0, symName: __ZNK5Eigen8internal16binary_evaluatorINS_13CwiseBinaryOpINS0_13scalar_cmp_opIffLNS0_14ComparisonNameE2EEEKNS_5ArrayIfLin1ELin1ELi0ELin1ELin1EEES8_EENS0_10IndexBasedESA_ffE4Data4funcEv, symObjAddr: 0x83F8, symBinAddr: 0x10000B6DC, symSize: 0x14 }
  - { offsetInCU: 0x325A2, offset: 0x325A2, size: 0x8, addend: 0x0, symName: __ZNK5Eigen8internal13scalar_cmp_opIffLNS0_14ComparisonNameE2EEclERKfS5_, symObjAddr: 0x840C, symBinAddr: 0x10000B6F0, symSize: 0x34 }
  - { offsetInCU: 0x325E4, offset: 0x325E4, size: 0x8, addend: 0x0, symName: __ZNK5Eigen8internal9evaluatorINS_15PlainObjectBaseINS_5ArrayIfLin1ELin1ELi0ELin1ELin1EEEEEE5coeffEl, symObjAddr: 0x8440, symBinAddr: 0x10000B724, symSize: 0x24 }
  - { offsetInCU: 0x32618, offset: 0x32618, size: 0x8, addend: 0x0, symName: __ZN5Eigen8internal9evaluatorINS_12CwiseUnaryOpINS0_14scalar_cast_opIbiEEKNS_13CwiseBinaryOpINS0_13scalar_cmp_opIffLNS0_14ComparisonNameE2EEEKNS_5ArrayIfLin1ELin1ELi0ELin1ELin1EEESB_EEEEED2Ev, symObjAddr: 0x8464, symBinAddr: 0x10000B748, symSize: 0x2C }
  - { offsetInCU: 0x32644, offset: 0x32644, size: 0x8, addend: 0x0, symName: __ZN5Eigen8internal15unary_evaluatorINS_12CwiseUnaryOpINS0_14scalar_cast_opIbiEEKNS_13CwiseBinaryOpINS0_13scalar_cmp_opIffLNS0_14ComparisonNameE2EEEKNS_5ArrayIfLin1ELin1ELi0ELin1ELin1EEESB_EEEENS0_10IndexBasedEiED2Ev, symObjAddr: 0x8490, symBinAddr: 0x10000B774, symSize: 0x34 }
  - { offsetInCU: 0x32670, offset: 0x32670, size: 0x8, addend: 0x0, symName: __ZN5Eigen8internal15unary_evaluatorINS_12CwiseUnaryOpINS0_14scalar_cast_opIbiEEKNS_13CwiseBinaryOpINS0_13scalar_cmp_opIffLNS0_14ComparisonNameE2EEEKNS_5ArrayIfLin1ELin1ELi0ELin1ELin1EEESB_EEEENS0_10IndexBasedEiE4DataD1Ev, symObjAddr: 0x84C4, symBinAddr: 0x10000B7A8, symSize: 0x2C }
  - { offsetInCU: 0x3269D, offset: 0x3269D, size: 0x8, addend: 0x0, symName: __ZN5Eigen8internal15unary_evaluatorINS_12CwiseUnaryOpINS0_14scalar_cast_opIbiEEKNS_13CwiseBinaryOpINS0_13scalar_cmp_opIffLNS0_14ComparisonNameE2EEEKNS_5ArrayIfLin1ELin1ELi0ELin1ELin1EEESB_EEEENS0_10IndexBasedEiE4DataD2Ev, symObjAddr: 0x84F0, symBinAddr: 0x10000B7D4, symSize: 0x30 }
  - { offsetInCU: 0x326CA, offset: 0x326CA, size: 0x8, addend: 0x0, symName: __ZN5Eigen8internal9evaluatorIKNS_13CwiseBinaryOpINS0_13scalar_cmp_opIffLNS0_14ComparisonNameE2EEEKNS_5ArrayIfLin1ELin1ELi0ELin1ELin1EEES8_EEED1Ev, symObjAddr: 0x8520, symBinAddr: 0x10000B804, symSize: 0x2C }
  - { offsetInCU: 0x326F6, offset: 0x326F6, size: 0x8, addend: 0x0, symName: __ZN5Eigen8internal9evaluatorIKNS_13CwiseBinaryOpINS0_13scalar_cmp_opIffLNS0_14ComparisonNameE2EEEKNS_5ArrayIfLin1ELin1ELi0ELin1ELin1EEES8_EEED2Ev, symObjAddr: 0x854C, symBinAddr: 0x10000B830, symSize: 0x2C }
  - { offsetInCU: 0x32722, offset: 0x32722, size: 0x8, addend: 0x0, symName: __ZN5Eigen8internal9evaluatorINS_13CwiseBinaryOpINS0_13scalar_cmp_opIffLNS0_14ComparisonNameE2EEEKNS_5ArrayIfLin1ELin1ELi0ELin1ELin1EEES8_EEED2Ev, symObjAddr: 0x8578, symBinAddr: 0x10000B85C, symSize: 0x2C }
  - { offsetInCU: 0x3274F, offset: 0x3274F, size: 0x8, addend: 0x0, symName: __ZN5Eigen8internal16binary_evaluatorINS_13CwiseBinaryOpINS0_13scalar_cmp_opIffLNS0_14ComparisonNameE2EEEKNS_5ArrayIfLin1ELin1ELi0ELin1ELin1EEES8_EENS0_10IndexBasedESA_ffED2Ev, symObjAddr: 0x85A4, symBinAddr: 0x10000B888, symSize: 0x34 }
  - { offsetInCU: 0x3277B, offset: 0x3277B, size: 0x8, addend: 0x0, symName: __ZN5Eigen8internal16binary_evaluatorINS_13CwiseBinaryOpINS0_13scalar_cmp_opIffLNS0_14ComparisonNameE2EEEKNS_5ArrayIfLin1ELin1ELi0ELin1ELin1EEES8_EENS0_10IndexBasedESA_ffE4DataD1Ev, symObjAddr: 0x85D8, symBinAddr: 0x10000B8BC, symSize: 0x2C }
  - { offsetInCU: 0x327A8, offset: 0x327A8, size: 0x8, addend: 0x0, symName: __ZN5Eigen8internal16binary_evaluatorINS_13CwiseBinaryOpINS0_13scalar_cmp_opIffLNS0_14ComparisonNameE2EEEKNS_5ArrayIfLin1ELin1ELi0ELin1ELin1EEES8_EENS0_10IndexBasedESA_ffE4DataD2Ev, symObjAddr: 0x8604, symBinAddr: 0x10000B8E8, symSize: 0x3C }
  - { offsetInCU: 0x327D5, offset: 0x327D5, size: 0x8, addend: 0x0, symName: __ZN5Eigen5BlockINS_5ArrayIiLin1ELin1ELi0ELin1ELin1EEELin1ELin1ELb0EEC1ERS2_llll, symObjAddr: 0x8640, symBinAddr: 0x10000B924, symSize: 0x54 }
  - { offsetInCU: 0x32845, offset: 0x32845, size: 0x8, addend: 0x0, symName: __ZN5Eigen5BlockINS_5ArrayIiLin1ELin1ELi0ELin1ELin1EEELin1ELin1ELb0EEC2ERS2_llll, symObjAddr: 0x8694, symBinAddr: 0x10000B978, symSize: 0x154 }
  - { offsetInCU: 0x328B5, offset: 0x328B5, size: 0x8, addend: 0x0, symName: __ZN5Eigen9BlockImplINS_5ArrayIiLin1ELin1ELi0ELin1ELin1EEELin1ELin1ELb0ENS_5DenseEEC2ERS2_llll, symObjAddr: 0x87E8, symBinAddr: 0x10000BACC, symSize: 0x54 }
  - { offsetInCU: 0x32925, offset: 0x32925, size: 0x8, addend: 0x0, symName: __ZN5Eigen8internal15BlockImpl_denseINS_5ArrayIiLin1ELin1ELi0ELin1ELin1EEELin1ELin1ELb0ELb1EEC2ERS3_llll, symObjAddr: 0x883C, symBinAddr: 0x10000BB20, symSize: 0xC4 }
  - { offsetInCU: 0x3299A, offset: 0x3299A, size: 0x8, addend: 0x0, symName: __ZN5Eigen15PlainObjectBaseINS_5ArrayIiLin1ELin1ELi0ELin1ELin1EEEE4dataEv, symObjAddr: 0x8900, symBinAddr: 0x10000BBE4, symSize: 0x24 }
  - { offsetInCU: 0x329C0, offset: 0x329C0, size: 0x8, addend: 0x0, symName: __ZNK5Eigen5ArrayIiLin1ELin1ELi0ELin1ELin1EE11innerStrideEv, symObjAddr: 0x8924, symBinAddr: 0x10000BC08, symSize: 0x14 }
  - { offsetInCU: 0x329E6, offset: 0x329E6, size: 0x8, addend: 0x0, symName: __ZN5Eigen7MapBaseINS_5BlockINS_5ArrayIiLin1ELin1ELi0ELin1ELin1EEELin1ELin1ELb0EEELi1EEC2EPill, symObjAddr: 0x8938, symBinAddr: 0x10000BC1C, symSize: 0x44 }
  - { offsetInCU: 0x32A3D, offset: 0x32A3D, size: 0x8, addend: 0x0, symName: __ZN5Eigen8internal15BlockImpl_denseINS_5ArrayIiLin1ELin1ELi0ELin1ELin1EEELin1ELin1ELb0ELb1EE4initEv, symObjAddr: 0x897C, symBinAddr: 0x10000BC60, symSize: 0x34 }
  - { offsetInCU: 0x32A63, offset: 0x32A63, size: 0x8, addend: 0x0, symName: __ZN5Eigen12DenseStorageIiLin1ELin1ELin1ELi0EE4dataEv, symObjAddr: 0x89B0, symBinAddr: 0x10000BC94, symSize: 0x18 }
  - { offsetInCU: 0x32A89, offset: 0x32A89, size: 0x8, addend: 0x0, symName: __ZN5Eigen7MapBaseINS_5BlockINS_5ArrayIiLin1ELin1ELi0ELin1ELin1EEELin1ELin1ELb0EEELi0EEC2EPill, symObjAddr: 0x89C8, symBinAddr: 0x10000BCAC, symSize: 0x110 }
  - { offsetInCU: 0x32ADD, offset: 0x32ADD, size: 0x8, addend: 0x0, symName: __ZN5Eigen9ArrayBaseINS_5BlockINS_5ArrayIiLin1ELin1ELi0ELin1ELin1EEELin1ELin1ELb0EEEEC2Ev, symObjAddr: 0x8AD8, symBinAddr: 0x10000BDBC, symSize: 0x2C }
  - { offsetInCU: 0x32B07, offset: 0x32B07, size: 0x8, addend: 0x0, symName: __ZNK5Eigen7MapBaseINS_5BlockINS_5ArrayIiLin1ELin1ELi0ELin1ELin1EEELin1ELin1ELb0EEELi0EE11checkSanityIS4_EEvNS_8internal9enable_ifIXeqsr8internal6traitsIT_EE9AlignmentLi0EEPvE4typeE, symObjAddr: 0x8B04, symBinAddr: 0x10000BDE8, symSize: 0x14 }
  - { offsetInCU: 0x32B41, offset: 0x32B41, size: 0x8, addend: 0x0, symName: __ZN5Eigen9DenseBaseINS_5BlockINS_5ArrayIiLin1ELin1ELi0ELin1ELin1EEELin1ELin1ELb0EEEEC2Ev, symObjAddr: 0x8B18, symBinAddr: 0x10000BDFC, symSize: 0x14 }
  - { offsetInCU: 0x32B6B, offset: 0x32B6B, size: 0x8, addend: 0x0, symName: __ZN5Eigen8internal17scalar_product_opIiiEC1Ev, symObjAddr: 0x8B2C, symBinAddr: 0x10000BE10, symSize: 0x2C }
  - { offsetInCU: 0x32B95, offset: 0x32B95, size: 0x8, addend: 0x0, symName: __ZN5Eigen13CwiseBinaryOpINS_8internal17scalar_product_opIiiEEKNS_5ArrayIiLin1ELin1ELi0ELin1ELin1EEES6_EC1ERS6_S8_RKS3_, symObjAddr: 0x8B58, symBinAddr: 0x10000BE3C, symSize: 0x44 }
  - { offsetInCU: 0x32BE9, offset: 0x32BE9, size: 0x8, addend: 0x0, symName: __ZN5Eigen8internal17scalar_product_opIiiEC2Ev, symObjAddr: 0x8B9C, symBinAddr: 0x10000BE80, symSize: 0x14 }
  - { offsetInCU: 0x32C13, offset: 0x32C13, size: 0x8, addend: 0x0, symName: __ZN5Eigen13CwiseBinaryOpINS_8internal17scalar_product_opIiiEEKNS_5ArrayIiLin1ELin1ELi0ELin1ELin1EEES6_EC2ERS6_S8_RKS3_, symObjAddr: 0x8BB0, symBinAddr: 0x10000BE94, symSize: 0xF0 }
  - { offsetInCU: 0x32C6C, offset: 0x32C6C, size: 0x8, addend: 0x0, symName: __ZN5Eigen17CwiseBinaryOpImplINS_8internal17scalar_product_opIiiEEKNS_5ArrayIiLin1ELin1ELi0ELin1ELin1EEES6_NS_5DenseEEC2Ev, symObjAddr: 0x8CA0, symBinAddr: 0x10000BF84, symSize: 0x2C }
  - { offsetInCU: 0x32C98, offset: 0x32C98, size: 0x8, addend: 0x0, symName: __ZN5Eigen8internal17scalar_product_opIiiEC1ERKS2_, symObjAddr: 0x8CCC, symBinAddr: 0x10000BFB0, symSize: 0x34 }
  - { offsetInCU: 0x32CCD, offset: 0x32CCD, size: 0x8, addend: 0x0, symName: __ZN5Eigen9ArrayBaseINS_13CwiseBinaryOpINS_8internal17scalar_product_opIiiEEKNS_5ArrayIiLin1ELin1ELi0ELin1ELin1EEES7_EEEC2Ev, symObjAddr: 0x8D00, symBinAddr: 0x10000BFE4, symSize: 0x2C }
  - { offsetInCU: 0x32CF7, offset: 0x32CF7, size: 0x8, addend: 0x0, symName: __ZN5Eigen9DenseBaseINS_13CwiseBinaryOpINS_8internal17scalar_product_opIiiEEKNS_5ArrayIiLin1ELin1ELi0ELin1ELin1EEES7_EEEC2Ev, symObjAddr: 0x8D2C, symBinAddr: 0x10000C010, symSize: 0x14 }
  - { offsetInCU: 0x32D21, offset: 0x32D21, size: 0x8, addend: 0x0, symName: __ZN5Eigen8internal17scalar_product_opIiiEC2ERKS2_, symObjAddr: 0x8D40, symBinAddr: 0x10000C024, symSize: 0x18 }
  - { offsetInCU: 0x32D56, offset: 0x32D56, size: 0x8, addend: 0x0, symName: __ZN5Eigen9BlockImplINS_5ArrayIiLin1ELin1ELi0ELin1ELin1EEELin1ELin1ELb0ENS_5DenseEEaSINS_13CwiseBinaryOpINS_8internal17scalar_product_opIiiEEKS2_SA_EEEERS4_RKNS_9DenseBaseIT_EE, symObjAddr: 0x8D58, symBinAddr: 0x10000C03C, symSize: 0x40 }
  - { offsetInCU: 0x32D93, offset: 0x32D93, size: 0x8, addend: 0x0, symName: __ZNK5Eigen9EigenBaseINS_13CwiseBinaryOpINS_8internal17scalar_product_opIiiEEKNS_5ArrayIiLin1ELin1ELi0ELin1ELin1EEES7_EEE7derivedEv, symObjAddr: 0x8D98, symBinAddr: 0x10000C07C, symSize: 0x14 }
  - { offsetInCU: 0x32DB9, offset: 0x32DB9, size: 0x8, addend: 0x0, symName: __ZN5Eigen8internal15BlockImpl_denseINS_5ArrayIiLin1ELin1ELi0ELin1ELin1EEELin1ELin1ELb0ELb1EEaSINS_13CwiseBinaryOpINS0_17scalar_product_opIiiEEKS3_S9_EEEERS4_RKNS_9DenseBaseIT_EE, symObjAddr: 0x8DAC, symBinAddr: 0x10000C090, symSize: 0x40 }
  - { offsetInCU: 0x32DF7, offset: 0x32DF7, size: 0x8, addend: 0x0, symName: __ZN5Eigen9DenseBaseINS_5BlockINS_5ArrayIiLin1ELin1ELi0ELin1ELin1EEELin1ELin1ELb0EEEEaSINS_13CwiseBinaryOpINS_8internal17scalar_product_opIiiEEKS3_SB_EEEERS4_RKNS0_IT_EE, symObjAddr: 0x8DEC, symBinAddr: 0x10000C0D0, symSize: 0x4C }
  - { offsetInCU: 0x32E37, offset: 0x32E37, size: 0x8, addend: 0x0, symName: __ZN5Eigen9EigenBaseINS_5BlockINS_5ArrayIiLin1ELin1ELi0ELin1ELin1EEELin1ELin1ELb0EEEE7derivedEv, symObjAddr: 0x8E88, symBinAddr: 0x10000C16C, symSize: 0x14 }
  - { offsetInCU: 0x32E5D, offset: 0x32E5D, size: 0x8, addend: 0x0, symName: __ZN5Eigen8internal10AssignmentINS_5BlockINS_5ArrayIiLin1ELin1ELi0ELin1ELin1EEELin1ELin1ELb0EEENS_13CwiseBinaryOpINS0_17scalar_product_opIiiEEKS4_S9_EENS0_9assign_opIiiEENS0_11Dense2DenseEvE3runERS5_RKSA_RKSC_, symObjAddr: 0x8F10, symBinAddr: 0x10000C1F4, symSize: 0x40 }
  - { offsetInCU: 0x32E9F, offset: 0x32E9F, size: 0x8, addend: 0x0, symName: __ZNK5Eigen7MapBaseINS_5BlockINS_5ArrayIiLin1ELin1ELi0ELin1ELin1EEELin1ELin1ELb0EEELi0EE4rowsEv, symObjAddr: 0x9090, symBinAddr: 0x10000C374, symSize: 0x28 }
  - { offsetInCU: 0x32EC5, offset: 0x32EC5, size: 0x8, addend: 0x0, symName: __ZNK5Eigen7MapBaseINS_5BlockINS_5ArrayIiLin1ELin1ELi0ELin1ELin1EEELin1ELin1ELb0EEELi0EE4colsEv, symObjAddr: 0x90B8, symBinAddr: 0x10000C39C, symSize: 0x28 }
  - { offsetInCU: 0x32EEB, offset: 0x32EEB, size: 0x8, addend: 0x0, symName: __ZN5Eigen8internal27checkTransposeAliasing_implINS_5BlockINS_5ArrayIiLin1ELin1ELi0ELin1ELin1EEELin1ELin1ELb0EEENS_13CwiseBinaryOpINS0_17scalar_product_opIiiEEKS4_S9_EELb0EE3runERKS5_RKSA_, symObjAddr: 0x90E0, symBinAddr: 0x10000C3C4, symSize: 0x14 }
  - { offsetInCU: 0x32F16, offset: 0x32F16, size: 0x8, addend: 0x0, symName: __ZN5Eigen8internal9evaluatorINS_13CwiseBinaryOpINS0_17scalar_product_opIiiEEKNS_5ArrayIiLin1ELin1ELi0ELin1ELin1EEES7_EEEC1ERKS8_, symObjAddr: 0x90F4, symBinAddr: 0x10000C3D8, symSize: 0x34 }
  - { offsetInCU: 0x32F4F, offset: 0x32F4F, size: 0x8, addend: 0x0, symName: __ZN5Eigen8internal9evaluatorINS_5BlockINS_5ArrayIiLin1ELin1ELi0ELin1ELin1EEELin1ELin1ELb0EEEEC1ERKS5_, symObjAddr: 0x9220, symBinAddr: 0x10000C504, symSize: 0x34 }
  - { offsetInCU: 0x32F88, offset: 0x32F88, size: 0x8, addend: 0x0, symName: __ZNK5Eigen9EigenBaseINS_5BlockINS_5ArrayIiLin1ELin1ELi0ELin1ELin1EEELin1ELin1ELb0EEEE18const_cast_derivedEv, symObjAddr: 0x9254, symBinAddr: 0x10000C538, symSize: 0x14 }
  - { offsetInCU: 0x32FAE, offset: 0x32FAE, size: 0x8, addend: 0x0, symName: __ZN5Eigen8internal31generic_dense_assignment_kernelINS0_9evaluatorINS_5BlockINS_5ArrayIiLin1ELin1ELi0ELin1ELin1EEELin1ELin1ELb0EEEEENS2_INS_13CwiseBinaryOpINS0_17scalar_product_opIiiEEKS5_SB_EEEENS0_9assign_opIiiEELi0EEC1ERS7_RKSD_RKSF_RS6_, symObjAddr: 0x9268, symBinAddr: 0x10000C54C, symSize: 0x4C }
  - { offsetInCU: 0x33014, offset: 0x33014, size: 0x8, addend: 0x0, symName: __ZN5Eigen8internal9evaluatorINS_5BlockINS_5ArrayIiLin1ELin1ELi0ELin1ELin1EEELin1ELin1ELb0EEEED1Ev, symObjAddr: 0x94C8, symBinAddr: 0x10000C7AC, symSize: 0x2C }
  - { offsetInCU: 0x33041, offset: 0x33041, size: 0x8, addend: 0x0, symName: __ZN5Eigen8internal9evaluatorINS_13CwiseBinaryOpINS0_17scalar_product_opIiiEEKNS_5ArrayIiLin1ELin1ELi0ELin1ELin1EEES7_EEED1Ev, symObjAddr: 0x94F4, symBinAddr: 0x10000C7D8, symSize: 0x2C }
  - { offsetInCU: 0x3306E, offset: 0x3306E, size: 0x8, addend: 0x0, symName: __ZN5Eigen8internal9evaluatorINS_13CwiseBinaryOpINS0_17scalar_product_opIiiEEKNS_5ArrayIiLin1ELin1ELi0ELin1ELin1EEES7_EEEC2ERKS8_, symObjAddr: 0x9520, symBinAddr: 0x10000C804, symSize: 0x34 }
  - { offsetInCU: 0x330A7, offset: 0x330A7, size: 0x8, addend: 0x0, symName: __ZN5Eigen8internal16binary_evaluatorINS_13CwiseBinaryOpINS0_17scalar_product_opIiiEEKNS_5ArrayIiLin1ELin1ELi0ELin1ELin1EEES7_EENS0_10IndexBasedES9_iiEC2ERKS8_, symObjAddr: 0x9554, symBinAddr: 0x10000C838, symSize: 0x64 }
  - { offsetInCU: 0x330E0, offset: 0x330E0, size: 0x8, addend: 0x0, symName: __ZN5Eigen8internal14evaluator_baseINS_13CwiseBinaryOpINS0_17scalar_product_opIiiEEKNS_5ArrayIiLin1ELin1ELi0ELin1ELin1EEES7_EEEC2Ev, symObjAddr: 0x95B8, symBinAddr: 0x10000C89C, symSize: 0x14 }
  - { offsetInCU: 0x3310A, offset: 0x3310A, size: 0x8, addend: 0x0, symName: __ZN5Eigen8internal16binary_evaluatorINS_13CwiseBinaryOpINS0_17scalar_product_opIiiEEKNS_5ArrayIiLin1ELin1ELi0ELin1ELin1EEES7_EENS0_10IndexBasedES9_iiE4DataC1ERKS8_, symObjAddr: 0x95CC, symBinAddr: 0x10000C8B0, symSize: 0x34 }
  - { offsetInCU: 0x33143, offset: 0x33143, size: 0x8, addend: 0x0, symName: __ZN5Eigen8internal14evaluator_baseINS_13CwiseBinaryOpINS0_17scalar_product_opIiiEEKNS_5ArrayIiLin1ELin1ELi0ELin1ELin1EEES7_EEED2Ev, symObjAddr: 0x9600, symBinAddr: 0x10000C8E4, symSize: 0x14 }
  - { offsetInCU: 0x3316D, offset: 0x3316D, size: 0x8, addend: 0x0, symName: __ZN5Eigen8internal16binary_evaluatorINS_13CwiseBinaryOpINS0_17scalar_product_opIiiEEKNS_5ArrayIiLin1ELin1ELi0ELin1ELin1EEES7_EENS0_10IndexBasedES9_iiE4DataC2ERKS8_, symObjAddr: 0x9614, symBinAddr: 0x10000C8F8, symSize: 0xA8 }
  - { offsetInCU: 0x331A6, offset: 0x331A6, size: 0x8, addend: 0x0, symName: __ZNK5Eigen13CwiseBinaryOpINS_8internal17scalar_product_opIiiEEKNS_5ArrayIiLin1ELin1ELi0ELin1ELin1EEES6_E7functorEv, symObjAddr: 0x96BC, symBinAddr: 0x10000C9A0, symSize: 0x18 }
  - { offsetInCU: 0x331CC, offset: 0x331CC, size: 0x8, addend: 0x0, symName: __ZNK5Eigen13CwiseBinaryOpINS_8internal17scalar_product_opIiiEEKNS_5ArrayIiLin1ELin1ELi0ELin1ELin1EEES6_E3lhsEv, symObjAddr: 0x96D4, symBinAddr: 0x10000C9B8, symSize: 0x18 }
  - { offsetInCU: 0x331F2, offset: 0x331F2, size: 0x8, addend: 0x0, symName: __ZN5Eigen8internal9evaluatorIKNS_5ArrayIiLin1ELin1ELi0ELin1ELin1EEEEC1ERS4_, symObjAddr: 0x96EC, symBinAddr: 0x10000C9D0, symSize: 0x34 }
  - { offsetInCU: 0x3322A, offset: 0x3322A, size: 0x8, addend: 0x0, symName: __ZNK5Eigen13CwiseBinaryOpINS_8internal17scalar_product_opIiiEEKNS_5ArrayIiLin1ELin1ELi0ELin1ELin1EEES6_E3rhsEv, symObjAddr: 0x9720, symBinAddr: 0x10000CA04, symSize: 0x18 }
  - { offsetInCU: 0x33250, offset: 0x33250, size: 0x8, addend: 0x0, symName: __ZN5Eigen8internal9evaluatorIKNS_5ArrayIiLin1ELin1ELi0ELin1ELin1EEEED1Ev, symObjAddr: 0x9738, symBinAddr: 0x10000CA1C, symSize: 0x2C }
  - { offsetInCU: 0x3327C, offset: 0x3327C, size: 0x8, addend: 0x0, symName: __ZN5Eigen8internal9evaluatorIKNS_5ArrayIiLin1ELin1ELi0ELin1ELin1EEEEC2ERS4_, symObjAddr: 0x9764, symBinAddr: 0x10000CA48, symSize: 0x34 }
  - { offsetInCU: 0x332B4, offset: 0x332B4, size: 0x8, addend: 0x0, symName: __ZN5Eigen8internal9evaluatorIKNS_5ArrayIiLin1ELin1ELi0ELin1ELin1EEEED2Ev, symObjAddr: 0x9798, symBinAddr: 0x10000CA7C, symSize: 0x2C }
  - { offsetInCU: 0x332E0, offset: 0x332E0, size: 0x8, addend: 0x0, symName: __ZNK5Eigen13CwiseBinaryOpINS_8internal17scalar_product_opIiiEEKNS_5ArrayIiLin1ELin1ELi0ELin1ELin1EEES6_E4rowsEv, symObjAddr: 0x97C4, symBinAddr: 0x10000CAA8, symSize: 0x28 }
  - { offsetInCU: 0x33306, offset: 0x33306, size: 0x8, addend: 0x0, symName: __ZNK5Eigen13CwiseBinaryOpINS_8internal17scalar_product_opIiiEEKNS_5ArrayIiLin1ELin1ELi0ELin1ELin1EEES6_E4colsEv, symObjAddr: 0x97EC, symBinAddr: 0x10000CAD0, symSize: 0x28 }
  - { offsetInCU: 0x3332C, offset: 0x3332C, size: 0x8, addend: 0x0, symName: __ZN5Eigen9DenseBaseINS_5BlockINS_5ArrayIiLin1ELin1ELi0ELin1ELin1EEELin1ELin1ELb0EEEE6resizeEll, symObjAddr: 0x9814, symBinAddr: 0x10000CAF8, symSize: 0xBC }
  - { offsetInCU: 0x33370, offset: 0x33370, size: 0x8, addend: 0x0, symName: __ZNK5Eigen9EigenBaseINS_5BlockINS_5ArrayIiLin1ELin1ELi0ELin1ELin1EEELin1ELin1ELb0EEEE4rowsEv, symObjAddr: 0x98D0, symBinAddr: 0x10000CBB4, symSize: 0x38 }
  - { offsetInCU: 0x33396, offset: 0x33396, size: 0x8, addend: 0x0, symName: __ZNK5Eigen9EigenBaseINS_5BlockINS_5ArrayIiLin1ELin1ELi0ELin1ELin1EEELin1ELin1ELb0EEEE4colsEv, symObjAddr: 0x9908, symBinAddr: 0x10000CBEC, symSize: 0x28 }
  - { offsetInCU: 0x333BC, offset: 0x333BC, size: 0x8, addend: 0x0, symName: __ZNK5Eigen9EigenBaseINS_5BlockINS_5ArrayIiLin1ELin1ELi0ELin1ELin1EEELin1ELin1ELb0EEEE7derivedEv, symObjAddr: 0x9930, symBinAddr: 0x10000CC14, symSize: 0x14 }
  - { offsetInCU: 0x333E2, offset: 0x333E2, size: 0x8, addend: 0x0, symName: __ZN5Eigen8internal9evaluatorINS_5BlockINS_5ArrayIiLin1ELin1ELi0ELin1ELin1EEELin1ELin1ELb0EEEEC2ERKS5_, symObjAddr: 0x9944, symBinAddr: 0x10000CC28, symSize: 0x34 }
  - { offsetInCU: 0x3341B, offset: 0x3341B, size: 0x8, addend: 0x0, symName: __ZN5Eigen8internal15block_evaluatorINS_5ArrayIiLin1ELin1ELi0ELin1ELin1EEELin1ELin1ELb0ELb1EEC2ERKNS_5BlockIS3_Lin1ELin1ELb0EEE, symObjAddr: 0x9978, symBinAddr: 0x10000CC5C, symSize: 0xDC }
  - { offsetInCU: 0x33454, offset: 0x33454, size: 0x8, addend: 0x0, symName: __ZN5Eigen8internal17mapbase_evaluatorINS_5BlockINS_5ArrayIiLin1ELin1ELi0ELin1ELin1EEELin1ELin1ELb0EEES4_EC2ERKS5_, symObjAddr: 0x9A54, symBinAddr: 0x10000CD38, symSize: 0xB0 }
  - { offsetInCU: 0x3348D, offset: 0x3348D, size: 0x8, addend: 0x0, symName: __ZNK5Eigen7MapBaseINS_5BlockINS_5ArrayIiLin1ELin1ELi0ELin1ELin1EEELin1ELin1ELb0EEELi1EE4dataEv, symObjAddr: 0x9B04, symBinAddr: 0x10000CDE8, symSize: 0x18 }
  - { offsetInCU: 0x334B3, offset: 0x334B3, size: 0x8, addend: 0x0, symName: __ZN5Eigen8internal17mapbase_evaluatorINS_5BlockINS_5ArrayIiLin1ELin1ELi0ELin1ELin1EEELin1ELin1ELb0EEES4_ED2Ev, symObjAddr: 0x9B1C, symBinAddr: 0x10000CE00, symSize: 0x2C }
  - { offsetInCU: 0x334E0, offset: 0x334E0, size: 0x8, addend: 0x0, symName: __ZN5Eigen8internal14evaluator_baseINS_5BlockINS_5ArrayIiLin1ELin1ELi0ELin1ELin1EEELin1ELin1ELb0EEEEC2Ev, symObjAddr: 0x9B48, symBinAddr: 0x10000CE2C, symSize: 0x14 }
  - { offsetInCU: 0x3350A, offset: 0x3350A, size: 0x8, addend: 0x0, symName: __ZNK5Eigen8internal15BlockImpl_denseINS_5ArrayIiLin1ELin1ELi0ELin1ELin1EEELin1ELin1ELb0ELb1EE11innerStrideEv, symObjAddr: 0x9B5C, symBinAddr: 0x10000CE40, symSize: 0x28 }
  - { offsetInCU: 0x33530, offset: 0x33530, size: 0x8, addend: 0x0, symName: __ZNK5Eigen8internal15BlockImpl_denseINS_5ArrayIiLin1ELin1ELi0ELin1ELin1EEELin1ELin1ELb0ELb1EE11outerStrideEv, symObjAddr: 0x9B84, symBinAddr: 0x10000CE68, symSize: 0x28 }
  - { offsetInCU: 0x33556, offset: 0x33556, size: 0x8, addend: 0x0, symName: __ZN5Eigen8internal14evaluator_baseINS_5BlockINS_5ArrayIiLin1ELin1ELi0ELin1ELin1EEELin1ELin1ELb0EEEED2Ev, symObjAddr: 0x9BAC, symBinAddr: 0x10000CE90, symSize: 0x14 }
  - { offsetInCU: 0x33580, offset: 0x33580, size: 0x8, addend: 0x0, symName: __ZN5Eigen8internal31generic_dense_assignment_kernelINS0_9evaluatorINS_5BlockINS_5ArrayIiLin1ELin1ELi0ELin1ELin1EEELin1ELin1ELb0EEEEENS2_INS_13CwiseBinaryOpINS0_17scalar_product_opIiiEEKS5_SB_EEEENS0_9assign_opIiiEELi0EEC2ERS7_RKSD_RKSF_RS6_, symObjAddr: 0x9BC0, symBinAddr: 0x10000CEA4, symSize: 0x44 }
  - { offsetInCU: 0x335E6, offset: 0x335E6, size: 0x8, addend: 0x0, symName: __ZNK5Eigen8internal31generic_dense_assignment_kernelINS0_9evaluatorINS_5BlockINS_5ArrayIiLin1ELin1ELi0ELin1ELin1EEELin1ELin1ELb0EEEEENS2_INS_13CwiseBinaryOpINS0_17scalar_product_opIiiEEKS5_SB_EEEENS0_9assign_opIiiEELi0EE10dstDataPtrEv, symObjAddr: 0x9C04, symBinAddr: 0x10000CEE8, symSize: 0x28 }
  - { offsetInCU: 0x3360C, offset: 0x3360C, size: 0x8, addend: 0x0, symName: __ZN5Eigen8internal21dense_assignment_loopINS0_31generic_dense_assignment_kernelINS0_9evaluatorINS_5BlockINS_5ArrayIiLin1ELin1ELi0ELin1ELin1EEELin1ELin1ELb0EEEEENS3_INS_13CwiseBinaryOpINS0_17scalar_product_opIiiEEKS6_SC_EEEENS0_9assign_opIiiEELi0EEELi0ELi0EE3runERSH_, symObjAddr: 0x9C2C, symBinAddr: 0x10000CF10, symSize: 0xAC }
  - { offsetInCU: 0x3366A, offset: 0x3366A, size: 0x8, addend: 0x0, symName: __ZNK5Eigen8internal31generic_dense_assignment_kernelINS0_9evaluatorINS_5BlockINS_5ArrayIiLin1ELin1ELi0ELin1ELin1EEELin1ELin1ELb0EEEEENS2_INS_13CwiseBinaryOpINS0_17scalar_product_opIiiEEKS5_SB_EEEENS0_9assign_opIiiEELi0EE9innerSizeEv, symObjAddr: 0x9CD8, symBinAddr: 0x10000CFBC, symSize: 0x38 }
  - { offsetInCU: 0x33690, offset: 0x33690, size: 0x8, addend: 0x0, symName: __ZNK5Eigen8internal31generic_dense_assignment_kernelINS0_9evaluatorINS_5BlockINS_5ArrayIiLin1ELin1ELi0ELin1ELin1EEELin1ELin1ELb0EEEEENS2_INS_13CwiseBinaryOpINS0_17scalar_product_opIiiEEKS5_SB_EEEENS0_9assign_opIiiEELi0EE9outerSizeEv, symObjAddr: 0x9D10, symBinAddr: 0x10000CFF4, symSize: 0x38 }
  - { offsetInCU: 0x336B6, offset: 0x336B6, size: 0x8, addend: 0x0, symName: __ZNK5Eigen8internal31generic_dense_assignment_kernelINS0_9evaluatorINS_5BlockINS_5ArrayIiLin1ELin1ELi0ELin1ELin1EEELin1ELin1ELb0EEEEENS2_INS_13CwiseBinaryOpINS0_17scalar_product_opIiiEEKS5_SB_EEEENS0_9assign_opIiiEELi0EE11outerStrideEv, symObjAddr: 0x9D48, symBinAddr: 0x10000D02C, symSize: 0x28 }
  - { offsetInCU: 0x336DC, offset: 0x336DC, size: 0x8, addend: 0x0, symName: __ZN5Eigen8internal31generic_dense_assignment_kernelINS0_9evaluatorINS_5BlockINS_5ArrayIiLin1ELin1ELi0ELin1ELin1EEELin1ELin1ELb0EEEEENS2_INS_13CwiseBinaryOpINS0_17scalar_product_opIiiEEKS5_SB_EEEENS0_9assign_opIiiEELi0EE23assignCoeffByOuterInnerEll, symObjAddr: 0x9E14, symBinAddr: 0x10000D0F8, symSize: 0x60 }
  - { offsetInCU: 0x3374C, offset: 0x3374C, size: 0x8, addend: 0x0, symName: __ZN5Eigen8internal31generic_dense_assignment_kernelINS0_9evaluatorINS_5BlockINS_5ArrayIiLin1ELin1ELi0ELin1ELin1EEELin1ELin1ELb0EEEEENS2_INS_13CwiseBinaryOpINS0_17scalar_product_opIiiEEKS5_SB_EEEENS0_9assign_opIiiEELi0EE24assignPacketByOuterInnerILi16ELi0E17__simd128_int32_tEEvll, symObjAddr: 0x9E74, symBinAddr: 0x10000D158, symSize: 0x60 }
  - { offsetInCU: 0x337CB, offset: 0x337CB, size: 0x8, addend: 0x0, symName: __ZN5Eigen7MapBaseINS_5BlockINS_5ArrayIiLin1ELin1ELi0ELin1ELin1EEELin1ELin1ELb0EEELi1EE4dataEv, symObjAddr: 0x9ED4, symBinAddr: 0x10000D1B8, symSize: 0x18 }
  - { offsetInCU: 0x337F1, offset: 0x337F1, size: 0x8, addend: 0x0, symName: __ZNK5Eigen9DenseBaseINS_5BlockINS_5ArrayIiLin1ELin1ELi0ELin1ELin1EEELin1ELin1ELb0EEEE9innerSizeEv, symObjAddr: 0x9EEC, symBinAddr: 0x10000D1D0, symSize: 0x24 }
  - { offsetInCU: 0x33817, offset: 0x33817, size: 0x8, addend: 0x0, symName: __ZNK5Eigen9DenseBaseINS_5BlockINS_5ArrayIiLin1ELin1ELi0ELin1ELin1EEELin1ELin1ELb0EEEE9outerSizeEv, symObjAddr: 0x9F10, symBinAddr: 0x10000D1F4, symSize: 0x24 }
  - { offsetInCU: 0x3383D, offset: 0x3383D, size: 0x8, addend: 0x0, symName: __ZN5Eigen8internal31generic_dense_assignment_kernelINS0_9evaluatorINS_5BlockINS_5ArrayIiLin1ELin1ELi0ELin1ELin1EEELin1ELin1ELb0EEEEENS2_INS_13CwiseBinaryOpINS0_17scalar_product_opIiiEEKS5_SB_EEEENS0_9assign_opIiiEELi0EE20rowIndexByOuterInnerEll, symObjAddr: 0x9F34, symBinAddr: 0x10000D218, symSize: 0x18 }
  - { offsetInCU: 0x33870, offset: 0x33870, size: 0x8, addend: 0x0, symName: __ZN5Eigen8internal31generic_dense_assignment_kernelINS0_9evaluatorINS_5BlockINS_5ArrayIiLin1ELin1ELi0ELin1ELin1EEELin1ELin1ELb0EEEEENS2_INS_13CwiseBinaryOpINS0_17scalar_product_opIiiEEKS5_SB_EEEENS0_9assign_opIiiEELi0EE20colIndexByOuterInnerEll, symObjAddr: 0x9F4C, symBinAddr: 0x10000D230, symSize: 0x18 }
  - { offsetInCU: 0x338A3, offset: 0x338A3, size: 0x8, addend: 0x0, symName: __ZN5Eigen8internal31generic_dense_assignment_kernelINS0_9evaluatorINS_5BlockINS_5ArrayIiLin1ELin1ELi0ELin1ELin1EEELin1ELin1ELb0EEEEENS2_INS_13CwiseBinaryOpINS0_17scalar_product_opIiiEEKS5_SB_EEEENS0_9assign_opIiiEELi0EE11assignCoeffEll, symObjAddr: 0x9F64, symBinAddr: 0x10000D248, symSize: 0x74 }
  - { offsetInCU: 0x338E7, offset: 0x338E7, size: 0x8, addend: 0x0, symName: __ZN5Eigen8internal17mapbase_evaluatorINS_5BlockINS_5ArrayIiLin1ELin1ELi0ELin1ELin1EEELin1ELin1ELb0EEES4_E8coeffRefEll, symObjAddr: 0x9FD8, symBinAddr: 0x10000D2BC, symSize: 0x78 }
  - { offsetInCU: 0x3392B, offset: 0x3392B, size: 0x8, addend: 0x0, symName: __ZNK5Eigen8internal16binary_evaluatorINS_13CwiseBinaryOpINS0_17scalar_product_opIiiEEKNS_5ArrayIiLin1ELin1ELi0ELin1ELin1EEES7_EENS0_10IndexBasedES9_iiE5coeffEll, symObjAddr: 0xA050, symBinAddr: 0x10000D334, symSize: 0x70 }
  - { offsetInCU: 0x3396F, offset: 0x3396F, size: 0x8, addend: 0x0, symName: __ZNK5Eigen8internal17mapbase_evaluatorINS_5BlockINS_5ArrayIiLin1ELin1ELi0ELin1ELin1EEELin1ELin1ELb0EEES4_E9colStrideEv, symObjAddr: 0xA0C0, symBinAddr: 0x10000D3A4, symSize: 0x28 }
  - { offsetInCU: 0x33995, offset: 0x33995, size: 0x8, addend: 0x0, symName: __ZNK5Eigen8internal17mapbase_evaluatorINS_5BlockINS_5ArrayIiLin1ELin1ELi0ELin1ELin1EEELin1ELin1ELb0EEES4_E9rowStrideEv, symObjAddr: 0xA0E8, symBinAddr: 0x10000D3CC, symSize: 0x20 }
  - { offsetInCU: 0x339BB, offset: 0x339BB, size: 0x8, addend: 0x0, symName: __ZNK5Eigen8internal16binary_evaluatorINS_13CwiseBinaryOpINS0_17scalar_product_opIiiEEKNS_5ArrayIiLin1ELin1ELi0ELin1ELin1EEES7_EENS0_10IndexBasedES9_iiE4Data4funcEv, symObjAddr: 0xA108, symBinAddr: 0x10000D3EC, symSize: 0x14 }
  - { offsetInCU: 0x339E1, offset: 0x339E1, size: 0x8, addend: 0x0, symName: __ZNK5Eigen8internal17scalar_product_opIiiEclERKiS4_, symObjAddr: 0xA11C, symBinAddr: 0x10000D400, symSize: 0x2C }
  - { offsetInCU: 0x33A23, offset: 0x33A23, size: 0x8, addend: 0x0, symName: __ZNK5Eigen8internal9evaluatorINS_15PlainObjectBaseINS_5ArrayIiLin1ELin1ELi0ELin1ELin1EEEEEE5coeffEll, symObjAddr: 0xA148, symBinAddr: 0x10000D42C, symSize: 0x5C }
  - { offsetInCU: 0x33A65, offset: 0x33A65, size: 0x8, addend: 0x0, symName: __ZN5Eigen8internal31generic_dense_assignment_kernelINS0_9evaluatorINS_5BlockINS_5ArrayIiLin1ELin1ELi0ELin1ELin1EEELin1ELin1ELb0EEEEENS2_INS_13CwiseBinaryOpINS0_17scalar_product_opIiiEEKS5_SB_EEEENS0_9assign_opIiiEELi0EE12assignPacketILi16ELi0E17__simd128_int32_tEEvll, symObjAddr: 0xA1A4, symBinAddr: 0x10000D488, symSize: 0x70 }
  - { offsetInCU: 0x33AD0, offset: 0x33AD0, size: 0x8, addend: 0x0, symName: __ZNK5Eigen8internal9assign_opIiiE12assignPacketILi16E17__simd128_int32_tEEvPiRKT0_, symObjAddr: 0xA214, symBinAddr: 0x10000D4F8, symSize: 0x40 }
  - { offsetInCU: 0x33B4B, offset: 0x33B4B, size: 0x8, addend: 0x0, symName: __ZNK5Eigen8internal16binary_evaluatorINS_13CwiseBinaryOpINS0_17scalar_product_opIiiEEKNS_5ArrayIiLin1ELin1ELi0ELin1ELin1EEES7_EENS0_10IndexBasedES9_iiE6packetILi0E17__simd128_int32_tEET0_ll, symObjAddr: 0xA254, symBinAddr: 0x10000D538, symSize: 0x7C }
  - { offsetInCU: 0x33BA2, offset: 0x33BA2, size: 0x8, addend: 0x0, symName: __ZNK5Eigen8internal17scalar_product_opIiiE8packetOpI17__simd128_int32_tEET_RKS5_S7_, symObjAddr: 0xA2FC, symBinAddr: 0x10000D5E0, symSize: 0x30 }
  - { offsetInCU: 0x33BF7, offset: 0x33BF7, size: 0x8, addend: 0x0, symName: __ZNK5Eigen8internal9evaluatorINS_15PlainObjectBaseINS_5ArrayIiLin1ELin1ELi0ELin1ELin1EEEEEE6packetILi0E17__simd128_int32_tEET0_ll, symObjAddr: 0xA32C, symBinAddr: 0x10000D610, symSize: 0x60 }
  - { offsetInCU: 0x33C6A, offset: 0x33C6A, size: 0x8, addend: 0x0, symName: __ZN5Eigen8internal9evaluatorINS_5BlockINS_5ArrayIiLin1ELin1ELi0ELin1ELin1EEELin1ELin1ELb0EEEED2Ev, symObjAddr: 0xA3F4, symBinAddr: 0x10000D6D8, symSize: 0x2C }
  - { offsetInCU: 0x33C97, offset: 0x33C97, size: 0x8, addend: 0x0, symName: __ZN5Eigen8internal15block_evaluatorINS_5ArrayIiLin1ELin1ELi0ELin1ELin1EEELin1ELin1ELb0ELb1EED2Ev, symObjAddr: 0xA420, symBinAddr: 0x10000D704, symSize: 0x2C }
  - { offsetInCU: 0x33CC4, offset: 0x33CC4, size: 0x8, addend: 0x0, symName: __ZN5Eigen8internal9evaluatorINS_13CwiseBinaryOpINS0_17scalar_product_opIiiEEKNS_5ArrayIiLin1ELin1ELi0ELin1ELin1EEES7_EEED2Ev, symObjAddr: 0xA44C, symBinAddr: 0x10000D730, symSize: 0x2C }
  - { offsetInCU: 0x33CF1, offset: 0x33CF1, size: 0x8, addend: 0x0, symName: __ZN5Eigen8internal16binary_evaluatorINS_13CwiseBinaryOpINS0_17scalar_product_opIiiEEKNS_5ArrayIiLin1ELin1ELi0ELin1ELin1EEES7_EENS0_10IndexBasedES9_iiED2Ev, symObjAddr: 0xA478, symBinAddr: 0x10000D75C, symSize: 0x34 }
  - { offsetInCU: 0x33D1D, offset: 0x33D1D, size: 0x8, addend: 0x0, symName: __ZN5Eigen8internal16binary_evaluatorINS_13CwiseBinaryOpINS0_17scalar_product_opIiiEEKNS_5ArrayIiLin1ELin1ELi0ELin1ELin1EEES7_EENS0_10IndexBasedES9_iiE4DataD1Ev, symObjAddr: 0xA4AC, symBinAddr: 0x10000D790, symSize: 0x2C }
  - { offsetInCU: 0x33D4A, offset: 0x33D4A, size: 0x8, addend: 0x0, symName: __ZN5Eigen8internal16binary_evaluatorINS_13CwiseBinaryOpINS0_17scalar_product_opIiiEEKNS_5ArrayIiLin1ELin1ELi0ELin1ELin1EEES7_EENS0_10IndexBasedES9_iiE4DataD2Ev, symObjAddr: 0xA4D8, symBinAddr: 0x10000D7BC, symSize: 0x3C }
  - { offsetInCU: 0x33D77, offset: 0x33D77, size: 0x8, addend: 0x0, symName: __ZNSt3__123mersenne_twister_engineIjLm32ELm624ELm397ELm31ELj2567483615ELm11ELj4294967295ELm7ELj2636928640ELm15ELj4022730752ELm18ELj1812433253EEC2B8ue170006Ej, symObjAddr: 0xA514, symBinAddr: 0x10000D7F8, symSize: 0x34 }
  - { offsetInCU: 0x33DAF, offset: 0x33DAF, size: 0x8, addend: 0x0, symName: __ZNSt3__123mersenne_twister_engineIjLm32ELm624ELm397ELm31ELj2567483615ELm11ELj4294967295ELm7ELj2636928640ELm15ELj4022730752ELm18ELj1812433253EE4seedEj, symObjAddr: 0xA548, symBinAddr: 0x10000D82C, symSize: 0xC4 }
  - { offsetInCU: 0x33E02, offset: 0x33E02, size: 0x8, addend: 0x0, symName: __ZNSt3__123mersenne_twister_engineIjLm32ELm624ELm397ELm31ELj2567483615ELm11ELj4294967295ELm7ELj2636928640ELm15ELj4022730752ELm18ELj1812433253EE8__rshiftB8ue170006ILm30EEENS_9enable_ifIXltT_L_ZNS1_3_DtEEEjE4typeEj, symObjAddr: 0xA60C, symBinAddr: 0x10000D8F0, symSize: 0x18 }
  - { offsetInCU: 0x33E2F, offset: 0x33E2F, size: 0x8, addend: 0x0, symName: __ZN5Eigen5ArrayIiLin1ELi1ELi0ELin1ELi1EEC2IiEERKT_, symObjAddr: 0xA624, symBinAddr: 0x10000D908, symSize: 0x70 }
  - { offsetInCU: 0x33E70, offset: 0x33E70, size: 0x8, addend: 0x0, symName: __ZN5Eigen15PlainObjectBaseINS_5ArrayIiLin1ELi1ELi0ELin1ELi1EEEEC2Ev, symObjAddr: 0xA694, symBinAddr: 0x10000D978, symSize: 0x34 }
  - { offsetInCU: 0x33E9A, offset: 0x33E9A, size: 0x8, addend: 0x0, symName: __ZN5Eigen15PlainObjectBaseINS_5ArrayIiLin1ELi1ELi0ELin1ELi1EEEE6_init1IiEEvlPNS_8internal9enable_ifIXaaooneLNS_9DenseBaseIS2_EUt_En1ELi1Entsr8internal14is_convertibleIT_iEE5valueoontLNS5_7is_sameINS_8ArrayXprESC_EUt_E1EeqLS9_n1EL_ZNS_L7DynamicEEESA_E4typeE, symObjAddr: 0xA6C8, symBinAddr: 0x10000D9AC, symSize: 0x48 }
  - { offsetInCU: 0x33EF2, offset: 0x33EF2, size: 0x8, addend: 0x0, symName: __ZN5Eigen15PlainObjectBaseINS_5ArrayIiLin1ELi1ELi0ELin1ELi1EEEE6resizeEl, symObjAddr: 0xA720, symBinAddr: 0x10000DA04, symSize: 0x74 }
  - { offsetInCU: 0x33F27, offset: 0x33F27, size: 0x8, addend: 0x0, symName: __ZN5Eigen16CommaInitializerINS_5ArrayIiLin1ELi1ELi0ELin1ELi1EEEEC1ERS2_RKi, symObjAddr: 0xA794, symBinAddr: 0x10000DA78, symSize: 0x3C }
  - { offsetInCU: 0x33F6D, offset: 0x33F6D, size: 0x8, addend: 0x0, symName: __ZN5Eigen16CommaInitializerINS_5ArrayIiLin1ELi1ELi0ELin1ELi1EEEEC2ERS2_RKi, symObjAddr: 0xA7D0, symBinAddr: 0x10000DAB4, symSize: 0xF8 }
  - { offsetInCU: 0x33FB3, offset: 0x33FB3, size: 0x8, addend: 0x0, symName: __ZN5Eigen15PlainObjectBaseINS_5ArrayIiLin1ELi1ELi0ELin1ELi1EEEE8coeffRefEll, symObjAddr: 0xA8C8, symBinAddr: 0x10000DBAC, symSize: 0x6C }
  - { offsetInCU: 0x33FF5, offset: 0x33FF5, size: 0x8, addend: 0x0, symName: __ZN5Eigen12DenseStorageIiLin1ELin1ELi1ELi0EE4dataEv, symObjAddr: 0xA934, symBinAddr: 0x10000DC18, symSize: 0x18 }
  - { offsetInCU: 0x3401B, offset: 0x3401B, size: 0x8, addend: 0x0, symName: __ZN5Eigen16CommaInitializerINS_5ArrayIiLin1ELi1ELi0ELin1ELi1EEEED2Ev, symObjAddr: 0xA94C, symBinAddr: 0x10000DC30, symSize: 0x34 }
  - { offsetInCU: 0x34045, offset: 0x34045, size: 0x8, addend: 0x0, symName: __ZN5Eigen16CommaInitializerINS_5ArrayIiLin1ELi1ELi0ELin1ELi1EEEE8finishedEv, symObjAddr: 0xA980, symBinAddr: 0x10000DC64, symSize: 0xE8 }
  - { offsetInCU: 0x3407F, offset: 0x3407F, size: 0x8, addend: 0x0, symName: __ZNK5Eigen9DenseBaseINS_5ArrayIiLin1ELi1ELi0ELin1ELi1EEEE5reduxINS_8internal13scalar_sum_opIiiEEEEiRKT_, symObjAddr: 0xAA68, symBinAddr: 0x10000DD4C, symSize: 0x10C }
  - { offsetInCU: 0x340DB, offset: 0x340DB, size: 0x8, addend: 0x0, symName: __ZN5Eigen8internal13scalar_sum_opIiiEC1Ev, symObjAddr: 0xAB74, symBinAddr: 0x10000DE58, symSize: 0x2C }
  - { offsetInCU: 0x3411E, offset: 0x3411E, size: 0x8, addend: 0x0, symName: __ZN5Eigen8internal15redux_evaluatorINS_5ArrayIiLin1ELi1ELi0ELin1ELi1EEEEC1ERKS3_, symObjAddr: 0xABA0, symBinAddr: 0x10000DE84, symSize: 0x34 }
  - { offsetInCU: 0x3415C, offset: 0x3415C, size: 0x8, addend: 0x0, symName: __ZN5Eigen8internal10redux_implINS0_13scalar_sum_opIiiEENS0_15redux_evaluatorINS_5ArrayIiLin1ELi1ELi0ELin1ELi1EEEEELi3ELi0EE3runIS6_EEiRKS7_RKS3_RKT_, symObjAddr: 0xABD4, symBinAddr: 0x10000DEB8, symSize: 0x340 }
  - { offsetInCU: 0x342D8, offset: 0x342D8, size: 0x8, addend: 0x0, symName: __ZN5Eigen8internal15redux_evaluatorINS_5ArrayIiLin1ELi1ELi0ELin1ELi1EEEED1Ev, symObjAddr: 0xAF14, symBinAddr: 0x10000E1F8, symSize: 0x2C }
  - { offsetInCU: 0x34305, offset: 0x34305, size: 0x8, addend: 0x0, symName: __ZN5Eigen8internal15redux_evaluatorINS_5ArrayIiLin1ELi1ELi0ELin1ELi1EEEEC2ERKS3_, symObjAddr: 0xAF40, symBinAddr: 0x10000E224, symSize: 0x34 }
  - { offsetInCU: 0x3433E, offset: 0x3433E, size: 0x8, addend: 0x0, symName: __ZNK5Eigen8internal9evaluatorINS_15PlainObjectBaseINS_5ArrayIiLin1ELi1ELi0ELin1ELi1EEEEEE6packetILi16E17__simd128_int32_tEET0_l, symObjAddr: 0xAF98, symBinAddr: 0x10000E27C, symSize: 0x3C }
  - { offsetInCU: 0x343A3, offset: 0x343A3, size: 0x8, addend: 0x0, symName: __ZNK5Eigen8internal13scalar_sum_opIiiE8packetOpI17__simd128_int32_tEET_RKS5_S7_, symObjAddr: 0xAFD4, symBinAddr: 0x10000E2B8, symSize: 0x30 }
  - { offsetInCU: 0x343EE, offset: 0x343EE, size: 0x8, addend: 0x0, symName: __ZNK5Eigen8internal13scalar_sum_opIiiE6preduxI17__simd128_int32_tEEiRKT_, symObjAddr: 0xB004, symBinAddr: 0x10000E2E8, symSize: 0x28 }
  - { offsetInCU: 0x3442B, offset: 0x3442B, size: 0x8, addend: 0x0, symName: __ZNK5Eigen8internal13scalar_sum_opIiiEclERKiS4_, symObjAddr: 0xB02C, symBinAddr: 0x10000E310, symSize: 0x2C }
  - { offsetInCU: 0x3446D, offset: 0x3446D, size: 0x8, addend: 0x0, symName: __ZN5Eigen8internal18first_aligned_implILi16ENS_5ArrayIiLin1ELi1ELi0ELin1ELi1EEELb1EE3runERKS3_, symObjAddr: 0xB080, symBinAddr: 0x10000E364, symSize: 0x14 }
  - { offsetInCU: 0x3448D, offset: 0x3448D, size: 0x8, addend: 0x0, symName: __ZN5Eigen8internal15redux_evaluatorINS_5ArrayIiLin1ELi1ELi0ELin1ELi1EEEED2Ev, symObjAddr: 0xB1A8, symBinAddr: 0x10000E48C, symSize: 0x2C }
  - { offsetInCU: 0x344BA, offset: 0x344BA, size: 0x8, addend: 0x0, symName: __ZN5Eigen8internal13scalar_sum_opIiiEC2Ev, symObjAddr: 0xB1D4, symBinAddr: 0x10000E4B8, symSize: 0x14 }
  - { offsetInCU: 0x344E4, offset: 0x344E4, size: 0x8, addend: 0x0, symName: __ZN5Eigen9DenseBaseINS_5ArrayIiLin1ELin1ELi0ELin1ELin1EEEE11NullaryExprINS_8internal18scalar_constant_opIiEEEEKNS_14CwiseNullaryOpIT_S2_EEllRKS9_, symObjAddr: 0xB1E8, symBinAddr: 0x10000E4CC, symSize: 0x48 }
  - { offsetInCU: 0x34531, offset: 0x34531, size: 0x8, addend: 0x0, symName: __ZN5Eigen8internal18scalar_constant_opIiEC1ERKi, symObjAddr: 0xB230, symBinAddr: 0x10000E514, symSize: 0x34 }
  - { offsetInCU: 0x34569, offset: 0x34569, size: 0x8, addend: 0x0, symName: __ZN5Eigen14CwiseNullaryOpINS_8internal18scalar_constant_opIiEENS_5ArrayIiLin1ELin1ELi0ELin1ELin1EEEEC1EllRKS3_, symObjAddr: 0xB264, symBinAddr: 0x10000E548, symSize: 0x44 }
  - { offsetInCU: 0x345BD, offset: 0x345BD, size: 0x8, addend: 0x0, symName: __ZN5Eigen14CwiseNullaryOpINS_8internal18scalar_constant_opIiEENS_5ArrayIiLin1ELin1ELi0ELin1ELin1EEEEC2EllRKS3_, symObjAddr: 0xB2A8, symBinAddr: 0x10000E58C, symSize: 0xDC }
  - { offsetInCU: 0x34611, offset: 0x34611, size: 0x8, addend: 0x0, symName: __ZN5Eigen9ArrayBaseINS_14CwiseNullaryOpINS_8internal18scalar_constant_opIiEENS_5ArrayIiLin1ELin1ELi0ELin1ELin1EEEEEEC2Ev, symObjAddr: 0xB384, symBinAddr: 0x10000E668, symSize: 0x2C }
  - { offsetInCU: 0x3463B, offset: 0x3463B, size: 0x8, addend: 0x0, symName: __ZN5Eigen8internal18scalar_constant_opIiEC1ERKS2_, symObjAddr: 0xB3B0, symBinAddr: 0x10000E694, symSize: 0x34 }
  - { offsetInCU: 0x34673, offset: 0x34673, size: 0x8, addend: 0x0, symName: __ZN5Eigen9DenseBaseINS_14CwiseNullaryOpINS_8internal18scalar_constant_opIiEENS_5ArrayIiLin1ELin1ELi0ELin1ELin1EEEEEEC2Ev, symObjAddr: 0xB3E4, symBinAddr: 0x10000E6C8, symSize: 0x14 }
  - { offsetInCU: 0x3469D, offset: 0x3469D, size: 0x8, addend: 0x0, symName: __ZN5Eigen8internal18scalar_constant_opIiEC2ERKS2_, symObjAddr: 0xB3F8, symBinAddr: 0x10000E6DC, symSize: 0x24 }
  - { offsetInCU: 0x346D5, offset: 0x346D5, size: 0x8, addend: 0x0, symName: __ZN5Eigen8internal18scalar_constant_opIiEC2ERKi, symObjAddr: 0xB41C, symBinAddr: 0x10000E700, symSize: 0x24 }
  - { offsetInCU: 0x3470D, offset: 0x3470D, size: 0x8, addend: 0x0, symName: __ZN5Eigen5ArrayIiLin1ELin1ELi0ELin1ELin1EEC2INS_14CwiseNullaryOpINS_8internal18scalar_constant_opIiEES1_EEEERKNS_9EigenBaseIT_EENS4_9enable_ifIXsr8internal14is_convertibleINS9_6ScalarEiEE5valueENS1_11PrivateTypeEE4typeE, symObjAddr: 0xB440, symBinAddr: 0x10000E724, symSize: 0x40 }
  - { offsetInCU: 0x3475A, offset: 0x3475A, size: 0x8, addend: 0x0, symName: __ZNK5Eigen9EigenBaseINS_14CwiseNullaryOpINS_8internal18scalar_constant_opIiEENS_5ArrayIiLin1ELin1ELi0ELin1ELin1EEEEEE7derivedEv, symObjAddr: 0xB480, symBinAddr: 0x10000E764, symSize: 0x14 }
  - { offsetInCU: 0x34780, offset: 0x34780, size: 0x8, addend: 0x0, symName: __ZN5Eigen15PlainObjectBaseINS_5ArrayIiLin1ELin1ELi0ELin1ELin1EEEEC2INS_14CwiseNullaryOpINS_8internal18scalar_constant_opIiEES2_EEEERKNS_9DenseBaseIT_EE, symObjAddr: 0xB494, symBinAddr: 0x10000E778, symSize: 0x80 }
  - { offsetInCU: 0x347C2, offset: 0x347C2, size: 0x8, addend: 0x0, symName: __ZN5Eigen15PlainObjectBaseINS_5ArrayIiLin1ELin1ELi0ELin1ELin1EEEE10resizeLikeINS_14CwiseNullaryOpINS_8internal18scalar_constant_opIiEES2_EEEEvRKNS_9EigenBaseIT_EE, symObjAddr: 0xB514, symBinAddr: 0x10000E7F8, symSize: 0x11C }
  - { offsetInCU: 0x34856, offset: 0x34856, size: 0x8, addend: 0x0, symName: __ZN5Eigen15PlainObjectBaseINS_5ArrayIiLin1ELin1ELi0ELin1ELin1EEEE12_set_noaliasINS_14CwiseNullaryOpINS_8internal18scalar_constant_opIiEES2_EEEERS2_RKNS_9DenseBaseIT_EE, symObjAddr: 0xB630, symBinAddr: 0x10000E914, symSize: 0x60 }
  - { offsetInCU: 0x34894, offset: 0x34894, size: 0x8, addend: 0x0, symName: __ZNK5Eigen14CwiseNullaryOpINS_8internal18scalar_constant_opIiEENS_5ArrayIiLin1ELin1ELi0ELin1ELin1EEEE4rowsEv, symObjAddr: 0xB690, symBinAddr: 0x10000E974, symSize: 0x24 }
  - { offsetInCU: 0x348BA, offset: 0x348BA, size: 0x8, addend: 0x0, symName: __ZNK5Eigen14CwiseNullaryOpINS_8internal18scalar_constant_opIiEENS_5ArrayIiLin1ELin1ELi0ELin1ELin1EEEE4colsEv, symObjAddr: 0xB6B4, symBinAddr: 0x10000E998, symSize: 0x28 }
  - { offsetInCU: 0x348E0, offset: 0x348E0, size: 0x8, addend: 0x0, symName: __ZN5Eigen8internal10AssignmentINS_5ArrayIiLin1ELin1ELi0ELin1ELin1EEENS_14CwiseNullaryOpINS0_18scalar_constant_opIiEES3_EENS0_9assign_opIiiEENS0_11Dense2DenseEvE3runERS3_RKS7_RKS9_, symObjAddr: 0xB718, symBinAddr: 0x10000E9FC, symSize: 0x40 }
  - { offsetInCU: 0x34922, offset: 0x34922, size: 0x8, addend: 0x0, symName: __ZN5Eigen8internal27checkTransposeAliasing_implINS_5ArrayIiLin1ELin1ELi0ELin1ELin1EEENS_14CwiseNullaryOpINS0_18scalar_constant_opIiEES3_EELb0EE3runERKS3_RKS7_, symObjAddr: 0xB828, symBinAddr: 0x10000EB0C, symSize: 0x14 }
  - { offsetInCU: 0x3494D, offset: 0x3494D, size: 0x8, addend: 0x0, symName: __ZNK5Eigen14CwiseNullaryOpINS_8internal18scalar_constant_opIiEENS_5ArrayIiLin1ELin1ELi0ELin1ELin1EEEE7functorEv, symObjAddr: 0xB978, symBinAddr: 0x10000EC5C, symSize: 0x18 }
  - { offsetInCU: 0x34973, offset: 0x34973, size: 0x8, addend: 0x0, symName: __ZNK5Eigen8internal18scalar_constant_opIiEclEv, symObjAddr: 0xB990, symBinAddr: 0x10000EC74, symSize: 0x18 }
  - { offsetInCU: 0x34999, offset: 0x34999, size: 0x8, addend: 0x0, symName: __ZN5Eigen9DenseBaseINS_5ArrayIfLin1ELin1ELi0ELin1ELin1EEEE8ConstantEllRKf, symObjAddr: 0xBA20, symBinAddr: 0x10000ED04, symSize: 0x60 }
  - { offsetInCU: 0x349DD, offset: 0x349DD, size: 0x8, addend: 0x0, symName: __ZN5Eigen9DenseBaseINS_5ArrayIfLin1ELin1ELi0ELin1ELin1EEEE11NullaryExprINS_8internal18scalar_constant_opIfEEEEKNS_14CwiseNullaryOpIT_S2_EEllRKS9_, symObjAddr: 0xBA80, symBinAddr: 0x10000ED64, symSize: 0x48 }
  - { offsetInCU: 0x34A2A, offset: 0x34A2A, size: 0x8, addend: 0x0, symName: __ZN5Eigen8internal18scalar_constant_opIfEC1ERKf, symObjAddr: 0xBAC8, symBinAddr: 0x10000EDAC, symSize: 0x34 }
  - { offsetInCU: 0x34A62, offset: 0x34A62, size: 0x8, addend: 0x0, symName: __ZN5Eigen14CwiseNullaryOpINS_8internal18scalar_constant_opIfEENS_5ArrayIfLin1ELin1ELi0ELin1ELin1EEEEC1EllRKS3_, symObjAddr: 0xBAFC, symBinAddr: 0x10000EDE0, symSize: 0x44 }
  - { offsetInCU: 0x34AB6, offset: 0x34AB6, size: 0x8, addend: 0x0, symName: __ZN5Eigen14CwiseNullaryOpINS_8internal18scalar_constant_opIfEENS_5ArrayIfLin1ELin1ELi0ELin1ELin1EEEEC2EllRKS3_, symObjAddr: 0xBB40, symBinAddr: 0x10000EE24, symSize: 0xDC }
  - { offsetInCU: 0x34B0A, offset: 0x34B0A, size: 0x8, addend: 0x0, symName: __ZN5Eigen9ArrayBaseINS_14CwiseNullaryOpINS_8internal18scalar_constant_opIfEENS_5ArrayIfLin1ELin1ELi0ELin1ELin1EEEEEEC2Ev, symObjAddr: 0xBC1C, symBinAddr: 0x10000EF00, symSize: 0x2C }
  - { offsetInCU: 0x34B34, offset: 0x34B34, size: 0x8, addend: 0x0, symName: __ZN5Eigen8internal18scalar_constant_opIfEC1ERKS2_, symObjAddr: 0xBC48, symBinAddr: 0x10000EF2C, symSize: 0x34 }
  - { offsetInCU: 0x34B6C, offset: 0x34B6C, size: 0x8, addend: 0x0, symName: __ZN5Eigen9DenseBaseINS_14CwiseNullaryOpINS_8internal18scalar_constant_opIfEENS_5ArrayIfLin1ELin1ELi0ELin1ELin1EEEEEEC2Ev, symObjAddr: 0xBC7C, symBinAddr: 0x10000EF60, symSize: 0x14 }
  - { offsetInCU: 0x34B96, offset: 0x34B96, size: 0x8, addend: 0x0, symName: __ZN5Eigen8internal18scalar_constant_opIfEC2ERKS2_, symObjAddr: 0xBC90, symBinAddr: 0x10000EF74, symSize: 0x24 }
  - { offsetInCU: 0x34BCE, offset: 0x34BCE, size: 0x8, addend: 0x0, symName: __ZN5Eigen8internal18scalar_constant_opIfEC2ERKf, symObjAddr: 0xBCB4, symBinAddr: 0x10000EF98, symSize: 0x24 }
  - { offsetInCU: 0x34C06, offset: 0x34C06, size: 0x8, addend: 0x0, symName: __ZN5Eigen5ArrayIfLin1ELin1ELi0ELin1ELin1EEC2INS_14CwiseNullaryOpINS_8internal18scalar_constant_opIfEES1_EEEERKNS_9EigenBaseIT_EENS4_9enable_ifIXsr8internal14is_convertibleINS9_6ScalarEfEE5valueENS1_11PrivateTypeEE4typeE, symObjAddr: 0xBCD8, symBinAddr: 0x10000EFBC, symSize: 0x40 }
  - { offsetInCU: 0x34C53, offset: 0x34C53, size: 0x8, addend: 0x0, symName: __ZNK5Eigen9EigenBaseINS_14CwiseNullaryOpINS_8internal18scalar_constant_opIfEENS_5ArrayIfLin1ELin1ELi0ELin1ELin1EEEEEE7derivedEv, symObjAddr: 0xBD18, symBinAddr: 0x10000EFFC, symSize: 0x14 }
  - { offsetInCU: 0x34C79, offset: 0x34C79, size: 0x8, addend: 0x0, symName: __ZN5Eigen15PlainObjectBaseINS_5ArrayIfLin1ELin1ELi0ELin1ELin1EEEEC2INS_14CwiseNullaryOpINS_8internal18scalar_constant_opIfEES2_EEEERKNS_9DenseBaseIT_EE, symObjAddr: 0xBD2C, symBinAddr: 0x10000F010, symSize: 0x80 }
  - { offsetInCU: 0x34CBB, offset: 0x34CBB, size: 0x8, addend: 0x0, symName: __ZN5Eigen15PlainObjectBaseINS_5ArrayIfLin1ELin1ELi0ELin1ELin1EEEE10resizeLikeINS_14CwiseNullaryOpINS_8internal18scalar_constant_opIfEES2_EEEEvRKNS_9EigenBaseIT_EE, symObjAddr: 0xBDAC, symBinAddr: 0x10000F090, symSize: 0x11C }
  - { offsetInCU: 0x34D4F, offset: 0x34D4F, size: 0x8, addend: 0x0, symName: __ZN5Eigen15PlainObjectBaseINS_5ArrayIfLin1ELin1ELi0ELin1ELin1EEEE12_set_noaliasINS_14CwiseNullaryOpINS_8internal18scalar_constant_opIfEES2_EEEERS2_RKNS_9DenseBaseIT_EE, symObjAddr: 0xBEC8, symBinAddr: 0x10000F1AC, symSize: 0x60 }
  - { offsetInCU: 0x34D8D, offset: 0x34D8D, size: 0x8, addend: 0x0, symName: __ZNK5Eigen14CwiseNullaryOpINS_8internal18scalar_constant_opIfEENS_5ArrayIfLin1ELin1ELi0ELin1ELin1EEEE4rowsEv, symObjAddr: 0xBF28, symBinAddr: 0x10000F20C, symSize: 0x24 }
  - { offsetInCU: 0x34DB3, offset: 0x34DB3, size: 0x8, addend: 0x0, symName: __ZNK5Eigen14CwiseNullaryOpINS_8internal18scalar_constant_opIfEENS_5ArrayIfLin1ELin1ELi0ELin1ELin1EEEE4colsEv, symObjAddr: 0xBF4C, symBinAddr: 0x10000F230, symSize: 0x28 }
  - { offsetInCU: 0x34DD9, offset: 0x34DD9, size: 0x8, addend: 0x0, symName: __ZN5Eigen8internal10AssignmentINS_5ArrayIfLin1ELin1ELi0ELin1ELin1EEENS_14CwiseNullaryOpINS0_18scalar_constant_opIfEES3_EENS0_9assign_opIffEENS0_11Dense2DenseEvE3runERS3_RKS7_RKS9_, symObjAddr: 0xBFB0, symBinAddr: 0x10000F294, symSize: 0x40 }
  - { offsetInCU: 0x34E1B, offset: 0x34E1B, size: 0x8, addend: 0x0, symName: __ZN5Eigen8internal27checkTransposeAliasing_implINS_5ArrayIfLin1ELin1ELi0ELin1ELin1EEENS_14CwiseNullaryOpINS0_18scalar_constant_opIfEES3_EELb0EE3runERKS3_RKS7_, symObjAddr: 0xC0BC, symBinAddr: 0x10000F3A0, symSize: 0x14 }
  - { offsetInCU: 0x34E46, offset: 0x34E46, size: 0x8, addend: 0x0, symName: __ZNK5Eigen9EigenBaseINS_5ArrayIfLin1ELin1ELi0ELin1ELin1EEEE4sizeEv, symObjAddr: 0xC20C, symBinAddr: 0x10000F4F0, symSize: 0x44 }
  - { offsetInCU: 0x34E6C, offset: 0x34E6C, size: 0x8, addend: 0x0, symName: __ZNK5Eigen14CwiseNullaryOpINS_8internal18scalar_constant_opIfEENS_5ArrayIfLin1ELin1ELi0ELin1ELin1EEEE7functorEv, symObjAddr: 0xC250, symBinAddr: 0x10000F534, symSize: 0x18 }
  - { offsetInCU: 0x34E92, offset: 0x34E92, size: 0x8, addend: 0x0, symName: __ZNK5Eigen8internal18scalar_constant_opIfEclEv, symObjAddr: 0xC268, symBinAddr: 0x10000F54C, symSize: 0x18 }
  - { offsetInCU: 0x34EB8, offset: 0x34EB8, size: 0x8, addend: 0x0, symName: __ZNSt3__16vectorIN5Eigen5ArrayIfLin1ELin1ELi0ELin1ELin1EEENS_9allocatorIS3_EEEC2EmRKS3_, symObjAddr: 0xC2E4, symBinAddr: 0x10000F5C8, symSize: 0xDC }
  - { offsetInCU: 0x34F1D, offset: 0x34F1D, size: 0x8, addend: 0x0, symName: __ZNSt3__117__compressed_pairIPN5Eigen5ArrayIfLin1ELin1ELi0ELin1ELin1EEENS_9allocatorIS3_EEEC1B8ue170006IDnNS_18__default_init_tagEEEOT_OT0_, symObjAddr: 0xC3C0, symBinAddr: 0x10000F6A4, symSize: 0x3C }
  - { offsetInCU: 0x34F75, offset: 0x34F75, size: 0x8, addend: 0x0, symName: __ZNSt3__16vectorIN5Eigen5ArrayIfLin1ELin1ELi0ELin1ELin1EEENS_9allocatorIS3_EEE16__destroy_vectorC1B8ue170006ERS6_, symObjAddr: 0xC43C, symBinAddr: 0x10000F720, symSize: 0x34 }
  - { offsetInCU: 0x34FAE, offset: 0x34FAE, size: 0x8, addend: 0x0, symName: __ZNSt3__16vectorIN5Eigen5ArrayIfLin1ELin1ELi0ELin1ELin1EEENS_9allocatorIS3_EEE11__vallocateB8ue170006Em, symObjAddr: 0xC470, symBinAddr: 0x10000F754, symSize: 0xB4 }
  - { offsetInCU: 0x34FF2, offset: 0x34FF2, size: 0x8, addend: 0x0, symName: __ZNSt3__16vectorIN5Eigen5ArrayIfLin1ELin1ELi0ELin1ELin1EEENS_9allocatorIS3_EEE18__construct_at_endEmRKS3_, symObjAddr: 0xC524, symBinAddr: 0x10000F808, symSize: 0xD0 }
  - { offsetInCU: 0x35073, offset: 0x35073, size: 0x8, addend: 0x0, symName: __ZNSt3__128__exception_guard_exceptionsINS_6vectorIN5Eigen5ArrayIfLin1ELin1ELi0ELin1ELin1EEENS_9allocatorIS4_EEE16__destroy_vectorEE10__completeB8ue170006Ev, symObjAddr: 0xC5F4, symBinAddr: 0x10000F8D8, symSize: 0x1C }
  - { offsetInCU: 0x35099, offset: 0x35099, size: 0x8, addend: 0x0, symName: __ZNSt3__128__exception_guard_exceptionsINS_6vectorIN5Eigen5ArrayIfLin1ELin1ELi0ELin1ELin1EEENS_9allocatorIS4_EEE16__destroy_vectorEED1B8ue170006Ev, symObjAddr: 0xC610, symBinAddr: 0x10000F8F4, symSize: 0x2C }
  - { offsetInCU: 0x350C3, offset: 0x350C3, size: 0x8, addend: 0x0, symName: __ZNSt3__117__compressed_pairIPN5Eigen5ArrayIfLin1ELin1ELi0ELin1ELin1EEENS_9allocatorIS3_EEEC2B8ue170006IDnNS_18__default_init_tagEEEOT_OT0_, symObjAddr: 0xC63C, symBinAddr: 0x10000F920, symSize: 0x40 }
  - { offsetInCU: 0x3511B, offset: 0x3511B, size: 0x8, addend: 0x0, symName: __ZNSt3__122__compressed_pair_elemIPN5Eigen5ArrayIfLin1ELin1ELi0ELin1ELin1EEELi0ELb0EEC2B8ue170006IDnvEEOT_, symObjAddr: 0xC67C, symBinAddr: 0x10000F960, symSize: 0x1C }
  - { offsetInCU: 0x3515D, offset: 0x3515D, size: 0x8, addend: 0x0, symName: __ZNSt3__122__compressed_pair_elemINS_9allocatorIN5Eigen5ArrayIfLin1ELin1ELi0ELin1ELin1EEEEELi1ELb1EEC2B8ue170006ENS_18__default_init_tagE, symObjAddr: 0xC698, symBinAddr: 0x10000F97C, symSize: 0x2C }
  - { offsetInCU: 0x35192, offset: 0x35192, size: 0x8, addend: 0x0, symName: __ZNSt3__19allocatorIN5Eigen5ArrayIfLin1ELin1ELi0ELin1ELin1EEEEC2B8ue170006Ev, symObjAddr: 0xC6C4, symBinAddr: 0x10000F9A8, symSize: 0x2C }
  - { offsetInCU: 0x351BC, offset: 0x351BC, size: 0x8, addend: 0x0, symName: __ZNSt3__116__non_trivial_ifILb1ENS_9allocatorIN5Eigen5ArrayIfLin1ELin1ELi0ELin1ELin1EEEEEEC2B8ue170006Ev, symObjAddr: 0xC6F0, symBinAddr: 0x10000F9D4, symSize: 0x14 }
  - { offsetInCU: 0x351E6, offset: 0x351E6, size: 0x8, addend: 0x0, symName: __ZNSt3__128__exception_guard_exceptionsINS_6vectorIN5Eigen5ArrayIfLin1ELin1ELi0ELin1ELin1EEENS_9allocatorIS4_EEE16__destroy_vectorEEC1B8ue170006ES8_, symObjAddr: 0xC704, symBinAddr: 0x10000F9E8, symSize: 0x34 }
  - { offsetInCU: 0x3521E, offset: 0x3521E, size: 0x8, addend: 0x0, symName: __ZNSt3__128__exception_guard_exceptionsINS_6vectorIN5Eigen5ArrayIfLin1ELin1ELi0ELin1ELin1EEENS_9allocatorIS4_EEE16__destroy_vectorEEC2B8ue170006ES8_, symObjAddr: 0xC738, symBinAddr: 0x10000FA1C, symSize: 0x24 }
  - { offsetInCU: 0x35256, offset: 0x35256, size: 0x8, addend: 0x0, symName: __ZNSt3__16vectorIN5Eigen5ArrayIfLin1ELin1ELi0ELin1ELin1EEENS_9allocatorIS3_EEE16__destroy_vectorC2B8ue170006ERS6_, symObjAddr: 0xC75C, symBinAddr: 0x10000FA40, symSize: 0x20 }
  - { offsetInCU: 0x3528F, offset: 0x3528F, size: 0x8, addend: 0x0, symName: __ZNKSt3__16vectorIN5Eigen5ArrayIfLin1ELin1ELi0ELin1ELin1EEENS_9allocatorIS3_EEE8max_sizeEv, symObjAddr: 0xC77C, symBinAddr: 0x10000FA60, symSize: 0x60 }
  - { offsetInCU: 0x352B7, offset: 0x352B7, size: 0x8, addend: 0x0, symName: __ZNKSt3__16vectorIN5Eigen5ArrayIfLin1ELin1ELi0ELin1ELin1EEENS_9allocatorIS3_EEE20__throw_length_errorB8ue170006Ev, symObjAddr: 0xC7DC, symBinAddr: 0x10000FAC0, symSize: 0x1C }
  - { offsetInCU: 0x352DD, offset: 0x352DD, size: 0x8, addend: 0x0, symName: __ZNSt3__16vectorIN5Eigen5ArrayIfLin1ELin1ELi0ELin1ELin1EEENS_9allocatorIS3_EEE7__allocB8ue170006Ev, symObjAddr: 0xC838, symBinAddr: 0x10000FB1C, symSize: 0x28 }
  - { offsetInCU: 0x35303, offset: 0x35303, size: 0x8, addend: 0x0, symName: __ZNSt3__16vectorIN5Eigen5ArrayIfLin1ELin1ELi0ELin1ELin1EEENS_9allocatorIS3_EEE9__end_capB8ue170006Ev, symObjAddr: 0xC860, symBinAddr: 0x10000FB44, symSize: 0x28 }
  - { offsetInCU: 0x35329, offset: 0x35329, size: 0x8, addend: 0x0, symName: __ZNKSt3__16vectorIN5Eigen5ArrayIfLin1ELin1ELi0ELin1ELin1EEENS_9allocatorIS3_EEE14__annotate_newB8ue170006Em, symObjAddr: 0xC888, symBinAddr: 0x10000FB6C, symSize: 0xC8 }
  - { offsetInCU: 0x35368, offset: 0x35368, size: 0x8, addend: 0x0, symName: __ZNSt3__116allocator_traitsINS_9allocatorIN5Eigen5ArrayIfLin1ELin1ELi0ELin1ELin1EEEEEE8max_sizeB8ue170006IS5_vEEmRKS5_, symObjAddr: 0xC97C, symBinAddr: 0x10000FC60, symSize: 0x24 }
  - { offsetInCU: 0x35396, offset: 0x35396, size: 0x8, addend: 0x0, symName: __ZNKSt3__16vectorIN5Eigen5ArrayIfLin1ELin1ELi0ELin1ELin1EEENS_9allocatorIS3_EEE7__allocB8ue170006Ev, symObjAddr: 0xC9A0, symBinAddr: 0x10000FC84, symSize: 0x28 }
  - { offsetInCU: 0x353BC, offset: 0x353BC, size: 0x8, addend: 0x0, symName: __ZNSt3__114numeric_limitsIlE3maxB8ue170006Ev, symObjAddr: 0xC9C8, symBinAddr: 0x10000FCAC, symSize: 0x14 }
  - { offsetInCU: 0x353DA, offset: 0x353DA, size: 0x8, addend: 0x0, symName: __ZNKSt3__16__lessIvvEclB8ue170006ImmEEbRKT_RKT0_, symObjAddr: 0xCA30, symBinAddr: 0x10000FD14, symSize: 0x34 }
  - { offsetInCU: 0x3542E, offset: 0x3542E, size: 0x8, addend: 0x0, symName: __ZNKSt3__19allocatorIN5Eigen5ArrayIfLin1ELin1ELi0ELin1ELin1EEEE8max_sizeB8ue170006Ev, symObjAddr: 0xCA64, symBinAddr: 0x10000FD48, symSize: 0x18 }
  - { offsetInCU: 0x35454, offset: 0x35454, size: 0x8, addend: 0x0, symName: __ZNKSt3__117__compressed_pairIPN5Eigen5ArrayIfLin1ELin1ELi0ELin1ELin1EEENS_9allocatorIS3_EEE6secondB8ue170006Ev, symObjAddr: 0xCA7C, symBinAddr: 0x10000FD60, symSize: 0x24 }
  - { offsetInCU: 0x3547A, offset: 0x3547A, size: 0x8, addend: 0x0, symName: __ZNKSt3__122__compressed_pair_elemINS_9allocatorIN5Eigen5ArrayIfLin1ELin1ELi0ELin1ELin1EEEEELi1ELb1EE5__getB8ue170006Ev, symObjAddr: 0xCAA0, symBinAddr: 0x10000FD84, symSize: 0x14 }
  - { offsetInCU: 0x354A0, offset: 0x354A0, size: 0x8, addend: 0x0, symName: __ZNSt3__123__libcpp_numeric_limitsIlLb1EE3maxB8ue170006Ev, symObjAddr: 0xCAB4, symBinAddr: 0x10000FD98, symSize: 0x8 }
  - { offsetInCU: 0x354B4, offset: 0x354B4, size: 0x8, addend: 0x0, symName: __ZNSt12length_errorC1B8ue170006EPKc, symObjAddr: 0xCB20, symBinAddr: 0x10000FE04, symSize: 0x34 }
  - { offsetInCU: 0x354EC, offset: 0x354EC, size: 0x8, addend: 0x0, symName: __ZNSt12length_errorC2B8ue170006EPKc, symObjAddr: 0xCB54, symBinAddr: 0x10000FE38, symSize: 0x4C }
  - { offsetInCU: 0x35524, offset: 0x35524, size: 0x8, addend: 0x0, symName: __ZNSt3__19allocatorIN5Eigen5ArrayIfLin1ELin1ELi0ELin1ELin1EEEE8allocateB8ue170006Em, symObjAddr: 0xCBA0, symBinAddr: 0x10000FE84, symSize: 0x5C }
  - { offsetInCU: 0x35558, offset: 0x35558, size: 0x8, addend: 0x0, symName: __ZNSt3__117__compressed_pairIPN5Eigen5ArrayIfLin1ELin1ELi0ELin1ELin1EEENS_9allocatorIS3_EEE6secondB8ue170006Ev, symObjAddr: 0xCC7C, symBinAddr: 0x10000FF60, symSize: 0x24 }
  - { offsetInCU: 0x3557E, offset: 0x3557E, size: 0x8, addend: 0x0, symName: __ZNSt3__122__compressed_pair_elemINS_9allocatorIN5Eigen5ArrayIfLin1ELin1ELi0ELin1ELin1EEEEELi1ELb1EE5__getB8ue170006Ev, symObjAddr: 0xCCA0, symBinAddr: 0x10000FF84, symSize: 0x14 }
  - { offsetInCU: 0x355A4, offset: 0x355A4, size: 0x8, addend: 0x0, symName: __ZNSt3__117__compressed_pairIPN5Eigen5ArrayIfLin1ELin1ELi0ELin1ELin1EEENS_9allocatorIS3_EEE5firstB8ue170006Ev, symObjAddr: 0xCCB4, symBinAddr: 0x10000FF98, symSize: 0x24 }
  - { offsetInCU: 0x355CA, offset: 0x355CA, size: 0x8, addend: 0x0, symName: __ZNSt3__122__compressed_pair_elemIPN5Eigen5ArrayIfLin1ELin1ELi0ELin1ELin1EEELi0ELb0EE5__getB8ue170006Ev, symObjAddr: 0xCCD8, symBinAddr: 0x10000FFBC, symSize: 0x14 }
  - { offsetInCU: 0x355F0, offset: 0x355F0, size: 0x8, addend: 0x0, symName: __ZNKSt3__16vectorIN5Eigen5ArrayIfLin1ELin1ELi0ELin1ELin1EEENS_9allocatorIS3_EEE31__annotate_contiguous_containerB8ue170006EPKvS8_S8_S8_, symObjAddr: 0xCCEC, symBinAddr: 0x10000FFD0, symSize: 0x20 }
  - { offsetInCU: 0x35642, offset: 0x35642, size: 0x8, addend: 0x0, symName: __ZNKSt3__16vectorIN5Eigen5ArrayIfLin1ELin1ELi0ELin1ELin1EEENS_9allocatorIS3_EEE4dataB8ue170006Ev, symObjAddr: 0xCD0C, symBinAddr: 0x10000FFF0, symSize: 0x28 }
  - { offsetInCU: 0x35668, offset: 0x35668, size: 0x8, addend: 0x0, symName: __ZNKSt3__16vectorIN5Eigen5ArrayIfLin1ELin1ELi0ELin1ELin1EEENS_9allocatorIS3_EEE8capacityB8ue170006Ev, symObjAddr: 0xCD34, symBinAddr: 0x100010018, symSize: 0x40 }
  - { offsetInCU: 0x3568E, offset: 0x3568E, size: 0x8, addend: 0x0, symName: __ZNKSt3__16vectorIN5Eigen5ArrayIfLin1ELin1ELi0ELin1ELin1EEENS_9allocatorIS3_EEE9__end_capB8ue170006Ev, symObjAddr: 0xCD88, symBinAddr: 0x10001006C, symSize: 0x28 }
  - { offsetInCU: 0x356B4, offset: 0x356B4, size: 0x8, addend: 0x0, symName: __ZNKSt3__117__compressed_pairIPN5Eigen5ArrayIfLin1ELin1ELi0ELin1ELin1EEENS_9allocatorIS3_EEE5firstB8ue170006Ev, symObjAddr: 0xCDB0, symBinAddr: 0x100010094, symSize: 0x24 }
  - { offsetInCU: 0x356DA, offset: 0x356DA, size: 0x8, addend: 0x0, symName: __ZNKSt3__122__compressed_pair_elemIPN5Eigen5ArrayIfLin1ELin1ELi0ELin1ELin1EEELi0ELb0EE5__getB8ue170006Ev, symObjAddr: 0xCDD4, symBinAddr: 0x1000100B8, symSize: 0x14 }
  - { offsetInCU: 0x35719, offset: 0x35719, size: 0x8, addend: 0x0, symName: __ZNSt3__16vectorIN5Eigen5ArrayIfLin1ELin1ELi0ELin1ELin1EEENS_9allocatorIS3_EEE21_ConstructTransactionC1B8ue170006ERS6_m, symObjAddr: 0xCDE8, symBinAddr: 0x1000100CC, symSize: 0x3C }
  - { offsetInCU: 0x35761, offset: 0x35761, size: 0x8, addend: 0x0, symName: __ZNSt3__116allocator_traitsINS_9allocatorIN5Eigen5ArrayIfLin1ELin1ELi0ELin1ELin1EEEEEE9constructB8ue170006IS4_JRKS4_EvEEvRS5_PT_DpOT0_, symObjAddr: 0xCE24, symBinAddr: 0x100010108, symSize: 0x34 }
  - { offsetInCU: 0x357B8, offset: 0x357B8, size: 0x8, addend: 0x0, symName: __ZNSt3__16vectorIN5Eigen5ArrayIfLin1ELin1ELi0ELin1ELin1EEENS_9allocatorIS3_EEE21_ConstructTransactionD1B8ue170006Ev, symObjAddr: 0xCE58, symBinAddr: 0x10001013C, symSize: 0x2C }
  - { offsetInCU: 0x357E2, offset: 0x357E2, size: 0x8, addend: 0x0, symName: __ZNSt3__16vectorIN5Eigen5ArrayIfLin1ELin1ELi0ELin1ELin1EEENS_9allocatorIS3_EEE21_ConstructTransactionC2B8ue170006ERS6_m, symObjAddr: 0xCE84, symBinAddr: 0x100010168, symSize: 0x4C }
  - { offsetInCU: 0x3582A, offset: 0x3582A, size: 0x8, addend: 0x0, symName: __ZNSt3__19allocatorIN5Eigen5ArrayIfLin1ELin1ELi0ELin1ELin1EEEE9constructB8ue170006IS3_JRKS3_EEEvPT_DpOT0_, symObjAddr: 0xCED0, symBinAddr: 0x1000101B4, symSize: 0x30 }
  - { offsetInCU: 0x35880, offset: 0x35880, size: 0x8, addend: 0x0, symName: __ZN5Eigen5ArrayIfLin1ELin1ELi0ELin1ELin1EEC1ERKS1_, symObjAddr: 0xCF00, symBinAddr: 0x1000101E4, symSize: 0x34 }
  - { offsetInCU: 0x358B9, offset: 0x358B9, size: 0x8, addend: 0x0, symName: __ZN5Eigen5ArrayIfLin1ELin1ELi0ELin1ELin1EEC2ERKS1_, symObjAddr: 0xCF34, symBinAddr: 0x100010218, symSize: 0x34 }
  - { offsetInCU: 0x358F2, offset: 0x358F2, size: 0x8, addend: 0x0, symName: __ZN5Eigen15PlainObjectBaseINS_5ArrayIfLin1ELin1ELi0ELin1ELin1EEEEC2ERKS3_, symObjAddr: 0xCF68, symBinAddr: 0x10001024C, symSize: 0x3C }
  - { offsetInCU: 0x3592B, offset: 0x3592B, size: 0x8, addend: 0x0, symName: __ZN5Eigen12DenseStorageIfLin1ELin1ELin1ELi0EEC1ERKS1_, symObjAddr: 0xCFA4, symBinAddr: 0x100010288, symSize: 0x34 }
  - { offsetInCU: 0x35964, offset: 0x35964, size: 0x8, addend: 0x0, symName: __ZN5Eigen12DenseStorageIfLin1ELin1ELin1ELi0EEC2ERKS1_, symObjAddr: 0xCFD8, symBinAddr: 0x1000102BC, symSize: 0x94 }
  - { offsetInCU: 0x3599D, offset: 0x3599D, size: 0x8, addend: 0x0, symName: __ZN5Eigen8internal17smart_copy_helperIfLb1EE3runEPKfS4_Pf, symObjAddr: 0xD0A0, symBinAddr: 0x100010384, symSize: 0x60 }
  - { offsetInCU: 0x359F6, offset: 0x359F6, size: 0x8, addend: 0x0, symName: __ZNSt3__16vectorIN5Eigen5ArrayIfLin1ELin1ELi0ELin1ELin1EEENS_9allocatorIS3_EEE21_ConstructTransactionD2B8ue170006Ev, symObjAddr: 0xD100, symBinAddr: 0x1000103E4, symSize: 0x20 }
  - { offsetInCU: 0x35A20, offset: 0x35A20, size: 0x8, addend: 0x0, symName: __ZNSt3__128__exception_guard_exceptionsINS_6vectorIN5Eigen5ArrayIfLin1ELin1ELi0ELin1ELin1EEENS_9allocatorIS4_EEE16__destroy_vectorEED2B8ue170006Ev, symObjAddr: 0xD120, symBinAddr: 0x100010404, symSize: 0x50 }
  - { offsetInCU: 0x35A4A, offset: 0x35A4A, size: 0x8, addend: 0x0, symName: __ZNSt3__16vectorIN5Eigen5ArrayIfLin1ELin1ELi0ELin1ELin1EEENS_9allocatorIS3_EEE16__destroy_vectorclB8ue170006Ev, symObjAddr: 0xD170, symBinAddr: 0x100010454, symSize: 0x90 }
  - { offsetInCU: 0x35A70, offset: 0x35A70, size: 0x8, addend: 0x0, symName: __ZNSt3__16vectorIN5Eigen5ArrayIfLin1ELin1ELi0ELin1ELin1EEENS_9allocatorIS3_EEE7__clearB8ue170006Ev, symObjAddr: 0xD200, symBinAddr: 0x1000104E4, symSize: 0x28 }
  - { offsetInCU: 0x35A96, offset: 0x35A96, size: 0x8, addend: 0x0, symName: __ZNKSt3__16vectorIN5Eigen5ArrayIfLin1ELin1ELi0ELin1ELin1EEENS_9allocatorIS3_EEE17__annotate_deleteB8ue170006Ev, symObjAddr: 0xD228, symBinAddr: 0x10001050C, symSize: 0xD4 }
  - { offsetInCU: 0x35ABC, offset: 0x35ABC, size: 0x8, addend: 0x0, symName: __ZNSt3__116allocator_traitsINS_9allocatorIN5Eigen5ArrayIfLin1ELin1ELi0ELin1ELin1EEEEEE10deallocateB8ue170006ERS5_PS4_m, symObjAddr: 0xD2FC, symBinAddr: 0x1000105E0, symSize: 0x34 }
  - { offsetInCU: 0x35AFE, offset: 0x35AFE, size: 0x8, addend: 0x0, symName: __ZNSt3__16vectorIN5Eigen5ArrayIfLin1ELin1ELi0ELin1ELin1EEENS_9allocatorIS3_EEE22__base_destruct_at_endB8ue170006EPS3_, symObjAddr: 0xD330, symBinAddr: 0x100010614, symSize: 0x8C }
  - { offsetInCU: 0x35B42, offset: 0x35B42, size: 0x8, addend: 0x0, symName: __ZNSt3__116allocator_traitsINS_9allocatorIN5Eigen5ArrayIfLin1ELin1ELi0ELin1ELin1EEEEEE7destroyB8ue170006IS4_vEEvRS5_PT_, symObjAddr: 0xD3BC, symBinAddr: 0x1000106A0, symSize: 0x2C }
  - { offsetInCU: 0x35B7F, offset: 0x35B7F, size: 0x8, addend: 0x0, symName: __ZNSt3__19allocatorIN5Eigen5ArrayIfLin1ELin1ELi0ELin1ELin1EEEE7destroyB8ue170006EPS3_, symObjAddr: 0xD3E8, symBinAddr: 0x1000106CC, symSize: 0x28 }
  - { offsetInCU: 0x35BB3, offset: 0x35BB3, size: 0x8, addend: 0x0, symName: __ZNKSt3__16vectorIN5Eigen5ArrayIfLin1ELin1ELi0ELin1ELin1EEENS_9allocatorIS3_EEE4sizeB8ue170006Ev, symObjAddr: 0xD410, symBinAddr: 0x1000106F4, symSize: 0x28 }
  - { offsetInCU: 0x35BD9, offset: 0x35BD9, size: 0x8, addend: 0x0, symName: __ZNSt3__19allocatorIN5Eigen5ArrayIfLin1ELin1ELi0ELin1ELin1EEEE10deallocateB8ue170006EPS3_m, symObjAddr: 0xD438, symBinAddr: 0x10001071C, symSize: 0x44 }
  - { offsetInCU: 0x35C1B, offset: 0x35C1B, size: 0x8, addend: 0x0, symName: __ZNSt3__16vectorIN5Eigen5ArrayIfLin1ELin1ELi0ELin1ELin1EEENS_9allocatorIS3_EEED2B8ue170006Ev, symObjAddr: 0xD4F8, symBinAddr: 0x1000107DC, symSize: 0x40 }
  - { offsetInCU: 0x35C45, offset: 0x35C45, size: 0x8, addend: 0x0, symName: __ZNSt3__19basic_iosIcNS_11char_traitsIcEEEC2B8ue170006Ev, symObjAddr: 0xD538, symBinAddr: 0x10001081C, symSize: 0x44 }
  - { offsetInCU: 0x35C6F, offset: 0x35C6F, size: 0x8, addend: 0x0, symName: __ZNSt3__113basic_ostreamIcNS_11char_traitsIcEEEC2B8ue170006EPNS_15basic_streambufIcS2_EE, symObjAddr: 0xD57C, symBinAddr: 0x100010860, symSize: 0x60 }
  - { offsetInCU: 0x35CB4, offset: 0x35CB4, size: 0x8, addend: 0x0, symName: __ZNSt3__19basic_iosIcNS_11char_traitsIcEEE8setstateB8ue170006Ej, symObjAddr: 0xD5DC, symBinAddr: 0x1000108C0, symSize: 0x2C }
  - { offsetInCU: 0x35CE9, offset: 0x35CE9, size: 0x8, addend: 0x0, symName: __ZNSt3__18ios_baseC2B8ue170006Ev, symObjAddr: 0xD608, symBinAddr: 0x1000108EC, symSize: 0x24 }
  - { offsetInCU: 0x35D13, offset: 0x35D13, size: 0x8, addend: 0x0, symName: __ZNSt3__19basic_iosIcNS_11char_traitsIcEEE4initB8ue170006EPNS_15basic_streambufIcS2_EE, symObjAddr: 0xD62C, symBinAddr: 0x100010910, symSize: 0x44 }
  - { offsetInCU: 0x35D4A, offset: 0x35D4A, size: 0x8, addend: 0x0, symName: __ZNSt3__111char_traitsIcE3eofB8ue170006Ev, symObjAddr: 0xD670, symBinAddr: 0x100010954, symSize: 0x8 }
  - { offsetInCU: 0x35D5E, offset: 0x35D5E, size: 0x8, addend: 0x0, symName: __ZNSt3__18ios_base8setstateB8ue170006Ej, symObjAddr: 0xD678, symBinAddr: 0x10001095C, symSize: 0x34 }
  - { offsetInCU: 0x35D95, offset: 0x35D95, size: 0x8, addend: 0x0, symName: __ZNKSt3__113basic_filebufIcNS_11char_traitsIcEEE7is_openEv, symObjAddr: 0xD6AC, symBinAddr: 0x100010990, symSize: 0x24 }
  - { offsetInCU: 0x35DDB, offset: 0x35DDB, size: 0x8, addend: 0x0, symName: __ZNKSt3__113basic_ostreamIcNS_11char_traitsIcEEE6sentrycvbB8ue170006Ev, symObjAddr: 0xD8BC, symBinAddr: 0x100010BA0, symSize: 0x1C }
  - { offsetInCU: 0x35E01, offset: 0x35E01, size: 0x8, addend: 0x0, symName: __ZNSt3__119ostreambuf_iteratorIcNS_11char_traitsIcEEEC1B8ue170006ERNS_13basic_ostreamIcS2_EE, symObjAddr: 0xDB18, symBinAddr: 0x100010DFC, symSize: 0x34 }
  - { offsetInCU: 0x35E39, offset: 0x35E39, size: 0x8, addend: 0x0, symName: __ZNKSt3__18ios_base5flagsB8ue170006Ev, symObjAddr: 0xDB4C, symBinAddr: 0x100010E30, symSize: 0x18 }
  - { offsetInCU: 0x35E61, offset: 0x35E61, size: 0x8, addend: 0x0, symName: __ZNKSt3__19basic_iosIcNS_11char_traitsIcEEE4fillB8ue170006Ev, symObjAddr: 0xDB64, symBinAddr: 0x100010E48, symSize: 0x64 }
  - { offsetInCU: 0x35E89, offset: 0x35E89, size: 0x8, addend: 0x0, symName: __ZNKSt3__119ostreambuf_iteratorIcNS_11char_traitsIcEEE6failedB8ue170006Ev, symObjAddr: 0xDBC8, symBinAddr: 0x100010EAC, symSize: 0x24 }
  - { offsetInCU: 0x35EAF, offset: 0x35EAF, size: 0x8, addend: 0x0, symName: __ZNKSt3__18ios_base5widthB8ue170006Ev, symObjAddr: 0xDBEC, symBinAddr: 0x100010ED0, symSize: 0x18 }
  - { offsetInCU: 0x35ED7, offset: 0x35ED7, size: 0x8, addend: 0x0, symName: __ZNSt3__115basic_streambufIcNS_11char_traitsIcEEE5sputnB8ue170006EPKcl, symObjAddr: 0xDC04, symBinAddr: 0x100010EE8, symSize: 0x3C }
  - { offsetInCU: 0x35F19, offset: 0x35F19, size: 0x8, addend: 0x0, symName: __ZNSt3__112basic_stringIcNS_11char_traitsIcEENS_9allocatorIcEEEC1B8ue170006Emc, symObjAddr: 0xDC40, symBinAddr: 0x100010F24, symSize: 0x3C }
  - { offsetInCU: 0x35F61, offset: 0x35F61, size: 0x8, addend: 0x0, symName: __ZNKSt3__112basic_stringIcNS_11char_traitsIcEENS_9allocatorIcEEE4dataB8ue170006Ev, symObjAddr: 0xDC7C, symBinAddr: 0x100010F60, symSize: 0x28 }
  - { offsetInCU: 0x35F87, offset: 0x35F87, size: 0x8, addend: 0x0, symName: __ZNSt3__18ios_base5widthB8ue170006El, symObjAddr: 0xDCA4, symBinAddr: 0x100010F88, symSize: 0x2C }
  - { offsetInCU: 0x35FCD, offset: 0x35FCD, size: 0x8, addend: 0x0, symName: __ZNSt3__112basic_stringIcNS_11char_traitsIcEENS_9allocatorIcEEEC2B8ue170006Emc, symObjAddr: 0xDCD0, symBinAddr: 0x100010FB4, symSize: 0x4C }
  - { offsetInCU: 0x36015, offset: 0x36015, size: 0x8, addend: 0x0, symName: __ZNKSt3__112basic_stringIcNS_11char_traitsIcEENS_9allocatorIcEEE13__get_pointerB8ue170006Ev, symObjAddr: 0xDD30, symBinAddr: 0x100011014, symSize: 0x54 }
  - { offsetInCU: 0x3603B, offset: 0x3603B, size: 0x8, addend: 0x0, symName: __ZNKSt3__112basic_stringIcNS_11char_traitsIcEENS_9allocatorIcEEE9__is_longB8ue170006Ev, symObjAddr: 0xDD84, symBinAddr: 0x100011068, symSize: 0x38 }
  - { offsetInCU: 0x36061, offset: 0x36061, size: 0x8, addend: 0x0, symName: __ZNKSt3__112basic_stringIcNS_11char_traitsIcEENS_9allocatorIcEEE18__get_long_pointerB8ue170006Ev, symObjAddr: 0xDDBC, symBinAddr: 0x1000110A0, symSize: 0x28 }
  - { offsetInCU: 0x36087, offset: 0x36087, size: 0x8, addend: 0x0, symName: __ZNKSt3__112basic_stringIcNS_11char_traitsIcEENS_9allocatorIcEEE19__get_short_pointerB8ue170006Ev, symObjAddr: 0xDDE4, symBinAddr: 0x1000110C8, symSize: 0x28 }
  - { offsetInCU: 0x360AD, offset: 0x360AD, size: 0x8, addend: 0x0, symName: __ZNKSt3__117__compressed_pairINS_12basic_stringIcNS_11char_traitsIcEENS_9allocatorIcEEE5__repES5_E5firstB8ue170006Ev, symObjAddr: 0xDE0C, symBinAddr: 0x1000110F0, symSize: 0x24 }
  - { offsetInCU: 0x360D3, offset: 0x360D3, size: 0x8, addend: 0x0, symName: __ZNKSt3__122__compressed_pair_elemINS_12basic_stringIcNS_11char_traitsIcEENS_9allocatorIcEEE5__repELi0ELb0EE5__getB8ue170006Ev, symObjAddr: 0xDE30, symBinAddr: 0x100011114, symSize: 0x14 }
  - { offsetInCU: 0x360F9, offset: 0x360F9, size: 0x8, addend: 0x0, symName: __ZNSt3__114pointer_traitsIPKcE10pointer_toB8ue170006ERS1_, symObjAddr: 0xDE44, symBinAddr: 0x100011128, symSize: 0x14 }
  - { offsetInCU: 0x3611C, offset: 0x3611C, size: 0x8, addend: 0x0, symName: __ZNSt3__119ostreambuf_iteratorIcNS_11char_traitsIcEEEC2B8ue170006ERNS_13basic_ostreamIcS2_EE, symObjAddr: 0xDE58, symBinAddr: 0x10001113C, symSize: 0x54 }
  - { offsetInCU: 0x36154, offset: 0x36154, size: 0x8, addend: 0x0, symName: __ZNKSt3__19basic_iosIcNS_11char_traitsIcEEE5rdbufB8ue170006Ev, symObjAddr: 0xDEAC, symBinAddr: 0x100011190, symSize: 0x24 }
  - { offsetInCU: 0x3617C, offset: 0x3617C, size: 0x8, addend: 0x0, symName: __ZNKSt3__18ios_base5rdbufB8ue170006Ev, symObjAddr: 0xDED0, symBinAddr: 0x1000111B4, symSize: 0x18 }
  - { offsetInCU: 0x361A2, offset: 0x361A2, size: 0x8, addend: 0x0, symName: __ZNSt3__111char_traitsIcE11eq_int_typeB8ue170006Eii, symObjAddr: 0xDEE8, symBinAddr: 0x1000111CC, symSize: 0x28 }
  - { offsetInCU: 0x361D5, offset: 0x361D5, size: 0x8, addend: 0x0, symName: __ZNKSt3__19basic_iosIcNS_11char_traitsIcEEE5widenB8ue170006Ec, symObjAddr: 0xDF10, symBinAddr: 0x1000111F4, symSize: 0x84 }
  - { offsetInCU: 0x3623E, offset: 0x3623E, size: 0x8, addend: 0x0, symName: __ZNKSt3__15ctypeIcE5widenB8ue170006Ec, symObjAddr: 0xDFC0, symBinAddr: 0x1000112A4, symSize: 0x38 }
  - { offsetInCU: 0x36273, offset: 0x36273, size: 0x8, addend: 0x0, symName: __ZN5Eigen15DenseCoeffsBaseINS_5ArrayIiLin1ELin1ELi0ELin1ELin1EEELi1EE8coeffRefEll, symObjAddr: 0xDFF8, symBinAddr: 0x1000112DC, symSize: 0x80 }
...
