---
triple:          'arm64-apple-darwin'
binary-path:     '/Users/haolong/Documents/GitHub/demos_v_matrix/test'
relocations:
  - { offsetInCU: 0x44, offset: 0x44, size: 0x8, addend: 0x0, symName: __ZN5EigenL4lastE, symObjAddr: 0x62833, symBinAddr: 0x10000C000, symSize: 0x0 }
  - { offsetInCU: 0x1765, offset: 0x1765, size: 0x8, addend: 0x0, symName: __ZN5Eigen8internal31conditional_aligned_delete_autoIfLb1EEEvPT_m, symObjAddr: 0xBBC, symBinAddr: 0x10000274C, symSize: 0x28 }
  - { offsetInCU: 0x17B1, offset: 0x17B1, size: 0x8, addend: 0x0, symName: __ZN5Eigen8internal24conditional_aligned_freeILb1EEEvPv, symObjAddr: 0xBF0, symBinAddr: 0x100002780, symSize: 0x24 }
  - { offsetInCU: 0x17E5, offset: 0x17E5, size: 0x8, addend: 0x0, symName: __ZN5Eigen8internal12aligned_freeEPv, symObjAddr: 0xC14, symBinAddr: 0x1000027A4, symSize: 0x24 }
  - { offsetInCU: 0x1814, offset: 0x1814, size: 0x8, addend: 0x0, symName: __ZN5Eigen8internal31conditional_aligned_delete_autoIiLb1EEEvPT_m, symObjAddr: 0xD00, symBinAddr: 0x100002890, symSize: 0x28 }
  - { offsetInCU: 0x188A, offset: 0x188A, size: 0x8, addend: 0x0, symName: __ZN5Eigen8internal22ignore_unused_variableIbEEvRKT_, symObjAddr: 0xF78, symBinAddr: 0x100002B08, symSize: 0x10 }
  - { offsetInCU: 0x18DC, offset: 0x18DC, size: 0x8, addend: 0x0, symName: __ZN5Eigen8internal28conditional_aligned_new_autoIiLb1EEEPT_m, symObjAddr: 0x10A0, symBinAddr: 0x100002C30, symSize: 0x84 }
  - { offsetInCU: 0x194A, offset: 0x194A, size: 0x8, addend: 0x0, symName: __ZN5Eigen8internal26conditional_aligned_mallocILb1EEEPvm, symObjAddr: 0x1124, symBinAddr: 0x100002CB4, symSize: 0x24 }
  - { offsetInCU: 0x1980, offset: 0x1980, size: 0x8, addend: 0x0, symName: __ZN5Eigen8internal19throw_std_bad_allocEv, symObjAddr: 0x1148, symBinAddr: 0x100002CD8, symSize: 0x34 }
  - { offsetInCU: 0x1999, offset: 0x1999, size: 0x8, addend: 0x0, symName: __ZN5Eigen8internal14aligned_mallocEm, symObjAddr: 0x117C, symBinAddr: 0x100002D0C, symSize: 0xDC }
  - { offsetInCU: 0x19DA, offset: 0x19DA, size: 0x8, addend: 0x0, symName: __ZN5Eigen8internal28check_that_malloc_is_allowedEv, symObjAddr: 0x1258, symBinAddr: 0x100002DE8, symSize: 0x4 }
  - { offsetInCU: 0x1A49, offset: 0x1A49, size: 0x8, addend: 0x0, symName: __ZN5Eigen8internal28conditional_aligned_new_autoIfLb1EEEPT_m, symObjAddr: 0x15E4, symBinAddr: 0x100003174, symSize: 0x84 }
  - { offsetInCU: 0x1AB7, offset: 0x1AB7, size: 0x8, addend: 0x0, symName: __ZN5Eigen8internal28check_static_allocation_sizeIdLi4EEEvv, symObjAddr: 0x1814, symBinAddr: 0x1000033A4, symSize: 0x4 }
  - { offsetInCU: 0x1AE4, offset: 0x1AE4, size: 0x8, addend: 0x0, symName: __ZN5Eigen8internal22ignore_unused_variableIlEEvRKT_, symObjAddr: 0x1C3C, symBinAddr: 0x1000037CC, symSize: 0x10 }
  - { offsetInCU: 0x1B13, offset: 0x1B13, size: 0x8, addend: 0x0, symName: __ZN5Eigen8internal12print_matrixINS_6MatrixIdLi2ELi2ELi0ELi2ELi2EEEEERNSt3__113basic_ostreamIcNS4_11char_traitsIcEEEES9_RKT_RKNS_8IOFormatE, symObjAddr: 0x2798, symBinAddr: 0x100004328, symSize: 0x580 }
  - { offsetInCU: 0x1C9C, offset: 0x1C9C, size: 0x8, addend: 0x0, symName: __ZN5Eigen8internal24call_assignment_no_aliasINS_6MatrixIdLi2ELi2ELi0ELi2ELi2EEENS_13CwiseBinaryOpINS0_13scalar_sum_opIddEEKS3_S7_EENS0_9assign_opIddEEEEvRT_RKT0_RKT1_, symObjAddr: 0x43E4, symBinAddr: 0x100005F74, symSize: 0x3C }
  - { offsetInCU: 0x1D74, offset: 0x1D74, size: 0x8, addend: 0x0, symName: __ZN5Eigen8internal18check_for_aliasingINS_6MatrixIdLi2ELi2ELi0ELi2ELi2EEENS_13CwiseBinaryOpINS0_13scalar_sum_opIddEEKS3_S7_EEEEvRKT_RKT0_, symObjAddr: 0x448C, symBinAddr: 0x10000601C, symSize: 0x60 }
  - { offsetInCU: 0x1DBF, offset: 0x1DBF, size: 0x8, addend: 0x0, symName: __ZN5Eigen8internal26call_dense_assignment_loopINS_6MatrixIdLi2ELi2ELi0ELi2ELi2EEENS_13CwiseBinaryOpINS0_13scalar_sum_opIddEEKS3_S7_EENS0_9assign_opIddEEEEvRT_RKT0_RKT1_, symObjAddr: 0x44EC, symBinAddr: 0x10000607C, symSize: 0xE0 }
  - { offsetInCU: 0x1EB1, offset: 0x1EB1, size: 0x8, addend: 0x0, symName: __ZN5Eigen8internal17resize_if_allowedINS_6MatrixIdLi2ELi2ELi0ELi2ELi2EEENS_13CwiseBinaryOpINS0_13scalar_sum_opIddEEKS3_S7_EEddEEvRT_RKT0_RKNS0_9assign_opIT1_T2_EE, symObjAddr: 0x4614, symBinAddr: 0x1000061A4, symSize: 0xF8 }
  - { offsetInCU: 0x1FB3, offset: 0x1FB3, size: 0x8, addend: 0x0, symName: __ZN5Eigen8internal6pstoreId19__simd128_float64_tEEvPT_RKT0_, symObjAddr: 0x4CC8, symBinAddr: 0x100006858, symSize: 0x2C }
  - { offsetInCU: 0x206C, offset: 0x206C, size: 0x8, addend: 0x0, symName: __ZN5Eigen8internal4paddI19__simd128_float64_tEET_RKS3_S5_, symObjAddr: 0x4D98, symBinAddr: 0x100006928, symSize: 0x40 }
  - { offsetInCU: 0x20B2, offset: 0x20B2, size: 0x8, addend: 0x0, symName: __ZN5Eigen8internal5ploadI19__simd128_float64_tEET_PKNS0_15unpacket_traitsIS3_E4typeE, symObjAddr: 0x4DD8, symBinAddr: 0x100006968, symSize: 0x28 }
  - { offsetInCU: 0x21B5, offset: 0x21B5, size: 0x8, addend: 0x0, symName: __ZN5EigenL6lastp1E, symObjAddr: 0x62834, symBinAddr: 0x10000C001, symSize: 0x0 }
  - { offsetInCU: 0x21CE, offset: 0x21CE, size: 0x8, addend: 0x0, symName: __ZN5EigenL3allE, symObjAddr: 0x62837, symBinAddr: 0x10000C004, symSize: 0x0 }
  - { offsetInCU: 0x21E7, offset: 0x21E7, size: 0x8, addend: 0x0, symName: __ZN5EigenL3fixILi1EEE, symObjAddr: 0x62836, symBinAddr: 0x10000C003, symSize: 0x0 }
  - { offsetInCU: 0xB1C1, offset: 0xB1C1, size: 0x8, addend: 0x0, symName: __ZN5EigenlsINS_6MatrixIdLi2ELi2ELi0ELi2ELi2EEEEERNSt3__113basic_ostreamIcNS3_11char_traitsIcEEEES8_RKNS_9DenseBaseIT_EE, symObjAddr: 0x4D0, symBinAddr: 0x100002060, symSize: 0x208 }
  - { offsetInCU: 0xEDDC, offset: 0xEDDC, size: 0x8, addend: 0x0, symName: __ZNSt3__124__put_character_sequenceB8ue170006IcNS_11char_traitsIcEEEERNS_13basic_ostreamIT_T0_EES7_PKS4_m, symObjAddr: 0x1CB8, symBinAddr: 0x100003848, symSize: 0x1EC }
  - { offsetInCU: 0x10742, offset: 0x10742, size: 0x8, addend: 0x0, symName: __ZNSt3__1lsB8ue170006INS_11char_traitsIcEEEERNS_13basic_ostreamIcT_EES6_PKc, symObjAddr: 0x6D8, symBinAddr: 0x100002268, symSize: 0x48 }
  - { offsetInCU: 0x10788, offset: 0x10788, size: 0x8, addend: 0x0, symName: __ZNSt3__14endlB8ue170006IcNS_11char_traitsIcEEEERNS_13basic_ostreamIT_T0_EES7_, symObjAddr: 0x74C, symBinAddr: 0x1000022DC, symSize: 0x58 }
  - { offsetInCU: 0x107C8, offset: 0x107C8, size: 0x8, addend: 0x0, symName: __ZNSt3__116__pad_and_outputB8ue170006IcNS_11char_traitsIcEEEENS_19ostreambuf_iteratorIT_T0_EES6_PKS4_S8_S8_RNS_8ios_baseES4_, symObjAddr: 0x1EF4, symBinAddr: 0x100003A84, symSize: 0x240 }
  - { offsetInCU: 0x10897, offset: 0x10897, size: 0x8, addend: 0x0, symName: __ZNSt3__112__to_addressB8ue170006IKcEEPT_S3_, symObjAddr: 0x245C, symBinAddr: 0x100003FEC, symSize: 0x14 }
  - { offsetInCU: 0x108FF, offset: 0x108FF, size: 0x8, addend: 0x0, symName: __ZNSt3__19use_facetB8ue170006INS_5ctypeIcEEEERKT_RKNS_6localeE, symObjAddr: 0x26DC, symBinAddr: 0x10000426C, symSize: 0x2C }
  - { offsetInCU: 0x10DCC, offset: 0x10DCC, size: 0x8, addend: 0x0, symName: __ZNSt3__118__constexpr_strlenB8ue170006EPKc, symObjAddr: 0x2774, symBinAddr: 0x100004304, symSize: 0x24 }
  - { offsetInCU: 0x10DF8, offset: 0x10DF8, size: 0x8, addend: 0x0, symName: __ZNSt3__1lsB8ue170006IcNS_11char_traitsIcEENS_9allocatorIcEEEERNS_13basic_ostreamIT_T0_EES9_RKNS_12basic_stringIS6_S7_T1_EE, symObjAddr: 0x2E68, symBinAddr: 0x1000049F8, symSize: 0x4C }
  - { offsetInCU: 0x1178C, offset: 0x1178C, size: 0x8, addend: 0x0, symName: __ZNSt3__13maxB8ue170006IlEERKT_S3_S3_, symObjAddr: 0x3058, symBinAddr: 0x100004BE8, symSize: 0x2C }
  - { offsetInCU: 0x117DA, offset: 0x117DA, size: 0x8, addend: 0x0, symName: __ZNSt3__13maxB8ue170006IlNS_6__lessIvvEEEERKT_S5_S5_T0_, symObjAddr: 0x35C8, symBinAddr: 0x100005158, symSize: 0x54 }
  - { offsetInCU: 0x14838, offset: 0x14838, size: 0x8, addend: 0x0, symName: __ZN5Eigen8symbolic10SymbolExprINS_8internal17symbolic_last_tagEEC1Ev, symObjAddr: 0x0, symBinAddr: 0x100001B90, symSize: 0x2C }
  - { offsetInCU: 0x14862, offset: 0x14862, size: 0x8, addend: 0x0, symName: __ZNK5Eigen8symbolic8BaseExprINS0_10SymbolExprINS_8internal17symbolic_last_tagEEEEplILi1EEENS0_7AddExprIS5_NS0_9ValueExprINS3_8FixedIntIXT_EEEEEEESB_, symObjAddr: 0x2C, symBinAddr: 0x100001BBC, symSize: 0x48 }
  - { offsetInCU: 0x1489D, offset: 0x1489D, size: 0x8, addend: 0x0, symName: __ZNK5Eigen8internal8FixedIntILi1EEclEv, symObjAddr: 0x74, symBinAddr: 0x100001C04, symSize: 0x10 }
  - { offsetInCU: 0x148C3, offset: 0x148C3, size: 0x8, addend: 0x0, symName: __ZN5Eigen8internal5all_tC1Ev, symObjAddr: 0x84, symBinAddr: 0x100001C14, symSize: 0x2C }
  - { offsetInCU: 0x148ED, offset: 0x148ED, size: 0x8, addend: 0x0, symName: _main, symObjAddr: 0xB0, symBinAddr: 0x100001C40, symSize: 0x290 }
  - { offsetInCU: 0x14C11, offset: 0x14C11, size: 0x8, addend: 0x0, symName: __ZN5Eigen5ArrayIiLin1ELi1ELi0ELin1ELi1EEC1IiEERKT_, symObjAddr: 0x340, symBinAddr: 0x100001ED0, symSize: 0x34 }
  - { offsetInCU: 0x14F02, offset: 0x14F02, size: 0x8, addend: 0x0, symName: __ZN5Eigen5ArrayIfLin1ELin1ELi0ELin1ELin1EEC1IiiEERKT_RKT0_, symObjAddr: 0x374, symBinAddr: 0x100001F04, symSize: 0x3C }
  - { offsetInCU: 0x14F5A, offset: 0x14F5A, size: 0x8, addend: 0x0, symName: __ZN5Eigen6MatrixIdLi2ELi2ELi0ELi2ELi2EEC1Ev, symObjAddr: 0x3B0, symBinAddr: 0x100001F40, symSize: 0x2C }
  - { offsetInCU: 0x14F84, offset: 0x14F84, size: 0x8, addend: 0x0, symName: __ZN5Eigen15DenseCoeffsBaseINS_6MatrixIdLi2ELi2ELi0ELi2ELi2EEELi1EEclEll, symObjAddr: 0x3DC, symBinAddr: 0x100001F6C, symSize: 0xF4 }
  - { offsetInCU: 0x14FC8, offset: 0x14FC8, size: 0x8, addend: 0x0, symName: __ZNSt3__113basic_ostreamIcNS_11char_traitsIcEEElsB8ue170006EPFRS3_S4_E, symObjAddr: 0x720, symBinAddr: 0x1000022B0, symSize: 0x2C }
  - { offsetInCU: 0x14FFC, offset: 0x14FFC, size: 0x8, addend: 0x0, symName: __ZN5Eigen9DenseBaseINS_6MatrixIdLi2ELi2ELi0ELi2ELi2EEEElsERKd, symObjAddr: 0x7A4, symBinAddr: 0x100002334, symSize: 0x40 }
  - { offsetInCU: 0x15033, offset: 0x15033, size: 0x8, addend: 0x0, symName: __ZN5Eigen16CommaInitializerINS_6MatrixIdLi2ELi2ELi0ELi2ELi2EEEEcmERKd, symObjAddr: 0x7E4, symBinAddr: 0x100002374, symSize: 0x1B8 }
  - { offsetInCU: 0x15067, offset: 0x15067, size: 0x8, addend: 0x0, symName: __ZN5Eigen16CommaInitializerINS_6MatrixIdLi2ELi2ELi0ELi2ELi2EEEED1Ev, symObjAddr: 0x99C, symBinAddr: 0x10000252C, symSize: 0x2C }
  - { offsetInCU: 0x15091, offset: 0x15091, size: 0x8, addend: 0x0, symName: __ZNK5Eigen10MatrixBaseINS_6MatrixIdLi2ELi2ELi0ELi2ELi2EEEEplIS2_EEKNS_13CwiseBinaryOpINS_8internal13scalar_sum_opIdNS6_6traitsIT_E6ScalarEEEKS2_KS9_EERKNS0_IS9_EE, symObjAddr: 0x9C8, symBinAddr: 0x100002558, symSize: 0x60 }
  - { offsetInCU: 0x150D3, offset: 0x150D3, size: 0x8, addend: 0x0, symName: __ZN5Eigen6MatrixIdLi2ELi2ELi0ELi2ELi2EEC1INS_13CwiseBinaryOpINS_8internal13scalar_sum_opIddEEKS1_S7_EEEERKNS_9EigenBaseIT_EE, symObjAddr: 0xA28, symBinAddr: 0x1000025B8, symSize: 0x34 }
  - { offsetInCU: 0x15115, offset: 0x15115, size: 0x8, addend: 0x0, symName: __ZN5Eigen5ArrayIfLin1ELin1ELi0ELin1ELin1EED1Ev, symObjAddr: 0xA5C, symBinAddr: 0x1000025EC, symSize: 0x2C }
  - { offsetInCU: 0x15141, offset: 0x15141, size: 0x8, addend: 0x0, symName: __ZN5Eigen5ArrayIiLin1ELi1ELi0ELin1ELi1EED1Ev, symObjAddr: 0xA88, symBinAddr: 0x100002618, symSize: 0x2C }
  - { offsetInCU: 0x1516D, offset: 0x1516D, size: 0x8, addend: 0x0, symName: __ZN5Eigen8internal8FixedIntILi1EEC1Ev, symObjAddr: 0xAB4, symBinAddr: 0x100002644, symSize: 0x2C }
  - { offsetInCU: 0x15197, offset: 0x15197, size: 0x8, addend: 0x0, symName: __ZN5Eigen8internal5all_tC2Ev, symObjAddr: 0xAE0, symBinAddr: 0x100002670, symSize: 0x14 }
  - { offsetInCU: 0x151C1, offset: 0x151C1, size: 0x8, addend: 0x0, symName: __ZN5Eigen5ArrayIfLin1ELin1ELi0ELin1ELin1EED2Ev, symObjAddr: 0xAF4, symBinAddr: 0x100002684, symSize: 0x2C }
  - { offsetInCU: 0x151ED, offset: 0x151ED, size: 0x8, addend: 0x0, symName: __ZN5Eigen15PlainObjectBaseINS_5ArrayIfLin1ELin1ELi0ELin1ELin1EEEED2Ev, symObjAddr: 0xB20, symBinAddr: 0x1000026B0, symSize: 0x2C }
  - { offsetInCU: 0x15219, offset: 0x15219, size: 0x8, addend: 0x0, symName: __ZN5Eigen12DenseStorageIfLin1ELin1ELin1ELi0EED1Ev, symObjAddr: 0xB4C, symBinAddr: 0x1000026DC, symSize: 0x2C }
  - { offsetInCU: 0x15243, offset: 0x15243, size: 0x8, addend: 0x0, symName: __ZN5Eigen12DenseStorageIfLin1ELin1ELin1ELi0EED2Ev, symObjAddr: 0xB78, symBinAddr: 0x100002708, symSize: 0x44 }
  - { offsetInCU: 0x1526D, offset: 0x1526D, size: 0x8, addend: 0x0, symName: __ZN5Eigen5ArrayIiLin1ELi1ELi0ELin1ELi1EED2Ev, symObjAddr: 0xC38, symBinAddr: 0x1000027C8, symSize: 0x2C }
  - { offsetInCU: 0x15299, offset: 0x15299, size: 0x8, addend: 0x0, symName: __ZN5Eigen15PlainObjectBaseINS_5ArrayIiLin1ELi1ELi0ELin1ELi1EEEED2Ev, symObjAddr: 0xC64, symBinAddr: 0x1000027F4, symSize: 0x2C }
  - { offsetInCU: 0x152C5, offset: 0x152C5, size: 0x8, addend: 0x0, symName: __ZN5Eigen12DenseStorageIiLin1ELin1ELi1ELi0EED1Ev, symObjAddr: 0xC90, symBinAddr: 0x100002820, symSize: 0x2C }
  - { offsetInCU: 0x152EF, offset: 0x152EF, size: 0x8, addend: 0x0, symName: __ZN5Eigen12DenseStorageIiLin1ELin1ELi1ELi0EED2Ev, symObjAddr: 0xCBC, symBinAddr: 0x10000284C, symSize: 0x44 }
  - { offsetInCU: 0x15319, offset: 0x15319, size: 0x8, addend: 0x0, symName: __ZN5Eigen8symbolic10SymbolExprINS_8internal17symbolic_last_tagEEC2Ev, symObjAddr: 0xD28, symBinAddr: 0x1000028B8, symSize: 0x14 }
  - { offsetInCU: 0x15343, offset: 0x15343, size: 0x8, addend: 0x0, symName: __ZN5Eigen8internal8FixedIntILi1EEC2Ev, symObjAddr: 0xD3C, symBinAddr: 0x1000028CC, symSize: 0x14 }
  - { offsetInCU: 0x1536D, offset: 0x1536D, size: 0x8, addend: 0x0, symName: __ZNK5Eigen8symbolic8BaseExprINS0_10SymbolExprINS_8internal17symbolic_last_tagEEEE7derivedEv, symObjAddr: 0xD50, symBinAddr: 0x1000028E0, symSize: 0x14 }
  - { offsetInCU: 0x15393, offset: 0x15393, size: 0x8, addend: 0x0, symName: __ZN5Eigen8symbolic9ValueExprINS_8internal8FixedIntILi1EEEEC1Ev, symObjAddr: 0xD64, symBinAddr: 0x1000028F4, symSize: 0x2C }
  - { offsetInCU: 0x153BD, offset: 0x153BD, size: 0x8, addend: 0x0, symName: __ZN5Eigen8symbolic7AddExprINS0_10SymbolExprINS_8internal17symbolic_last_tagEEENS0_9ValueExprINS3_8FixedIntILi1EEEEEEC1ERKS5_RKS9_, symObjAddr: 0xD90, symBinAddr: 0x100002920, symSize: 0x3C }
  - { offsetInCU: 0x15403, offset: 0x15403, size: 0x8, addend: 0x0, symName: __ZN5Eigen8symbolic9ValueExprINS_8internal8FixedIntILi1EEEEC2Ev, symObjAddr: 0xDCC, symBinAddr: 0x10000295C, symSize: 0x14 }
  - { offsetInCU: 0x1542D, offset: 0x1542D, size: 0x8, addend: 0x0, symName: __ZN5Eigen8symbolic7AddExprINS0_10SymbolExprINS_8internal17symbolic_last_tagEEENS0_9ValueExprINS3_8FixedIntILi1EEEEEEC2ERKS5_RKS9_, symObjAddr: 0xDE0, symBinAddr: 0x100002970, symSize: 0x1C }
  - { offsetInCU: 0x15473, offset: 0x15473, size: 0x8, addend: 0x0, symName: __ZN5Eigen5ArrayIiLin1ELi1ELi0ELin1ELi1EEC2IiEERKT_, symObjAddr: 0xDFC, symBinAddr: 0x10000298C, symSize: 0x74 }
  - { offsetInCU: 0x154B4, offset: 0x154B4, size: 0x8, addend: 0x0, symName: __ZN5Eigen15PlainObjectBaseINS_5ArrayIiLin1ELi1ELi0ELin1ELi1EEEEC2Ev, symObjAddr: 0xE70, symBinAddr: 0x100002A00, symSize: 0x34 }
  - { offsetInCU: 0x154DE, offset: 0x154DE, size: 0x8, addend: 0x0, symName: __ZN5Eigen15PlainObjectBaseINS_5ArrayIiLin1ELi1ELi0ELin1ELi1EEEE22_check_template_paramsEv, symObjAddr: 0xEA4, symBinAddr: 0x100002A34, symSize: 0x4 }
  - { offsetInCU: 0x154F7, offset: 0x154F7, size: 0x8, addend: 0x0, symName: __ZN5Eigen15PlainObjectBaseINS_5ArrayIiLin1ELi1ELi0ELin1ELi1EEEE6_init1IiEEvlPNS_8internal9enable_ifIXaaooneLNS_9DenseBaseIS2_EUt_En1ELi1Entsr8internal14is_convertibleIT_iEE5valueoontLNS5_7is_sameINS_8ArrayXprESC_EUt_E1EeqLS9_n1EL_ZNS_L7DynamicEEESA_E4typeE, symObjAddr: 0xEA8, symBinAddr: 0x100002A38, symSize: 0x48 }
  - { offsetInCU: 0x1554F, offset: 0x1554F, size: 0x8, addend: 0x0, symName: __ZN5Eigen9ArrayBaseINS_5ArrayIiLin1ELi1ELi0ELin1ELi1EEEEC2Ev, symObjAddr: 0xEF0, symBinAddr: 0x100002A80, symSize: 0x2C }
  - { offsetInCU: 0x15579, offset: 0x15579, size: 0x8, addend: 0x0, symName: __ZN5Eigen12DenseStorageIiLin1ELin1ELi1ELi0EEC1Ev, symObjAddr: 0xF1C, symBinAddr: 0x100002AAC, symSize: 0x2C }
  - { offsetInCU: 0x155A3, offset: 0x155A3, size: 0x8, addend: 0x0, symName: __ZN5Eigen9DenseBaseINS_5ArrayIiLin1ELi1ELi0ELin1ELi1EEEEC2Ev, symObjAddr: 0xF48, symBinAddr: 0x100002AD8, symSize: 0x14 }
  - { offsetInCU: 0x155CD, offset: 0x155CD, size: 0x8, addend: 0x0, symName: __ZN5Eigen12DenseStorageIiLin1ELin1ELi1ELi0EEC2Ev, symObjAddr: 0xF5C, symBinAddr: 0x100002AEC, symSize: 0x1C }
  - { offsetInCU: 0x155F7, offset: 0x155F7, size: 0x8, addend: 0x0, symName: __ZN5Eigen15PlainObjectBaseINS_5ArrayIiLin1ELi1ELi0ELin1ELi1EEEE6resizeEl, symObjAddr: 0xF88, symBinAddr: 0x100002B18, symSize: 0x74 }
  - { offsetInCU: 0x1562C, offset: 0x1562C, size: 0x8, addend: 0x0, symName: __ZN5Eigen12DenseStorageIiLin1ELin1ELi1ELi0EE6resizeElll, symObjAddr: 0xFFC, symBinAddr: 0x100002B8C, symSize: 0xA4 }
  - { offsetInCU: 0x1567B, offset: 0x1567B, size: 0x8, addend: 0x0, symName: __ZN5Eigen5ArrayIfLin1ELin1ELi0ELin1ELin1EEC2IiiEERKT_RKT0_, symObjAddr: 0x125C, symBinAddr: 0x100002DEC, symSize: 0x80 }
  - { offsetInCU: 0x156D3, offset: 0x156D3, size: 0x8, addend: 0x0, symName: __ZN5Eigen15PlainObjectBaseINS_5ArrayIfLin1ELin1ELi0ELin1ELin1EEEEC2Ev, symObjAddr: 0x12DC, symBinAddr: 0x100002E6C, symSize: 0x34 }
  - { offsetInCU: 0x156FD, offset: 0x156FD, size: 0x8, addend: 0x0, symName: __ZN5Eigen15PlainObjectBaseINS_5ArrayIfLin1ELin1ELi0ELin1ELin1EEEE22_check_template_paramsEv, symObjAddr: 0x1310, symBinAddr: 0x100002EA0, symSize: 0x4 }
  - { offsetInCU: 0x15711, offset: 0x15711, size: 0x8, addend: 0x0, symName: __ZN5Eigen15PlainObjectBaseINS_5ArrayIfLin1ELin1ELi0ELin1ELin1EEEE6_init2IiiEEvllPNS_8internal9enable_ifILb1ET_E4typeE, symObjAddr: 0x1314, symBinAddr: 0x100002EA4, symSize: 0x44 }
  - { offsetInCU: 0x15790, offset: 0x15790, size: 0x8, addend: 0x0, symName: __ZN5Eigen9ArrayBaseINS_5ArrayIfLin1ELin1ELi0ELin1ELin1EEEEC2Ev, symObjAddr: 0x1358, symBinAddr: 0x100002EE8, symSize: 0x2C }
  - { offsetInCU: 0x157BA, offset: 0x157BA, size: 0x8, addend: 0x0, symName: __ZN5Eigen12DenseStorageIfLin1ELin1ELin1ELi0EEC1Ev, symObjAddr: 0x1384, symBinAddr: 0x100002F14, symSize: 0x2C }
  - { offsetInCU: 0x157E4, offset: 0x157E4, size: 0x8, addend: 0x0, symName: __ZN5Eigen9DenseBaseINS_5ArrayIfLin1ELin1ELi0ELin1ELin1EEEEC2Ev, symObjAddr: 0x13B0, symBinAddr: 0x100002F40, symSize: 0x14 }
  - { offsetInCU: 0x1580E, offset: 0x1580E, size: 0x8, addend: 0x0, symName: __ZN5Eigen12DenseStorageIfLin1ELin1ELin1ELi0EEC2Ev, symObjAddr: 0x13C4, symBinAddr: 0x100002F54, symSize: 0x20 }
  - { offsetInCU: 0x15879, offset: 0x15879, size: 0x8, addend: 0x0, symName: __ZN5Eigen15PlainObjectBaseINS_5ArrayIfLin1ELin1ELi0ELin1ELin1EEEE6resizeEll, symObjAddr: 0x13E4, symBinAddr: 0x100002F74, symSize: 0x14C }
  - { offsetInCU: 0x158F5, offset: 0x158F5, size: 0x8, addend: 0x0, symName: __ZN5Eigen12DenseStorageIfLin1ELin1ELin1ELi0EE6resizeElll, symObjAddr: 0x1530, symBinAddr: 0x1000030C0, symSize: 0xB4 }
  - { offsetInCU: 0x15948, offset: 0x15948, size: 0x8, addend: 0x0, symName: __ZN5Eigen6MatrixIdLi2ELi2ELi0ELi2ELi2EEC2Ev, symObjAddr: 0x1668, symBinAddr: 0x1000031F8, symSize: 0x30 }
  - { offsetInCU: 0x15972, offset: 0x15972, size: 0x8, addend: 0x0, symName: __ZN5Eigen15PlainObjectBaseINS_6MatrixIdLi2ELi2ELi0ELi2ELi2EEEEC2Ev, symObjAddr: 0x1698, symBinAddr: 0x100003228, symSize: 0x34 }
  - { offsetInCU: 0x1599C, offset: 0x1599C, size: 0x8, addend: 0x0, symName: __ZN5Eigen15PlainObjectBaseINS_6MatrixIdLi2ELi2ELi0ELi2ELi2EEEE22_check_template_paramsEv, symObjAddr: 0x16CC, symBinAddr: 0x10000325C, symSize: 0x4 }
  - { offsetInCU: 0x159B0, offset: 0x159B0, size: 0x8, addend: 0x0, symName: __ZN5Eigen10MatrixBaseINS_6MatrixIdLi2ELi2ELi0ELi2ELi2EEEEC2Ev, symObjAddr: 0x16D0, symBinAddr: 0x100003260, symSize: 0x2C }
  - { offsetInCU: 0x159DA, offset: 0x159DA, size: 0x8, addend: 0x0, symName: __ZN5Eigen12DenseStorageIdLi4ELi2ELi2ELi0EEC1Ev, symObjAddr: 0x16FC, symBinAddr: 0x10000328C, symSize: 0x2C }
  - { offsetInCU: 0x15A04, offset: 0x15A04, size: 0x8, addend: 0x0, symName: __ZN5Eigen9DenseBaseINS_6MatrixIdLi2ELi2ELi0ELi2ELi2EEEEC2Ev, symObjAddr: 0x1728, symBinAddr: 0x1000032B8, symSize: 0x14 }
  - { offsetInCU: 0x15A2E, offset: 0x15A2E, size: 0x8, addend: 0x0, symName: __ZN5Eigen12DenseStorageIdLi4ELi2ELi2ELi0EEC2Ev, symObjAddr: 0x173C, symBinAddr: 0x1000032CC, symSize: 0x2C }
  - { offsetInCU: 0x15A58, offset: 0x15A58, size: 0x8, addend: 0x0, symName: __ZN5Eigen8internal11plain_arrayIdLi4ELi0ELi16EEC1Ev, symObjAddr: 0x1768, symBinAddr: 0x1000032F8, symSize: 0x2C }
  - { offsetInCU: 0x15A82, offset: 0x15A82, size: 0x8, addend: 0x0, symName: __ZN5Eigen8internal11plain_arrayIdLi4ELi0ELi16EEC2Ev, symObjAddr: 0x1794, symBinAddr: 0x100003324, symSize: 0x80 }
  - { offsetInCU: 0x15AAC, offset: 0x15AAC, size: 0x8, addend: 0x0, symName: __ZNK5Eigen9EigenBaseINS_6MatrixIdLi2ELi2ELi0ELi2ELi2EEEE4rowsEv, symObjAddr: 0x1818, symBinAddr: 0x1000033A8, symSize: 0x38 }
  - { offsetInCU: 0x15AD2, offset: 0x15AD2, size: 0x8, addend: 0x0, symName: __ZNK5Eigen9EigenBaseINS_6MatrixIdLi2ELi2ELi0ELi2ELi2EEEE4colsEv, symObjAddr: 0x1850, symBinAddr: 0x1000033E0, symSize: 0x28 }
  - { offsetInCU: 0x15AF8, offset: 0x15AF8, size: 0x8, addend: 0x0, symName: __ZN5Eigen15DenseCoeffsBaseINS_6MatrixIdLi2ELi2ELi0ELi2ELi2EEELi1EE8coeffRefEll, symObjAddr: 0x1878, symBinAddr: 0x100003408, symSize: 0x80 }
  - { offsetInCU: 0x15B3C, offset: 0x15B3C, size: 0x8, addend: 0x0, symName: __ZNK5Eigen9EigenBaseINS_6MatrixIdLi2ELi2ELi0ELi2ELi2EEEE7derivedEv, symObjAddr: 0x18F8, symBinAddr: 0x100003488, symSize: 0x14 }
  - { offsetInCU: 0x15B62, offset: 0x15B62, size: 0x8, addend: 0x0, symName: __ZNK5Eigen15PlainObjectBaseINS_6MatrixIdLi2ELi2ELi0ELi2ELi2EEEE4rowsEv, symObjAddr: 0x190C, symBinAddr: 0x10000349C, symSize: 0x20 }
  - { offsetInCU: 0x15B88, offset: 0x15B88, size: 0x8, addend: 0x0, symName: __ZN5Eigen12DenseStorageIdLi4ELi2ELi2ELi0EE4rowsEv, symObjAddr: 0x192C, symBinAddr: 0x1000034BC, symSize: 0x8 }
  - { offsetInCU: 0x15B9C, offset: 0x15B9C, size: 0x8, addend: 0x0, symName: __ZNK5Eigen15PlainObjectBaseINS_6MatrixIdLi2ELi2ELi0ELi2ELi2EEEE4colsEv, symObjAddr: 0x1934, symBinAddr: 0x1000034C4, symSize: 0x20 }
  - { offsetInCU: 0x15BC2, offset: 0x15BC2, size: 0x8, addend: 0x0, symName: __ZN5Eigen12DenseStorageIdLi4ELi2ELi2ELi0EE4colsEv, symObjAddr: 0x1954, symBinAddr: 0x1000034E4, symSize: 0x8 }
  - { offsetInCU: 0x15BD6, offset: 0x15BD6, size: 0x8, addend: 0x0, symName: __ZN5Eigen9EigenBaseINS_6MatrixIdLi2ELi2ELi0ELi2ELi2EEEE7derivedEv, symObjAddr: 0x195C, symBinAddr: 0x1000034EC, symSize: 0x14 }
  - { offsetInCU: 0x15BFC, offset: 0x15BFC, size: 0x8, addend: 0x0, symName: __ZN5Eigen8internal9evaluatorINS_6MatrixIdLi2ELi2ELi0ELi2ELi2EEEEC1ERKS3_, symObjAddr: 0x1970, symBinAddr: 0x100003500, symSize: 0x34 }
  - { offsetInCU: 0x15C35, offset: 0x15C35, size: 0x8, addend: 0x0, symName: __ZN5Eigen8internal9evaluatorINS_15PlainObjectBaseINS_6MatrixIdLi2ELi2ELi0ELi2ELi2EEEEEE8coeffRefEll, symObjAddr: 0x19A4, symBinAddr: 0x100003534, symSize: 0x5C }
  - { offsetInCU: 0x15C77, offset: 0x15C77, size: 0x8, addend: 0x0, symName: __ZN5Eigen8internal9evaluatorINS_6MatrixIdLi2ELi2ELi0ELi2ELi2EEEED1Ev, symObjAddr: 0x1A00, symBinAddr: 0x100003590, symSize: 0x2C }
  - { offsetInCU: 0x15CA4, offset: 0x15CA4, size: 0x8, addend: 0x0, symName: __ZN5Eigen8internal9evaluatorINS_6MatrixIdLi2ELi2ELi0ELi2ELi2EEEEC2ERKS3_, symObjAddr: 0x1A2C, symBinAddr: 0x1000035BC, symSize: 0x34 }
  - { offsetInCU: 0x15CDD, offset: 0x15CDD, size: 0x8, addend: 0x0, symName: __ZN5Eigen8internal9evaluatorINS_15PlainObjectBaseINS_6MatrixIdLi2ELi2ELi0ELi2ELi2EEEEEEC2ERKS5_, symObjAddr: 0x1A60, symBinAddr: 0x1000035F0, symSize: 0x80 }
  - { offsetInCU: 0x15D15, offset: 0x15D15, size: 0x8, addend: 0x0, symName: __ZN5Eigen8internal14evaluator_baseINS_6MatrixIdLi2ELi2ELi0ELi2ELi2EEEEC2Ev, symObjAddr: 0x1AE0, symBinAddr: 0x100003670, symSize: 0x14 }
  - { offsetInCU: 0x15D3F, offset: 0x15D3F, size: 0x8, addend: 0x0, symName: __ZNK5Eigen15PlainObjectBaseINS_6MatrixIdLi2ELi2ELi0ELi2ELi2EEEE4dataEv, symObjAddr: 0x1AF4, symBinAddr: 0x100003684, symSize: 0x24 }
  - { offsetInCU: 0x15D65, offset: 0x15D65, size: 0x8, addend: 0x0, symName: __ZNK5Eigen15DenseCoeffsBaseINS_6MatrixIdLi2ELi2ELi0ELi2ELi2EEELi3EE11outerStrideEv, symObjAddr: 0x1B18, symBinAddr: 0x1000036A8, symSize: 0x28 }
  - { offsetInCU: 0x15D8B, offset: 0x15D8B, size: 0x8, addend: 0x0, symName: __ZN5Eigen8internal30plainobjectbase_evaluator_dataIdLi2EEC1EPKdl, symObjAddr: 0x1B40, symBinAddr: 0x1000036D0, symSize: 0x3C }
  - { offsetInCU: 0x15DD1, offset: 0x15DD1, size: 0x8, addend: 0x0, symName: __ZN5Eigen8internal14evaluator_baseINS_6MatrixIdLi2ELi2ELi0ELi2ELi2EEEED2Ev, symObjAddr: 0x1B7C, symBinAddr: 0x10000370C, symSize: 0x14 }
  - { offsetInCU: 0x15DFB, offset: 0x15DFB, size: 0x8, addend: 0x0, symName: __ZNK5Eigen12DenseStorageIdLi4ELi2ELi2ELi0EE4dataEv, symObjAddr: 0x1B90, symBinAddr: 0x100003720, symSize: 0x14 }
  - { offsetInCU: 0x15E21, offset: 0x15E21, size: 0x8, addend: 0x0, symName: __ZNK5Eigen6MatrixIdLi2ELi2ELi0ELi2ELi2EE11outerStrideEv, symObjAddr: 0x1BA4, symBinAddr: 0x100003734, symSize: 0x34 }
  - { offsetInCU: 0x15E47, offset: 0x15E47, size: 0x8, addend: 0x0, symName: __ZNK5Eigen9DenseBaseINS_6MatrixIdLi2ELi2ELi0ELi2ELi2EEEE9innerSizeEv, symObjAddr: 0x1BD8, symBinAddr: 0x100003768, symSize: 0x24 }
  - { offsetInCU: 0x15E6D, offset: 0x15E6D, size: 0x8, addend: 0x0, symName: __ZN5Eigen8internal30plainobjectbase_evaluator_dataIdLi2EEC2EPKdl, symObjAddr: 0x1BFC, symBinAddr: 0x10000378C, symSize: 0x40 }
  - { offsetInCU: 0x15EB3, offset: 0x15EB3, size: 0x8, addend: 0x0, symName: __ZNK5Eigen8internal30plainobjectbase_evaluator_dataIdLi2EE11outerStrideEv, symObjAddr: 0x1C4C, symBinAddr: 0x1000037DC, symSize: 0x14 }
  - { offsetInCU: 0x15ED9, offset: 0x15ED9, size: 0x8, addend: 0x0, symName: __ZN5Eigen8internal9evaluatorINS_6MatrixIdLi2ELi2ELi0ELi2ELi2EEEED2Ev, symObjAddr: 0x1C60, symBinAddr: 0x1000037F0, symSize: 0x2C }
  - { offsetInCU: 0x15F06, offset: 0x15F06, size: 0x8, addend: 0x0, symName: __ZN5Eigen8internal9evaluatorINS_15PlainObjectBaseINS_6MatrixIdLi2ELi2ELi0ELi2ELi2EEEEEED2Ev, symObjAddr: 0x1C8C, symBinAddr: 0x10000381C, symSize: 0x2C }
  - { offsetInCU: 0x15F32, offset: 0x15F32, size: 0x8, addend: 0x0, symName: __ZNSt3__111char_traitsIcE6lengthB8ue170006EPKc, symObjAddr: 0x1EA4, symBinAddr: 0x100003A34, symSize: 0x34 }
  - { offsetInCU: 0x15F73, offset: 0x15F73, size: 0x8, addend: 0x0, symName: __ZNKSt3__113basic_ostreamIcNS_11char_traitsIcEEE6sentrycvbB8ue170006Ev, symObjAddr: 0x1ED8, symBinAddr: 0x100003A68, symSize: 0x1C }
  - { offsetInCU: 0x15F99, offset: 0x15F99, size: 0x8, addend: 0x0, symName: __ZNSt3__119ostreambuf_iteratorIcNS_11char_traitsIcEEEC1B8ue170006ERNS_13basic_ostreamIcS2_EE, symObjAddr: 0x2134, symBinAddr: 0x100003CC4, symSize: 0x34 }
  - { offsetInCU: 0x15FD1, offset: 0x15FD1, size: 0x8, addend: 0x0, symName: __ZNKSt3__18ios_base5flagsB8ue170006Ev, symObjAddr: 0x2168, symBinAddr: 0x100003CF8, symSize: 0x18 }
  - { offsetInCU: 0x15FF9, offset: 0x15FF9, size: 0x8, addend: 0x0, symName: __ZNKSt3__19basic_iosIcNS_11char_traitsIcEEE4fillB8ue170006Ev, symObjAddr: 0x2180, symBinAddr: 0x100003D10, symSize: 0x64 }
  - { offsetInCU: 0x16021, offset: 0x16021, size: 0x8, addend: 0x0, symName: __ZNKSt3__119ostreambuf_iteratorIcNS_11char_traitsIcEEE6failedB8ue170006Ev, symObjAddr: 0x21E4, symBinAddr: 0x100003D74, symSize: 0x24 }
  - { offsetInCU: 0x16047, offset: 0x16047, size: 0x8, addend: 0x0, symName: __ZNSt3__19basic_iosIcNS_11char_traitsIcEEE8setstateB8ue170006Ej, symObjAddr: 0x2208, symBinAddr: 0x100003D98, symSize: 0x2C }
  - { offsetInCU: 0x1607C, offset: 0x1607C, size: 0x8, addend: 0x0, symName: __ZNKSt3__18ios_base5widthB8ue170006Ev, symObjAddr: 0x2234, symBinAddr: 0x100003DC4, symSize: 0x18 }
  - { offsetInCU: 0x160A4, offset: 0x160A4, size: 0x8, addend: 0x0, symName: __ZNSt3__115basic_streambufIcNS_11char_traitsIcEEE5sputnB8ue170006EPKcl, symObjAddr: 0x224C, symBinAddr: 0x100003DDC, symSize: 0x3C }
  - { offsetInCU: 0x160E6, offset: 0x160E6, size: 0x8, addend: 0x0, symName: __ZNSt3__112basic_stringIcNS_11char_traitsIcEENS_9allocatorIcEEEC1B8ue170006Emc, symObjAddr: 0x2288, symBinAddr: 0x100003E18, symSize: 0x3C }
  - { offsetInCU: 0x1612E, offset: 0x1612E, size: 0x8, addend: 0x0, symName: __ZNKSt3__112basic_stringIcNS_11char_traitsIcEENS_9allocatorIcEEE4dataB8ue170006Ev, symObjAddr: 0x22C4, symBinAddr: 0x100003E54, symSize: 0x28 }
  - { offsetInCU: 0x16154, offset: 0x16154, size: 0x8, addend: 0x0, symName: __ZNSt3__18ios_base5widthB8ue170006El, symObjAddr: 0x22EC, symBinAddr: 0x100003E7C, symSize: 0x2C }
  - { offsetInCU: 0x1619A, offset: 0x1619A, size: 0x8, addend: 0x0, symName: __ZNSt3__112basic_stringIcNS_11char_traitsIcEENS_9allocatorIcEEEC2B8ue170006Emc, symObjAddr: 0x2318, symBinAddr: 0x100003EA8, symSize: 0x4C }
  - { offsetInCU: 0x161E8, offset: 0x161E8, size: 0x8, addend: 0x0, symName: __ZNSt3__117__compressed_pairINS_12basic_stringIcNS_11char_traitsIcEENS_9allocatorIcEEE5__repES5_EC1B8ue170006INS_18__default_init_tagESA_EEOT_OT0_, symObjAddr: 0x2364, symBinAddr: 0x100003EF4, symSize: 0x3C }
  - { offsetInCU: 0x16240, offset: 0x16240, size: 0x8, addend: 0x0, symName: __ZNSt3__117__compressed_pairINS_12basic_stringIcNS_11char_traitsIcEENS_9allocatorIcEEE5__repES5_EC2B8ue170006INS_18__default_init_tagESA_EEOT_OT0_, symObjAddr: 0x23A0, symBinAddr: 0x100003F30, symSize: 0x3C }
  - { offsetInCU: 0x16298, offset: 0x16298, size: 0x8, addend: 0x0, symName: __ZNSt3__122__compressed_pair_elemINS_12basic_stringIcNS_11char_traitsIcEENS_9allocatorIcEEE5__repELi0ELb0EEC2B8ue170006ENS_18__default_init_tagE, symObjAddr: 0x23DC, symBinAddr: 0x100003F6C, symSize: 0x14 }
  - { offsetInCU: 0x162CD, offset: 0x162CD, size: 0x8, addend: 0x0, symName: __ZNSt3__122__compressed_pair_elemINS_9allocatorIcEELi1ELb1EEC2B8ue170006ENS_18__default_init_tagE, symObjAddr: 0x23F0, symBinAddr: 0x100003F80, symSize: 0x2C }
  - { offsetInCU: 0x16302, offset: 0x16302, size: 0x8, addend: 0x0, symName: __ZNSt3__19allocatorIcEC2B8ue170006Ev, symObjAddr: 0x241C, symBinAddr: 0x100003FAC, symSize: 0x2C }
  - { offsetInCU: 0x1632C, offset: 0x1632C, size: 0x8, addend: 0x0, symName: __ZNSt3__116__non_trivial_ifILb1ENS_9allocatorIcEEEC2B8ue170006Ev, symObjAddr: 0x2448, symBinAddr: 0x100003FD8, symSize: 0x14 }
  - { offsetInCU: 0x16356, offset: 0x16356, size: 0x8, addend: 0x0, symName: __ZNKSt3__112basic_stringIcNS_11char_traitsIcEENS_9allocatorIcEEE13__get_pointerB8ue170006Ev, symObjAddr: 0x2470, symBinAddr: 0x100004000, symSize: 0x54 }
  - { offsetInCU: 0x1637C, offset: 0x1637C, size: 0x8, addend: 0x0, symName: __ZNKSt3__112basic_stringIcNS_11char_traitsIcEENS_9allocatorIcEEE9__is_longB8ue170006Ev, symObjAddr: 0x24C4, symBinAddr: 0x100004054, symSize: 0x38 }
  - { offsetInCU: 0x163A2, offset: 0x163A2, size: 0x8, addend: 0x0, symName: __ZNKSt3__112basic_stringIcNS_11char_traitsIcEENS_9allocatorIcEEE18__get_long_pointerB8ue170006Ev, symObjAddr: 0x24FC, symBinAddr: 0x10000408C, symSize: 0x28 }
  - { offsetInCU: 0x163C8, offset: 0x163C8, size: 0x8, addend: 0x0, symName: __ZNKSt3__112basic_stringIcNS_11char_traitsIcEENS_9allocatorIcEEE19__get_short_pointerB8ue170006Ev, symObjAddr: 0x2524, symBinAddr: 0x1000040B4, symSize: 0x28 }
  - { offsetInCU: 0x163EE, offset: 0x163EE, size: 0x8, addend: 0x0, symName: __ZNKSt3__117__compressed_pairINS_12basic_stringIcNS_11char_traitsIcEENS_9allocatorIcEEE5__repES5_E5firstB8ue170006Ev, symObjAddr: 0x254C, symBinAddr: 0x1000040DC, symSize: 0x24 }
  - { offsetInCU: 0x16414, offset: 0x16414, size: 0x8, addend: 0x0, symName: __ZNKSt3__122__compressed_pair_elemINS_12basic_stringIcNS_11char_traitsIcEENS_9allocatorIcEEE5__repELi0ELb0EE5__getB8ue170006Ev, symObjAddr: 0x2570, symBinAddr: 0x100004100, symSize: 0x14 }
  - { offsetInCU: 0x1643A, offset: 0x1643A, size: 0x8, addend: 0x0, symName: __ZNSt3__114pointer_traitsIPKcE10pointer_toB8ue170006ERS1_, symObjAddr: 0x2584, symBinAddr: 0x100004114, symSize: 0x14 }
  - { offsetInCU: 0x1645D, offset: 0x1645D, size: 0x8, addend: 0x0, symName: __ZNSt3__119ostreambuf_iteratorIcNS_11char_traitsIcEEEC2B8ue170006ERNS_13basic_ostreamIcS2_EE, symObjAddr: 0x2598, symBinAddr: 0x100004128, symSize: 0x54 }
  - { offsetInCU: 0x16495, offset: 0x16495, size: 0x8, addend: 0x0, symName: __ZNKSt3__19basic_iosIcNS_11char_traitsIcEEE5rdbufB8ue170006Ev, symObjAddr: 0x25EC, symBinAddr: 0x10000417C, symSize: 0x24 }
  - { offsetInCU: 0x164BD, offset: 0x164BD, size: 0x8, addend: 0x0, symName: __ZNKSt3__18ios_base5rdbufB8ue170006Ev, symObjAddr: 0x2610, symBinAddr: 0x1000041A0, symSize: 0x18 }
  - { offsetInCU: 0x164E3, offset: 0x164E3, size: 0x8, addend: 0x0, symName: __ZNSt3__111char_traitsIcE11eq_int_typeB8ue170006Eii, symObjAddr: 0x2628, symBinAddr: 0x1000041B8, symSize: 0x28 }
  - { offsetInCU: 0x16516, offset: 0x16516, size: 0x8, addend: 0x0, symName: __ZNSt3__111char_traitsIcE3eofB8ue170006Ev, symObjAddr: 0x2650, symBinAddr: 0x1000041E0, symSize: 0x8 }
  - { offsetInCU: 0x1652A, offset: 0x1652A, size: 0x8, addend: 0x0, symName: __ZNKSt3__19basic_iosIcNS_11char_traitsIcEEE5widenB8ue170006Ec, symObjAddr: 0x2658, symBinAddr: 0x1000041E8, symSize: 0x84 }
  - { offsetInCU: 0x16598, offset: 0x16598, size: 0x8, addend: 0x0, symName: __ZNKSt3__15ctypeIcE5widenB8ue170006Ec, symObjAddr: 0x2708, symBinAddr: 0x100004298, symSize: 0x38 }
  - { offsetInCU: 0x165CD, offset: 0x165CD, size: 0x8, addend: 0x0, symName: __ZNSt3__18ios_base8setstateB8ue170006Ej, symObjAddr: 0x2740, symBinAddr: 0x1000042D0, symSize: 0x34 }
  - { offsetInCU: 0x16604, offset: 0x16604, size: 0x8, addend: 0x0, symName: __ZNK5Eigen9DenseBaseINS_6MatrixIdLi2ELi2ELi0ELi2ELi2EEEE4evalEv, symObjAddr: 0x2D18, symBinAddr: 0x1000048A8, symSize: 0x24 }
  - { offsetInCU: 0x1662F, offset: 0x1662F, size: 0x8, addend: 0x0, symName: __ZNSt3__112basic_stringIcNS_11char_traitsIcEENS_9allocatorIcEEEC1B8ue170006ILi0EEEPKc, symObjAddr: 0x2D3C, symBinAddr: 0x1000048CC, symSize: 0x34 }
  - { offsetInCU: 0x1666E, offset: 0x1666E, size: 0x8, addend: 0x0, symName: __ZN5Eigen8IOFormatC1EiiRKNSt3__112basic_stringIcNS1_11char_traitsIcEENS1_9allocatorIcEEEES9_S9_S9_S9_S9_c, symObjAddr: 0x2D70, symBinAddr: 0x100004900, symSize: 0x88 }
  - { offsetInCU: 0x16716, offset: 0x16716, size: 0x8, addend: 0x0, symName: __ZN5Eigen8IOFormatD1Ev, symObjAddr: 0x2DF8, symBinAddr: 0x100004988, symSize: 0x2C }
  - { offsetInCU: 0x16742, offset: 0x16742, size: 0x8, addend: 0x0, symName: __ZNK5Eigen9EigenBaseINS_6MatrixIdLi2ELi2ELi0ELi2ELi2EEEE4sizeEv, symObjAddr: 0x2E24, symBinAddr: 0x1000049B4, symSize: 0x44 }
  - { offsetInCU: 0x16768, offset: 0x16768, size: 0x8, addend: 0x0, symName: __ZN5Eigen8internal25significant_decimals_implIdE3runEv, symObjAddr: 0x2EB4, symBinAddr: 0x100004A44, symSize: 0x14 }
  - { offsetInCU: 0x1677C, offset: 0x1677C, size: 0x8, addend: 0x0, symName: __ZNSt3__18ios_base9precisionB8ue170006El, symObjAddr: 0x2EC8, symBinAddr: 0x100004A58, symSize: 0x2C }
  - { offsetInCU: 0x16890, offset: 0x16890, size: 0x8, addend: 0x0, symName: __ZNSt3__118basic_stringstreamIcNS_11char_traitsIcEENS_9allocatorIcEEEC1B8ue170006Ev, symObjAddr: 0x2EF4, symBinAddr: 0x100004A84, symSize: 0x104 }
  - { offsetInCU: 0x168BA, offset: 0x168BA, size: 0x8, addend: 0x0, symName: __ZNK5Eigen15PlainObjectBaseINS_6MatrixIdLi2ELi2ELi0ELi2ELi2EEEE5coeffEll, symObjAddr: 0x2FF8, symBinAddr: 0x100004B88, symSize: 0x60 }
  - { offsetInCU: 0x168FC, offset: 0x168FC, size: 0x8, addend: 0x0, symName: __ZNKSt3__118basic_stringstreamIcNS_11char_traitsIcEENS_9allocatorIcEEE3strB8ue170006Ev, symObjAddr: 0x3084, symBinAddr: 0x100004C14, symSize: 0x30 }
  - { offsetInCU: 0x16922, offset: 0x16922, size: 0x8, addend: 0x0, symName: __ZNKSt3__112basic_stringIcNS_11char_traitsIcEENS_9allocatorIcEEE6lengthB8ue170006Ev, symObjAddr: 0x30B4, symBinAddr: 0x100004C44, symSize: 0x24 }
  - { offsetInCU: 0x1694D, offset: 0x1694D, size: 0x8, addend: 0x0, symName: __ZNSt3__118basic_stringstreamIcNS_11char_traitsIcEENS_9allocatorIcEEED1Ev, symObjAddr: 0x30D8, symBinAddr: 0x100004C68, symSize: 0x40 }
  - { offsetInCU: 0x1697A, offset: 0x1697A, size: 0x8, addend: 0x0, symName: __ZNSt3__19basic_iosIcNS_11char_traitsIcEEE4fillB8ue170006Ec, symObjAddr: 0x3118, symBinAddr: 0x100004CA8, symSize: 0x74 }
  - { offsetInCU: 0x169C0, offset: 0x169C0, size: 0x8, addend: 0x0, symName: __ZNKSt3__112basic_stringIcNS_11char_traitsIcEENS_9allocatorIcEEE4sizeB8ue170006Ev, symObjAddr: 0x318C, symBinAddr: 0x100004D1C, symSize: 0x54 }
  - { offsetInCU: 0x169E6, offset: 0x169E6, size: 0x8, addend: 0x0, symName: __ZNKSt3__112basic_stringIcNS_11char_traitsIcEENS_9allocatorIcEEE15__get_long_sizeB8ue170006Ev, symObjAddr: 0x31E0, symBinAddr: 0x100004D70, symSize: 0x28 }
  - { offsetInCU: 0x16A0C, offset: 0x16A0C, size: 0x8, addend: 0x0, symName: __ZNKSt3__112basic_stringIcNS_11char_traitsIcEENS_9allocatorIcEEE16__get_short_sizeB8ue170006Ev, symObjAddr: 0x3208, symBinAddr: 0x100004D98, symSize: 0x34 }
  - { offsetInCU: 0x16A32, offset: 0x16A32, size: 0x8, addend: 0x0, symName: __ZN5Eigen16GenericNumTraitsIdE8digits10Ev, symObjAddr: 0x323C, symBinAddr: 0x100004DCC, symSize: 0x14 }
  - { offsetInCU: 0x16A46, offset: 0x16A46, size: 0x8, addend: 0x0, symName: __ZN5Eigen8internal21default_digits10_implIdLb1ELb0EE3runEv, symObjAddr: 0x3250, symBinAddr: 0x100004DE0, symSize: 0x8 }
  - { offsetInCU: 0x16A5A, offset: 0x16A5A, size: 0x8, addend: 0x0, symName: __ZNSt3__19basic_iosIcNS_11char_traitsIcEEEC2B8ue170006Ev, symObjAddr: 0x3258, symBinAddr: 0x100004DE8, symSize: 0x44 }
  - { offsetInCU: 0x16A84, offset: 0x16A84, size: 0x8, addend: 0x0, symName: __ZNSt3__114basic_iostreamIcNS_11char_traitsIcEEEC2B8ue170006EPNS_15basic_streambufIcS2_EE, symObjAddr: 0x329C, symBinAddr: 0x100004E2C, symSize: 0xAC }
  - { offsetInCU: 0x16ACA, offset: 0x16ACA, size: 0x8, addend: 0x0, symName: __ZNSt3__115basic_stringbufIcNS_11char_traitsIcEENS_9allocatorIcEEEC1B8ue170006Ej, symObjAddr: 0x3348, symBinAddr: 0x100004ED8, symSize: 0x34 }
  - { offsetInCU: 0x16B03, offset: 0x16B03, size: 0x8, addend: 0x0, symName: __ZNSt3__18ios_baseC2B8ue170006Ev, symObjAddr: 0x337C, symBinAddr: 0x100004F0C, symSize: 0x24 }
  - { offsetInCU: 0x16B2D, offset: 0x16B2D, size: 0x8, addend: 0x0, symName: __ZNSt3__113basic_istreamIcNS_11char_traitsIcEEEC2B8ue170006EPNS_15basic_streambufIcS2_EE, symObjAddr: 0x33A0, symBinAddr: 0x100004F30, symSize: 0x64 }
  - { offsetInCU: 0x16B72, offset: 0x16B72, size: 0x8, addend: 0x0, symName: __ZNSt3__113basic_ostreamIcNS_11char_traitsIcEEEC2B8ue170006Ev, symObjAddr: 0x3404, symBinAddr: 0x100004F94, symSize: 0x34 }
  - { offsetInCU: 0x16BA9, offset: 0x16BA9, size: 0x8, addend: 0x0, symName: __ZNSt3__19basic_iosIcNS_11char_traitsIcEEE4initB8ue170006EPNS_15basic_streambufIcS2_EE, symObjAddr: 0x3438, symBinAddr: 0x100004FC8, symSize: 0x44 }
  - { offsetInCU: 0x16BE0, offset: 0x16BE0, size: 0x8, addend: 0x0, symName: __ZNSt3__115basic_stringbufIcNS_11char_traitsIcEENS_9allocatorIcEEEC2B8ue170006Ej, symObjAddr: 0x347C, symBinAddr: 0x10000500C, symSize: 0x60 }
  - { offsetInCU: 0x16C19, offset: 0x16C19, size: 0x8, addend: 0x0, symName: __ZNSt3__112basic_stringIcNS_11char_traitsIcEENS_9allocatorIcEEEC1B8ue170006Ev, symObjAddr: 0x34DC, symBinAddr: 0x10000506C, symSize: 0x2C }
  - { offsetInCU: 0x16C43, offset: 0x16C43, size: 0x8, addend: 0x0, symName: __ZNSt3__112basic_stringIcNS_11char_traitsIcEENS_9allocatorIcEEEC2B8ue170006Ev, symObjAddr: 0x3508, symBinAddr: 0x100005098, symSize: 0x48 }
  - { offsetInCU: 0x16C6D, offset: 0x16C6D, size: 0x8, addend: 0x0, symName: __ZNSt3__112basic_stringIcNS_11char_traitsIcEENS_9allocatorIcEEE14__default_initB8ue170006Ev, symObjAddr: 0x3550, symBinAddr: 0x1000050E0, symSize: 0x40 }
  - { offsetInCU: 0x16C93, offset: 0x16C93, size: 0x8, addend: 0x0, symName: __ZNSt3__117__compressed_pairINS_12basic_stringIcNS_11char_traitsIcEENS_9allocatorIcEEE5__repES5_E5firstB8ue170006Ev, symObjAddr: 0x3590, symBinAddr: 0x100005120, symSize: 0x24 }
  - { offsetInCU: 0x16CB9, offset: 0x16CB9, size: 0x8, addend: 0x0, symName: __ZNSt3__122__compressed_pair_elemINS_12basic_stringIcNS_11char_traitsIcEENS_9allocatorIcEEE5__repELi0ELb0EE5__getB8ue170006Ev, symObjAddr: 0x35B4, symBinAddr: 0x100005144, symSize: 0x14 }
  - { offsetInCU: 0x16CF3, offset: 0x16CF3, size: 0x8, addend: 0x0, symName: __ZNKSt3__16__lessIvvEclB8ue170006IllEEbRKT_RKT0_, symObjAddr: 0x361C, symBinAddr: 0x1000051AC, symSize: 0x34 }
  - { offsetInCU: 0x16D47, offset: 0x16D47, size: 0x8, addend: 0x0, symName: __ZNSt3__118basic_stringstreamIcNS_11char_traitsIcEENS_9allocatorIcEEED2Ev, symObjAddr: 0x3650, symBinAddr: 0x1000051E0, symSize: 0x6C }
  - { offsetInCU: 0x16D81, offset: 0x16D81, size: 0x8, addend: 0x0, symName: __ZThn16_NSt3__118basic_stringstreamIcNS_11char_traitsIcEENS_9allocatorIcEEED1Ev, symObjAddr: 0x36BC, symBinAddr: 0x10000524C, symSize: 0x1C }
  - { offsetInCU: 0x16D98, offset: 0x16D98, size: 0x8, addend: 0x0, symName: __ZTv0_n24_NSt3__118basic_stringstreamIcNS_11char_traitsIcEENS_9allocatorIcEEED1Ev, symObjAddr: 0x36D8, symBinAddr: 0x100005268, symSize: 0x28 }
  - { offsetInCU: 0x16DB4, offset: 0x16DB4, size: 0x8, addend: 0x0, symName: __ZNSt3__115basic_stringbufIcNS_11char_traitsIcEENS_9allocatorIcEEED1Ev, symObjAddr: 0x3700, symBinAddr: 0x100005290, symSize: 0x2C }
  - { offsetInCU: 0x16DE1, offset: 0x16DE1, size: 0x8, addend: 0x0, symName: __ZNSt3__115basic_stringbufIcNS_11char_traitsIcEENS_9allocatorIcEEED2Ev, symObjAddr: 0x372C, symBinAddr: 0x1000052BC, symSize: 0x48 }
  - { offsetInCU: 0x16E0E, offset: 0x16E0E, size: 0x8, addend: 0x0, symName: __ZNSt3__112basic_stringIcNS_11char_traitsIcEENS_9allocatorIcEEEC2B8ue170006ILi0EEEPKc, symObjAddr: 0x3774, symBinAddr: 0x100005304, symSize: 0x58 }
  - { offsetInCU: 0x16E4D, offset: 0x16E4D, size: 0x8, addend: 0x0, symName: __ZN5Eigen8IOFormatC2EiiRKNSt3__112basic_stringIcNS1_11char_traitsIcEENS1_9allocatorIcEEEES9_S9_S9_S9_S9_c, symObjAddr: 0x37CC, symBinAddr: 0x10000535C, symSize: 0x284 }
  - { offsetInCU: 0x16F0C, offset: 0x16F0C, size: 0x8, addend: 0x0, symName: __ZNSt3__112basic_stringIcNS_11char_traitsIcEENS_9allocatorIcEEEixB8ue170006Em, symObjAddr: 0x3A50, symBinAddr: 0x1000055E0, symSize: 0x30 }
  - { offsetInCU: 0x16F41, offset: 0x16F41, size: 0x8, addend: 0x0, symName: __ZNSt3__112basic_stringIcNS_11char_traitsIcEENS_9allocatorIcEEEpLB8ue170006Ec, symObjAddr: 0x3A80, symBinAddr: 0x100005610, symSize: 0x34 }
  - { offsetInCU: 0x16F76, offset: 0x16F76, size: 0x8, addend: 0x0, symName: __ZNSt3__112basic_stringIcNS_11char_traitsIcEENS_9allocatorIcEEE13__get_pointerB8ue170006Ev, symObjAddr: 0x3AB4, symBinAddr: 0x100005644, symSize: 0x54 }
  - { offsetInCU: 0x16F9C, offset: 0x16F9C, size: 0x8, addend: 0x0, symName: __ZNSt3__112basic_stringIcNS_11char_traitsIcEENS_9allocatorIcEEE18__get_long_pointerB8ue170006Ev, symObjAddr: 0x3B08, symBinAddr: 0x100005698, symSize: 0x28 }
  - { offsetInCU: 0x16FC2, offset: 0x16FC2, size: 0x8, addend: 0x0, symName: __ZNSt3__112basic_stringIcNS_11char_traitsIcEENS_9allocatorIcEEE19__get_short_pointerB8ue170006Ev, symObjAddr: 0x3B30, symBinAddr: 0x1000056C0, symSize: 0x28 }
  - { offsetInCU: 0x16FE8, offset: 0x16FE8, size: 0x8, addend: 0x0, symName: __ZNSt3__114pointer_traitsIPcE10pointer_toB8ue170006ERc, symObjAddr: 0x3B58, symBinAddr: 0x1000056E8, symSize: 0x14 }
  - { offsetInCU: 0x1700B, offset: 0x1700B, size: 0x8, addend: 0x0, symName: __ZN5Eigen8IOFormatD2Ev, symObjAddr: 0x3B6C, symBinAddr: 0x1000056FC, symSize: 0x74 }
  - { offsetInCU: 0x17037, offset: 0x17037, size: 0x8, addend: 0x0, symName: __ZN5Eigen16CommaInitializerINS_6MatrixIdLi2ELi2ELi0ELi2ELi2EEEEC1ERS2_RKd, symObjAddr: 0x3BE0, symBinAddr: 0x100005770, symSize: 0x3C }
  - { offsetInCU: 0x1707D, offset: 0x1707D, size: 0x8, addend: 0x0, symName: __ZN5Eigen16CommaInitializerINS_6MatrixIdLi2ELi2ELi0ELi2ELi2EEEEC2ERS2_RKd, symObjAddr: 0x3C1C, symBinAddr: 0x1000057AC, symSize: 0xF8 }
  - { offsetInCU: 0x170C3, offset: 0x170C3, size: 0x8, addend: 0x0, symName: __ZN5Eigen15PlainObjectBaseINS_6MatrixIdLi2ELi2ELi0ELi2ELi2EEEE8coeffRefEll, symObjAddr: 0x3D14, symBinAddr: 0x1000058A4, symSize: 0x60 }
  - { offsetInCU: 0x17105, offset: 0x17105, size: 0x8, addend: 0x0, symName: __ZN5Eigen12DenseStorageIdLi4ELi2ELi2ELi0EE4dataEv, symObjAddr: 0x3D74, symBinAddr: 0x100005904, symSize: 0x14 }
  - { offsetInCU: 0x1712B, offset: 0x1712B, size: 0x8, addend: 0x0, symName: __ZN5Eigen16CommaInitializerINS_6MatrixIdLi2ELi2ELi0ELi2ELi2EEEED2Ev, symObjAddr: 0x3D88, symBinAddr: 0x100005918, symSize: 0x34 }
  - { offsetInCU: 0x17155, offset: 0x17155, size: 0x8, addend: 0x0, symName: __ZN5Eigen16CommaInitializerINS_6MatrixIdLi2ELi2ELi0ELi2ELi2EEEE8finishedEv, symObjAddr: 0x3DBC, symBinAddr: 0x10000594C, symSize: 0xE8 }
  - { offsetInCU: 0x1717B, offset: 0x1717B, size: 0x8, addend: 0x0, symName: __ZN5Eigen8internal13scalar_sum_opIddEC1Ev, symObjAddr: 0x3EA4, symBinAddr: 0x100005A34, symSize: 0x2C }
  - { offsetInCU: 0x171A5, offset: 0x171A5, size: 0x8, addend: 0x0, symName: __ZN5Eigen13CwiseBinaryOpINS_8internal13scalar_sum_opIddEEKNS_6MatrixIdLi2ELi2ELi0ELi2ELi2EEES6_EC1ERS6_S8_RKS3_, symObjAddr: 0x3ED0, symBinAddr: 0x100005A60, symSize: 0x44 }
  - { offsetInCU: 0x171F9, offset: 0x171F9, size: 0x8, addend: 0x0, symName: __ZN5Eigen8internal13scalar_sum_opIddEC2Ev, symObjAddr: 0x3F14, symBinAddr: 0x100005AA4, symSize: 0x14 }
  - { offsetInCU: 0x17223, offset: 0x17223, size: 0x8, addend: 0x0, symName: __ZN5Eigen13CwiseBinaryOpINS_8internal13scalar_sum_opIddEEKNS_6MatrixIdLi2ELi2ELi0ELi2ELi2EEES6_EC2ERS6_S8_RKS3_, symObjAddr: 0x3F28, symBinAddr: 0x100005AB8, symSize: 0xF0 }
  - { offsetInCU: 0x1727C, offset: 0x1727C, size: 0x8, addend: 0x0, symName: __ZN5Eigen17CwiseBinaryOpImplINS_8internal13scalar_sum_opIddEEKNS_6MatrixIdLi2ELi2ELi0ELi2ELi2EEES6_NS_5DenseEEC2Ev, symObjAddr: 0x4018, symBinAddr: 0x100005BA8, symSize: 0x2C }
  - { offsetInCU: 0x172A8, offset: 0x172A8, size: 0x8, addend: 0x0, symName: __ZN5Eigen8internal13scalar_sum_opIddEC1ERKS2_, symObjAddr: 0x4044, symBinAddr: 0x100005BD4, symSize: 0x34 }
  - { offsetInCU: 0x172DD, offset: 0x172DD, size: 0x8, addend: 0x0, symName: __ZN5Eigen10MatrixBaseINS_13CwiseBinaryOpINS_8internal13scalar_sum_opIddEEKNS_6MatrixIdLi2ELi2ELi0ELi2ELi2EEES7_EEEC2Ev, symObjAddr: 0x4078, symBinAddr: 0x100005C08, symSize: 0x2C }
  - { offsetInCU: 0x17307, offset: 0x17307, size: 0x8, addend: 0x0, symName: __ZN5Eigen9DenseBaseINS_13CwiseBinaryOpINS_8internal13scalar_sum_opIddEEKNS_6MatrixIdLi2ELi2ELi0ELi2ELi2EEES7_EEEC2Ev, symObjAddr: 0x40A4, symBinAddr: 0x100005C34, symSize: 0x14 }
  - { offsetInCU: 0x17331, offset: 0x17331, size: 0x8, addend: 0x0, symName: __ZN5Eigen8internal13scalar_sum_opIddEC2ERKS2_, symObjAddr: 0x40B8, symBinAddr: 0x100005C48, symSize: 0x18 }
  - { offsetInCU: 0x17366, offset: 0x17366, size: 0x8, addend: 0x0, symName: __ZN5Eigen6MatrixIdLi2ELi2ELi0ELi2ELi2EEC2INS_13CwiseBinaryOpINS_8internal13scalar_sum_opIddEEKS1_S7_EEEERKNS_9EigenBaseIT_EE, symObjAddr: 0x40D0, symBinAddr: 0x100005C60, symSize: 0x40 }
  - { offsetInCU: 0x173A8, offset: 0x173A8, size: 0x8, addend: 0x0, symName: __ZNK5Eigen9EigenBaseINS_13CwiseBinaryOpINS_8internal13scalar_sum_opIddEEKNS_6MatrixIdLi2ELi2ELi0ELi2ELi2EEES7_EEE7derivedEv, symObjAddr: 0x4110, symBinAddr: 0x100005CA0, symSize: 0x14 }
  - { offsetInCU: 0x173CE, offset: 0x173CE, size: 0x8, addend: 0x0, symName: __ZN5Eigen15PlainObjectBaseINS_6MatrixIdLi2ELi2ELi0ELi2ELi2EEEEC2INS_13CwiseBinaryOpINS_8internal13scalar_sum_opIddEEKS2_S9_EEEERKNS_9DenseBaseIT_EE, symObjAddr: 0x4124, symBinAddr: 0x100005CB4, symSize: 0x54 }
  - { offsetInCU: 0x17410, offset: 0x17410, size: 0x8, addend: 0x0, symName: __ZN5Eigen15PlainObjectBaseINS_6MatrixIdLi2ELi2ELi0ELi2ELi2EEEE10resizeLikeINS_13CwiseBinaryOpINS_8internal13scalar_sum_opIddEEKS2_S9_EEEEvRKNS_9EigenBaseIT_EE, symObjAddr: 0x4178, symBinAddr: 0x100005D08, symSize: 0x9C }
  - { offsetInCU: 0x1746C, offset: 0x1746C, size: 0x8, addend: 0x0, symName: __ZN5Eigen15PlainObjectBaseINS_6MatrixIdLi2ELi2ELi0ELi2ELi2EEEE12_set_noaliasINS_13CwiseBinaryOpINS_8internal13scalar_sum_opIddEEKS2_S9_EEEERS2_RKNS_9DenseBaseIT_EE, symObjAddr: 0x4214, symBinAddr: 0x100005DA4, symSize: 0x60 }
  - { offsetInCU: 0x174AA, offset: 0x174AA, size: 0x8, addend: 0x0, symName: __ZNK5Eigen13CwiseBinaryOpINS_8internal13scalar_sum_opIddEEKNS_6MatrixIdLi2ELi2ELi0ELi2ELi2EEES6_E4rowsEv, symObjAddr: 0x4274, symBinAddr: 0x100005E04, symSize: 0x28 }
  - { offsetInCU: 0x174D0, offset: 0x174D0, size: 0x8, addend: 0x0, symName: __ZNK5Eigen13CwiseBinaryOpINS_8internal13scalar_sum_opIddEEKNS_6MatrixIdLi2ELi2ELi0ELi2ELi2EEES6_E4colsEv, symObjAddr: 0x429C, symBinAddr: 0x100005E2C, symSize: 0x28 }
  - { offsetInCU: 0x174F6, offset: 0x174F6, size: 0x8, addend: 0x0, symName: __ZN5Eigen15PlainObjectBaseINS_6MatrixIdLi2ELi2ELi0ELi2ELi2EEEE6resizeEll, symObjAddr: 0x42C4, symBinAddr: 0x100005E54, symSize: 0x104 }
  - { offsetInCU: 0x1753A, offset: 0x1753A, size: 0x8, addend: 0x0, symName: __ZN5Eigen12DenseStorageIdLi4ELi2ELi2ELi0EE6resizeElll, symObjAddr: 0x43C8, symBinAddr: 0x100005F58, symSize: 0x1C }
  - { offsetInCU: 0x17581, offset: 0x17581, size: 0x8, addend: 0x0, symName: __ZN5Eigen8internal9assign_opIddEC1Ev, symObjAddr: 0x4420, symBinAddr: 0x100005FB0, symSize: 0x2C }
  - { offsetInCU: 0x175AB, offset: 0x175AB, size: 0x8, addend: 0x0, symName: __ZN5Eigen8internal10AssignmentINS_6MatrixIdLi2ELi2ELi0ELi2ELi2EEENS_13CwiseBinaryOpINS0_13scalar_sum_opIddEEKS3_S7_EENS0_9assign_opIddEENS0_11Dense2DenseEvE3runERS3_RKS8_RKSA_, symObjAddr: 0x444C, symBinAddr: 0x100005FDC, symSize: 0x40 }
  - { offsetInCU: 0x175ED, offset: 0x175ED, size: 0x8, addend: 0x0, symName: __ZN5Eigen8internal27checkTransposeAliasing_implINS_6MatrixIdLi2ELi2ELi0ELi2ELi2EEENS_13CwiseBinaryOpINS0_13scalar_sum_opIddEEKS3_S7_EELb0EE3runERS7_RKS8_, symObjAddr: 0x45CC, symBinAddr: 0x10000615C, symSize: 0x14 }
  - { offsetInCU: 0x17618, offset: 0x17618, size: 0x8, addend: 0x0, symName: __ZN5Eigen8internal9evaluatorINS_13CwiseBinaryOpINS0_13scalar_sum_opIddEEKNS_6MatrixIdLi2ELi2ELi0ELi2ELi2EEES7_EEEC1ERKS8_, symObjAddr: 0x45E0, symBinAddr: 0x100006170, symSize: 0x34 }
  - { offsetInCU: 0x17651, offset: 0x17651, size: 0x8, addend: 0x0, symName: __ZNK5Eigen9EigenBaseINS_6MatrixIdLi2ELi2ELi0ELi2ELi2EEEE18const_cast_derivedEv, symObjAddr: 0x470C, symBinAddr: 0x10000629C, symSize: 0x14 }
  - { offsetInCU: 0x17677, offset: 0x17677, size: 0x8, addend: 0x0, symName: __ZN5Eigen8internal31generic_dense_assignment_kernelINS0_9evaluatorINS_6MatrixIdLi2ELi2ELi0ELi2ELi2EEEEENS2_INS_13CwiseBinaryOpINS0_13scalar_sum_opIddEEKS4_S9_EEEENS0_9assign_opIddEELi0EEC1ERS5_RKSB_RKSD_RS4_, symObjAddr: 0x4720, symBinAddr: 0x1000062B0, symSize: 0x4C }
  - { offsetInCU: 0x176DD, offset: 0x176DD, size: 0x8, addend: 0x0, symName: __ZN5Eigen8internal21dense_assignment_loopINS0_31generic_dense_assignment_kernelINS0_9evaluatorINS_6MatrixIdLi2ELi2ELi0ELi2ELi2EEEEENS3_INS_13CwiseBinaryOpINS0_13scalar_sum_opIddEEKS5_SA_EEEENS0_9assign_opIddEELi0EEELi2ELi2EE3runERSF_, symObjAddr: 0x476C, symBinAddr: 0x1000062FC, symSize: 0x24 }
  - { offsetInCU: 0x17701, offset: 0x17701, size: 0x8, addend: 0x0, symName: __ZN5Eigen8internal9evaluatorINS_13CwiseBinaryOpINS0_13scalar_sum_opIddEEKNS_6MatrixIdLi2ELi2ELi0ELi2ELi2EEES7_EEED1Ev, symObjAddr: 0x4790, symBinAddr: 0x100006320, symSize: 0x2C }
  - { offsetInCU: 0x1772E, offset: 0x1772E, size: 0x8, addend: 0x0, symName: __ZN5Eigen8internal9evaluatorINS_13CwiseBinaryOpINS0_13scalar_sum_opIddEEKNS_6MatrixIdLi2ELi2ELi0ELi2ELi2EEES7_EEEC2ERKS8_, symObjAddr: 0x47BC, symBinAddr: 0x10000634C, symSize: 0x34 }
  - { offsetInCU: 0x17767, offset: 0x17767, size: 0x8, addend: 0x0, symName: __ZN5Eigen8internal16binary_evaluatorINS_13CwiseBinaryOpINS0_13scalar_sum_opIddEEKNS_6MatrixIdLi2ELi2ELi0ELi2ELi2EEES7_EENS0_10IndexBasedES9_ddEC2ERKS8_, symObjAddr: 0x47F0, symBinAddr: 0x100006380, symSize: 0x64 }
  - { offsetInCU: 0x177A0, offset: 0x177A0, size: 0x8, addend: 0x0, symName: __ZN5Eigen8internal14evaluator_baseINS_13CwiseBinaryOpINS0_13scalar_sum_opIddEEKNS_6MatrixIdLi2ELi2ELi0ELi2ELi2EEES7_EEEC2Ev, symObjAddr: 0x4854, symBinAddr: 0x1000063E4, symSize: 0x14 }
  - { offsetInCU: 0x177CA, offset: 0x177CA, size: 0x8, addend: 0x0, symName: __ZN5Eigen8internal16binary_evaluatorINS_13CwiseBinaryOpINS0_13scalar_sum_opIddEEKNS_6MatrixIdLi2ELi2ELi0ELi2ELi2EEES7_EENS0_10IndexBasedES9_ddE4DataC1ERKS8_, symObjAddr: 0x4868, symBinAddr: 0x1000063F8, symSize: 0x34 }
  - { offsetInCU: 0x17803, offset: 0x17803, size: 0x8, addend: 0x0, symName: __ZN5Eigen8internal14evaluator_baseINS_13CwiseBinaryOpINS0_13scalar_sum_opIddEEKNS_6MatrixIdLi2ELi2ELi0ELi2ELi2EEES7_EEED2Ev, symObjAddr: 0x489C, symBinAddr: 0x10000642C, symSize: 0x14 }
  - { offsetInCU: 0x1782D, offset: 0x1782D, size: 0x8, addend: 0x0, symName: __ZN5Eigen8internal16binary_evaluatorINS_13CwiseBinaryOpINS0_13scalar_sum_opIddEEKNS_6MatrixIdLi2ELi2ELi0ELi2ELi2EEES7_EENS0_10IndexBasedES9_ddE4DataC2ERKS8_, symObjAddr: 0x48B0, symBinAddr: 0x100006440, symSize: 0xA8 }
  - { offsetInCU: 0x17866, offset: 0x17866, size: 0x8, addend: 0x0, symName: __ZNK5Eigen13CwiseBinaryOpINS_8internal13scalar_sum_opIddEEKNS_6MatrixIdLi2ELi2ELi0ELi2ELi2EEES6_E7functorEv, symObjAddr: 0x4958, symBinAddr: 0x1000064E8, symSize: 0x18 }
  - { offsetInCU: 0x1788C, offset: 0x1788C, size: 0x8, addend: 0x0, symName: __ZNK5Eigen13CwiseBinaryOpINS_8internal13scalar_sum_opIddEEKNS_6MatrixIdLi2ELi2ELi0ELi2ELi2EEES6_E3lhsEv, symObjAddr: 0x4970, symBinAddr: 0x100006500, symSize: 0x18 }
  - { offsetInCU: 0x178B2, offset: 0x178B2, size: 0x8, addend: 0x0, symName: __ZN5Eigen8internal9evaluatorIKNS_6MatrixIdLi2ELi2ELi0ELi2ELi2EEEEC1ERS4_, symObjAddr: 0x4988, symBinAddr: 0x100006518, symSize: 0x34 }
  - { offsetInCU: 0x178EA, offset: 0x178EA, size: 0x8, addend: 0x0, symName: __ZNK5Eigen13CwiseBinaryOpINS_8internal13scalar_sum_opIddEEKNS_6MatrixIdLi2ELi2ELi0ELi2ELi2EEES6_E3rhsEv, symObjAddr: 0x49BC, symBinAddr: 0x10000654C, symSize: 0x18 }
  - { offsetInCU: 0x17910, offset: 0x17910, size: 0x8, addend: 0x0, symName: __ZN5Eigen8internal9evaluatorIKNS_6MatrixIdLi2ELi2ELi0ELi2ELi2EEEED1Ev, symObjAddr: 0x49D4, symBinAddr: 0x100006564, symSize: 0x2C }
  - { offsetInCU: 0x1793C, offset: 0x1793C, size: 0x8, addend: 0x0, symName: __ZN5Eigen8internal9evaluatorIKNS_6MatrixIdLi2ELi2ELi0ELi2ELi2EEEEC2ERS4_, symObjAddr: 0x4A00, symBinAddr: 0x100006590, symSize: 0x34 }
  - { offsetInCU: 0x17974, offset: 0x17974, size: 0x8, addend: 0x0, symName: __ZN5Eigen8internal9evaluatorIKNS_6MatrixIdLi2ELi2ELi0ELi2ELi2EEEED2Ev, symObjAddr: 0x4A34, symBinAddr: 0x1000065C4, symSize: 0x2C }
  - { offsetInCU: 0x179A0, offset: 0x179A0, size: 0x8, addend: 0x0, symName: __ZN5Eigen8internal31generic_dense_assignment_kernelINS0_9evaluatorINS_6MatrixIdLi2ELi2ELi0ELi2ELi2EEEEENS2_INS_13CwiseBinaryOpINS0_13scalar_sum_opIddEEKS4_S9_EEEENS0_9assign_opIddEELi0EEC2ERS5_RKSB_RKSD_RS4_, symObjAddr: 0x4A60, symBinAddr: 0x1000065F0, symSize: 0x44 }
  - { offsetInCU: 0x17A06, offset: 0x17A06, size: 0x8, addend: 0x0, symName: __ZN5Eigen8internal47copy_using_evaluator_innervec_CompleteUnrollingINS0_31generic_dense_assignment_kernelINS0_9evaluatorINS_6MatrixIdLi2ELi2ELi0ELi2ELi2EEEEENS3_INS_13CwiseBinaryOpINS0_13scalar_sum_opIddEEKS5_SA_EEEENS0_9assign_opIddEELi0EEELi0ELi4EE3runERSF_, symObjAddr: 0x4AA4, symBinAddr: 0x100006634, symSize: 0x34 }
  - { offsetInCU: 0x17A38, offset: 0x17A38, size: 0x8, addend: 0x0, symName: __ZN5Eigen8internal31generic_dense_assignment_kernelINS0_9evaluatorINS_6MatrixIdLi2ELi2ELi0ELi2ELi2EEEEENS2_INS_13CwiseBinaryOpINS0_13scalar_sum_opIddEEKS4_S9_EEEENS0_9assign_opIddEELi0EE24assignPacketByOuterInnerILi16ELi16E19__simd128_float64_tEEvll, symObjAddr: 0x4AD8, symBinAddr: 0x100006668, symSize: 0x60 }
  - { offsetInCU: 0x17AB7, offset: 0x17AB7, size: 0x8, addend: 0x0, symName: __ZN5Eigen8internal47copy_using_evaluator_innervec_CompleteUnrollingINS0_31generic_dense_assignment_kernelINS0_9evaluatorINS_6MatrixIdLi2ELi2ELi0ELi2ELi2EEEEENS3_INS_13CwiseBinaryOpINS0_13scalar_sum_opIddEEKS5_SA_EEEENS0_9assign_opIddEELi0EEELi2ELi4EE3runERSF_, symObjAddr: 0x4B38, symBinAddr: 0x1000066C8, symSize: 0x34 }
  - { offsetInCU: 0x17ADB, offset: 0x17ADB, size: 0x8, addend: 0x0, symName: __ZN5Eigen8internal31generic_dense_assignment_kernelINS0_9evaluatorINS_6MatrixIdLi2ELi2ELi0ELi2ELi2EEEEENS2_INS_13CwiseBinaryOpINS0_13scalar_sum_opIddEEKS4_S9_EEEENS0_9assign_opIddEELi0EE20rowIndexByOuterInnerEll, symObjAddr: 0x4B6C, symBinAddr: 0x1000066FC, symSize: 0x18 }
  - { offsetInCU: 0x17B0E, offset: 0x17B0E, size: 0x8, addend: 0x0, symName: __ZN5Eigen8internal31generic_dense_assignment_kernelINS0_9evaluatorINS_6MatrixIdLi2ELi2ELi0ELi2ELi2EEEEENS2_INS_13CwiseBinaryOpINS0_13scalar_sum_opIddEEKS4_S9_EEEENS0_9assign_opIddEELi0EE20colIndexByOuterInnerEll, symObjAddr: 0x4B84, symBinAddr: 0x100006714, symSize: 0x18 }
  - { offsetInCU: 0x17B41, offset: 0x17B41, size: 0x8, addend: 0x0, symName: __ZN5Eigen8internal31generic_dense_assignment_kernelINS0_9evaluatorINS_6MatrixIdLi2ELi2ELi0ELi2ELi2EEEEENS2_INS_13CwiseBinaryOpINS0_13scalar_sum_opIddEEKS4_S9_EEEENS0_9assign_opIddEELi0EE12assignPacketILi16ELi16E19__simd128_float64_tEEvll, symObjAddr: 0x4B9C, symBinAddr: 0x10000672C, symSize: 0x70 }
  - { offsetInCU: 0x17BAC, offset: 0x17BAC, size: 0x8, addend: 0x0, symName: __ZNK5Eigen8internal9assign_opIddE12assignPacketILi16E19__simd128_float64_tEEvPdRKT0_, symObjAddr: 0x4C0C, symBinAddr: 0x10000679C, symSize: 0x40 }
  - { offsetInCU: 0x17C27, offset: 0x17C27, size: 0x8, addend: 0x0, symName: __ZNK5Eigen8internal16binary_evaluatorINS_13CwiseBinaryOpINS0_13scalar_sum_opIddEEKNS_6MatrixIdLi2ELi2ELi0ELi2ELi2EEES7_EENS0_10IndexBasedES9_ddE6packetILi16E19__simd128_float64_tEET0_ll, symObjAddr: 0x4C4C, symBinAddr: 0x1000067DC, symSize: 0x7C }
  - { offsetInCU: 0x17C7E, offset: 0x17C7E, size: 0x8, addend: 0x0, symName: __ZNK5Eigen8internal16binary_evaluatorINS_13CwiseBinaryOpINS0_13scalar_sum_opIddEEKNS_6MatrixIdLi2ELi2ELi0ELi2ELi2EEES7_EENS0_10IndexBasedES9_ddE4Data4funcEv, symObjAddr: 0x4CF4, symBinAddr: 0x100006884, symSize: 0x14 }
  - { offsetInCU: 0x17CA4, offset: 0x17CA4, size: 0x8, addend: 0x0, symName: __ZNK5Eigen8internal13scalar_sum_opIddE8packetOpI19__simd128_float64_tEET_RKS5_S7_, symObjAddr: 0x4D08, symBinAddr: 0x100006898, symSize: 0x30 }
  - { offsetInCU: 0x17CF9, offset: 0x17CF9, size: 0x8, addend: 0x0, symName: __ZNK5Eigen8internal9evaluatorINS_15PlainObjectBaseINS_6MatrixIdLi2ELi2ELi0ELi2ELi2EEEEEE6packetILi16E19__simd128_float64_tEET0_ll, symObjAddr: 0x4D38, symBinAddr: 0x1000068C8, symSize: 0x60 }
  - { offsetInCU: 0x17D6C, offset: 0x17D6C, size: 0x8, addend: 0x0, symName: __ZN5Eigen8internal47copy_using_evaluator_innervec_CompleteUnrollingINS0_31generic_dense_assignment_kernelINS0_9evaluatorINS_6MatrixIdLi2ELi2ELi0ELi2ELi2EEEEENS3_INS_13CwiseBinaryOpINS0_13scalar_sum_opIddEEKS5_SA_EEEENS0_9assign_opIddEELi0EEELi4ELi4EE3runERSF_, symObjAddr: 0x4E00, symBinAddr: 0x100006990, symSize: 0x10 }
  - { offsetInCU: 0x17D8C, offset: 0x17D8C, size: 0x8, addend: 0x0, symName: __ZN5Eigen8internal9evaluatorINS_13CwiseBinaryOpINS0_13scalar_sum_opIddEEKNS_6MatrixIdLi2ELi2ELi0ELi2ELi2EEES7_EEED2Ev, symObjAddr: 0x4E10, symBinAddr: 0x1000069A0, symSize: 0x2C }
  - { offsetInCU: 0x17DB9, offset: 0x17DB9, size: 0x8, addend: 0x0, symName: __ZN5Eigen8internal16binary_evaluatorINS_13CwiseBinaryOpINS0_13scalar_sum_opIddEEKNS_6MatrixIdLi2ELi2ELi0ELi2ELi2EEES7_EENS0_10IndexBasedES9_ddED2Ev, symObjAddr: 0x4E3C, symBinAddr: 0x1000069CC, symSize: 0x34 }
  - { offsetInCU: 0x17DE5, offset: 0x17DE5, size: 0x8, addend: 0x0, symName: __ZN5Eigen8internal16binary_evaluatorINS_13CwiseBinaryOpINS0_13scalar_sum_opIddEEKNS_6MatrixIdLi2ELi2ELi0ELi2ELi2EEES7_EENS0_10IndexBasedES9_ddE4DataD1Ev, symObjAddr: 0x4E70, symBinAddr: 0x100006A00, symSize: 0x2C }
  - { offsetInCU: 0x17E12, offset: 0x17E12, size: 0x8, addend: 0x0, symName: __ZN5Eigen8internal16binary_evaluatorINS_13CwiseBinaryOpINS0_13scalar_sum_opIddEEKNS_6MatrixIdLi2ELi2ELi0ELi2ELi2EEES7_EENS0_10IndexBasedES9_ddE4DataD2Ev, symObjAddr: 0x4E9C, symBinAddr: 0x100006A2C, symSize: 0x3C }
  - { offsetInCU: 0x17E3F, offset: 0x17E3F, size: 0x8, addend: 0x0, symName: __ZN5Eigen8internal9assign_opIddEC2Ev, symObjAddr: 0x4ED8, symBinAddr: 0x100006A68, symSize: 0x14 }
...
