---
triple:          'arm64-apple-darwin'
binary-path:     '/Users/haolong/Documents/GitHub/demos_v_matrix/redacted/chat_birthfrombirth'
relocations:
  - { offsetInCU: 0x44, offset: 0x44, size: 0x8, addend: 0x0, symName: __ZN5EigenL4lastE, symObjAddr: 0x1EE6ED, symBinAddr: 0x100024000, symSize: 0x0 }
  - { offsetInCU: 0x57F9, offset: 0x57F9, size: 0x8, addend: 0x0, symName: __ZN5Eigen8internal31conditional_aligned_delete_autoIiLb1EEEvPT_m, symObjAddr: 0x2A14, symBinAddr: 0x100006678, symSize: 0x28 }
  - { offsetInCU: 0x5845, offset: 0x5845, size: 0x8, addend: 0x0, symName: __ZN5Eigen8internal24conditional_aligned_freeILb1EEEvPv, symObjAddr: 0x2A3C, symBinAddr: 0x1000066A0, symSize: 0x24 }
  - { offsetInCU: 0x5879, offset: 0x5879, size: 0x8, addend: 0x0, symName: __ZN5Eigen8internal12aligned_freeEPv, symObjAddr: 0x2A60, symBinAddr: 0x1000066C4, symSize: 0x24 }
  - { offsetInCU: 0x58A8, offset: 0x58A8, size: 0x8, addend: 0x0, symName: __ZN5Eigen8internal31conditional_aligned_delete_autoIfLb1EEEvPT_m, symObjAddr: 0x2E20, symBinAddr: 0x100006A84, symSize: 0x28 }
  - { offsetInCU: 0x59E5, offset: 0x59E5, size: 0x8, addend: 0x0, symName: __ZN5Eigen8internal22ignore_unused_variableIlEEvRKT_, symObjAddr: 0x3708, symBinAddr: 0x10000736C, symSize: 0x10 }
  - { offsetInCU: 0x5A14, offset: 0x5A14, size: 0x8, addend: 0x0, symName: __ZN5Eigen8internalL21first_default_alignedINS_5ArrayIiLin1ELi1ELi0ELin1ELi1EEEEElRKNS_9DenseBaseIT_EE, symObjAddr: 0x3718, symBinAddr: 0x10000737C, symSize: 0x24 }
  - { offsetInCU: 0x5A9C, offset: 0x5A9C, size: 0x8, addend: 0x0, symName: __ZN5Eigen8internalL13first_alignedILi16ENS_5ArrayIiLin1ELi1ELi0ELin1ELi1EEEEElRKNS_9DenseBaseIT0_EE, symObjAddr: 0x3820, symBinAddr: 0x100007484, symSize: 0x28 }
  - { offsetInCU: 0x5B1B, offset: 0x5B1B, size: 0x8, addend: 0x0, symName: __ZN5Eigen8internal5ploadI17__simd128_int32_tEET_PKNS0_15unpacket_traitsIS3_E4typeE, symObjAddr: 0x385C, symBinAddr: 0x1000074C0, symSize: 0x28 }
  - { offsetInCU: 0x5B6F, offset: 0x5B6F, size: 0x8, addend: 0x0, symName: __ZN5Eigen8internal4paddI17__simd128_int32_tEET_RKS3_S5_, symObjAddr: 0x3884, symBinAddr: 0x1000074E8, symSize: 0x40 }
  - { offsetInCU: 0x5BB5, offset: 0x5BB5, size: 0x8, addend: 0x0, symName: __ZN5Eigen8internal6preduxI17__simd128_int32_tEENS0_15unpacket_traitsIT_E4typeERKS4_, symObjAddr: 0x38C4, symBinAddr: 0x100007528, symSize: 0xAC }
  - { offsetInCU: 0x5C5A, offset: 0x5C5A, size: 0x8, addend: 0x0, symName: __ZN5Eigen8internal19throw_std_bad_allocEv, symObjAddr: 0x4130, symBinAddr: 0x100007D94, symSize: 0x34 }
  - { offsetInCU: 0x5C96, offset: 0x5C96, size: 0x8, addend: 0x0, symName: __ZN5Eigen8internal28conditional_aligned_new_autoIiLb1EEEPT_m, symObjAddr: 0x4230, symBinAddr: 0x100007E94, symSize: 0x84 }
  - { offsetInCU: 0x5D04, offset: 0x5D04, size: 0x8, addend: 0x0, symName: __ZN5Eigen8internal26conditional_aligned_mallocILb1EEEPvm, symObjAddr: 0x42B4, symBinAddr: 0x100007F18, symSize: 0x24 }
  - { offsetInCU: 0x5D3A, offset: 0x5D3A, size: 0x8, addend: 0x0, symName: __ZN5Eigen8internal14aligned_mallocEm, symObjAddr: 0x42D8, symBinAddr: 0x100007F3C, symSize: 0xDC }
  - { offsetInCU: 0x5D7B, offset: 0x5D7B, size: 0x8, addend: 0x0, symName: __ZN5Eigen8internal28check_that_malloc_is_allowedEv, symObjAddr: 0x43B4, symBinAddr: 0x100008018, symSize: 0x4 }
  - { offsetInCU: 0x5D94, offset: 0x5D94, size: 0x8, addend: 0x0, symName: __ZN5Eigen8internal24call_assignment_no_aliasINS_5ArrayIiLin1ELin1ELi0ELin1ELin1EEENS_14CwiseNullaryOpINS0_18scalar_constant_opIiEES3_EENS0_9assign_opIiiEEEEvRT_RKT0_RKT1_, symObjAddr: 0x43B8, symBinAddr: 0x10000801C, symSize: 0x3C }
  - { offsetInCU: 0x5E6C, offset: 0x5E6C, size: 0x8, addend: 0x0, symName: __ZN5Eigen8internal18check_for_aliasingINS_5ArrayIiLin1ELin1ELi0ELin1ELin1EEENS_14CwiseNullaryOpINS0_18scalar_constant_opIiEES3_EEEEvRKT_RKT0_, symObjAddr: 0x4474, symBinAddr: 0x1000080D8, symSize: 0x60 }
  - { offsetInCU: 0x5EB7, offset: 0x5EB7, size: 0x8, addend: 0x0, symName: __ZN5Eigen8internal26call_dense_assignment_loopINS_5ArrayIiLin1ELin1ELi0ELin1ELin1EEEEEvRT_RKNS_14CwiseNullaryOpINS0_18scalar_constant_opINS4_6ScalarEEES4_EERKNS0_9assign_opIS8_S8_EE, symObjAddr: 0x44D4, symBinAddr: 0x100008138, symSize: 0x70 }
  - { offsetInCU: 0x5F46, offset: 0x5F46, size: 0x8, addend: 0x0, symName: __ZN5Eigen8internal17resize_if_allowedINS_5ArrayIiLin1ELin1ELi0ELin1ELin1EEENS_14CwiseNullaryOpINS0_18scalar_constant_opIiEES3_EEiiEEvRT_RKT0_RKNS0_9assign_opIT1_T2_EE, symObjAddr: 0x4558, symBinAddr: 0x1000081BC, symSize: 0xF8 }
  - { offsetInCU: 0x5FF6, offset: 0x5FF6, size: 0x8, addend: 0x0, symName: __ZN5Eigen8internal13convert_indexIilEET_RKT0_, symObjAddr: 0x4E6C, symBinAddr: 0x100008AD0, symSize: 0x1C }
  - { offsetInCU: 0x6034, offset: 0x6034, size: 0x8, addend: 0x0, symName: __ZN5Eigen8internal24call_assignment_no_aliasINS_5ArrayIiLin1ELi1ELi0ELin1ELi1EEENS_14CwiseNullaryOpINS0_12linspaced_opIiEES3_EENS0_9assign_opIiiEEEEvRT_RKT0_RKT1_, symObjAddr: 0x5414, symBinAddr: 0x100009078, symSize: 0x3C }
  - { offsetInCU: 0x6102, offset: 0x6102, size: 0x8, addend: 0x0, symName: __ZN5Eigen8internal18check_for_aliasingINS_5ArrayIiLin1ELi1ELi0ELin1ELi1EEENS_14CwiseNullaryOpINS0_12linspaced_opIiEES3_EEEEvRKT_RKT0_, symObjAddr: 0x54A4, symBinAddr: 0x100009108, symSize: 0x14 }
  - { offsetInCU: 0x614D, offset: 0x614D, size: 0x8, addend: 0x0, symName: __ZN5Eigen8internal26call_dense_assignment_loopINS_5ArrayIiLin1ELi1ELi0ELin1ELi1EEENS_14CwiseNullaryOpINS0_12linspaced_opIiEES3_EENS0_9assign_opIiiEEEEvRT_RKT0_RKT1_, symObjAddr: 0x54B8, symBinAddr: 0x10000911C, symSize: 0xE0 }
  - { offsetInCU: 0x6350, offset: 0x6350, size: 0x8, addend: 0x0, symName: __ZN5Eigen8internal17resize_if_allowedINS_5ArrayIiLin1ELi1ELi0ELin1ELi1EEENS_14CwiseNullaryOpINS0_12linspaced_opIiEES3_EEiiEEvRT_RKT0_RKNS0_9assign_opIT1_T2_EE, symObjAddr: 0x55CC, symBinAddr: 0x100009230, symSize: 0xF8 }
  - { offsetInCU: 0x6628, offset: 0x6628, size: 0x8, addend: 0x0, symName: __ZN5Eigen8internal24call_assignment_no_aliasINS_5ArrayIiLin1ELin1ELi0ELin1ELin1EEENS_9ReplicateINS_9TransposeINS2_IiLin1ELi1ELi0ELin1ELi1EEEEELin1ELin1EEENS0_9assign_opIiiEEEEvRT_RKT0_RKT1_, symObjAddr: 0x5FD8, symBinAddr: 0x100009C3C, symSize: 0x3C }
  - { offsetInCU: 0x66F6, offset: 0x66F6, size: 0x8, addend: 0x0, symName: __ZN5Eigen8internal18check_for_aliasingINS_5ArrayIiLin1ELin1ELi0ELin1ELin1EEENS_9ReplicateINS_9TransposeINS2_IiLin1ELi1ELi0ELin1ELi1EEEEELin1ELin1EEEEEvRKT_RKT0_, symObjAddr: 0x6054, symBinAddr: 0x100009CB8, symSize: 0x60 }
  - { offsetInCU: 0x6741, offset: 0x6741, size: 0x8, addend: 0x0, symName: __ZN5Eigen8internal26call_dense_assignment_loopINS_5ArrayIiLin1ELin1ELi0ELin1ELin1EEENS_9ReplicateINS_9TransposeINS2_IiLin1ELi1ELi0ELin1ELi1EEEEELin1ELin1EEENS0_9assign_opIiiEEEEvRT_RKT0_RKT1_, symObjAddr: 0x60B4, symBinAddr: 0x100009D18, symSize: 0xE0 }
  - { offsetInCU: 0x6A09, offset: 0x6A09, size: 0x8, addend: 0x0, symName: __ZN5Eigen8internal17resize_if_allowedINS_5ArrayIiLin1ELin1ELi0ELin1ELin1EEENS_9ReplicateINS_9TransposeINS2_IiLin1ELi1ELi0ELin1ELi1EEEEELin1ELin1EEEiiEEvRT_RKT0_RKNS0_9assign_opIT1_T2_EE, symObjAddr: 0x61DC, symBinAddr: 0x100009E40, symSize: 0xF8 }
  - { offsetInCU: 0x6CE1, offset: 0x6CE1, size: 0x8, addend: 0x0, symName: __ZN5Eigen8internal17get_runtime_valueIiEElRKT_, symObjAddr: 0x6DB4, symBinAddr: 0x10000AA18, symSize: 0x18 }
  - { offsetInCU: 0x6D40, offset: 0x6D40, size: 0x8, addend: 0x0, symName: __ZN5Eigen8internal15call_assignmentINS_5BlockINS_5ArrayIiLin1ELin1ELi0ELin1ELin1EEELin1ELin1ELb0EEES4_EEvRT_RKT0_, symObjAddr: 0x7348, symBinAddr: 0x10000AFAC, symSize: 0x50 }
  - { offsetInCU: 0x6D8B, offset: 0x6D8B, size: 0x8, addend: 0x0, symName: __ZN5Eigen8internal15call_assignmentINS_5BlockINS_5ArrayIiLin1ELin1ELi0ELin1ELin1EEELin1ELin1ELb0EEES4_NS0_9assign_opIiiEEEEvRT_RKT0_RKT1_NS0_9enable_ifIXntsr25evaluator_assume_aliasingISA_EE5valueEPvE4typeE, symObjAddr: 0x73AC, symBinAddr: 0x10000B010, symSize: 0x38 }
  - { offsetInCU: 0x6DF9, offset: 0x6DF9, size: 0x8, addend: 0x0, symName: __ZN5Eigen8internal24call_assignment_no_aliasINS_5BlockINS_5ArrayIiLin1ELin1ELi0ELin1ELin1EEELin1ELin1ELb0EEES4_NS0_9assign_opIiiEEEEvRT_RKT0_RKT1_, symObjAddr: 0x73E4, symBinAddr: 0x10000B048, symSize: 0x3C }
  - { offsetInCU: 0x6EC7, offset: 0x6EC7, size: 0x8, addend: 0x0, symName: __ZN5Eigen8internal18check_for_aliasingINS_5BlockINS_5ArrayIiLin1ELin1ELi0ELin1ELin1EEELin1ELin1ELb0EEES4_EEvRKT_RKT0_, symObjAddr: 0x7460, symBinAddr: 0x10000B0C4, symSize: 0x60 }
  - { offsetInCU: 0x6F12, offset: 0x6F12, size: 0x8, addend: 0x0, symName: __ZN5Eigen8internal26call_dense_assignment_loopINS_5BlockINS_5ArrayIiLin1ELin1ELi0ELin1ELin1EEELin1ELin1ELb0EEES4_NS0_9assign_opIiiEEEEvRT_RKT0_RKT1_, symObjAddr: 0x74C0, symBinAddr: 0x10000B124, symSize: 0xE0 }
  - { offsetInCU: 0x7004, offset: 0x7004, size: 0x8, addend: 0x0, symName: __ZN5Eigen8internal17resize_if_allowedINS_5BlockINS_5ArrayIiLin1ELin1ELi0ELin1ELin1EEELin1ELin1ELb0EEES4_iiEEvRT_RKT0_RKNS0_9assign_opIT1_T2_EE, symObjAddr: 0x7604, symBinAddr: 0x10000B268, symSize: 0xF8 }
  - { offsetInCU: 0x70C4, offset: 0x70C4, size: 0x8, addend: 0x0, symName: __ZN5Eigen8internal13first_alignedILi16EilEET1_PKT0_S2_, symObjAddr: 0x7F2C, symBinAddr: 0x10000BB90, symSize: 0xA4 }
  - { offsetInCU: 0x71DA, offset: 0x71DA, size: 0x8, addend: 0x0, symName: __ZN5Eigen8internal6pstoreIi17__simd128_int32_tEEvPT_RKT0_, symObjAddr: 0x83B8, symBinAddr: 0x10000C01C, symSize: 0x2C }
  - { offsetInCU: 0x7242, offset: 0x7242, size: 0x8, addend: 0x0, symName: __ZN5Eigen8internal6ploaduI17__simd128_int32_tEET_PKNS0_15unpacket_traitsIS3_E4typeE, symObjAddr: 0x83E4, symBinAddr: 0x10000C048, symSize: 0x28 }
  - { offsetInCU: 0x7296, offset: 0x7296, size: 0x8, addend: 0x0, symName: __ZN5Eigen8internal10smart_copyIiEEvPKT_S4_PS2_, symObjAddr: 0x8634, symBinAddr: 0x10000C298, symSize: 0x34 }
  - { offsetInCU: 0x7344, offset: 0x7344, size: 0x8, addend: 0x0, symName: __ZN5Eigen8internal28conditional_aligned_new_autoIfLb1EEEPT_m, symObjAddr: 0x9708, symBinAddr: 0x10000D36C, symSize: 0x84 }
  - { offsetInCU: 0x73B2, offset: 0x73B2, size: 0x8, addend: 0x0, symName: __ZN5Eigen8internal24call_assignment_no_aliasINS_5ArrayIfLin1ELi1ELi0ELin1ELi1EEENS_13CwiseBinaryOpINS0_18scalar_quotient_opIffEEKNS4_INS0_17scalar_product_opIffEEKNS_12CwiseUnaryOpINS0_14scalar_cast_opIifEEKNS2_IiLin1ELi1ELi0ELin1ELi1EEEEEKNS_14CwiseNullaryOpINS0_18scalar_constant_opIfEEKS3_EEEESL_EENS0_9assign_opIffEEEEvRT_RKT0_RKT1_, symObjAddr: 0x978C, symBinAddr: 0x10000D3F0, symSize: 0x3C }
  - { offsetInCU: 0x74D6, offset: 0x74D6, size: 0x8, addend: 0x0, symName: __ZN5Eigen8internal18check_for_aliasingINS_5ArrayIfLin1ELi1ELi0ELin1ELi1EEENS_13CwiseBinaryOpINS0_18scalar_quotient_opIffEEKNS4_INS0_17scalar_product_opIffEEKNS_12CwiseUnaryOpINS0_14scalar_cast_opIifEEKNS2_IiLin1ELi1ELi0ELin1ELi1EEEEEKNS_14CwiseNullaryOpINS0_18scalar_constant_opIfEEKS3_EEEESL_EEEEvRKT_RKT0_, symObjAddr: 0x9848, symBinAddr: 0x10000D4AC, symSize: 0x14 }
  - { offsetInCU: 0x7521, offset: 0x7521, size: 0x8, addend: 0x0, symName: __ZN5Eigen8internal26call_dense_assignment_loopINS_5ArrayIfLin1ELi1ELi0ELin1ELi1EEENS_13CwiseBinaryOpINS0_18scalar_quotient_opIffEEKNS4_INS0_17scalar_product_opIffEEKNS_12CwiseUnaryOpINS0_14scalar_cast_opIifEEKNS2_IiLin1ELi1ELi0ELin1ELi1EEEEEKNS_14CwiseNullaryOpINS0_18scalar_constant_opIfEEKS3_EEEESL_EENS0_9assign_opIffEEEEvRT_RKT0_RKT1_, symObjAddr: 0x985C, symBinAddr: 0x10000D4C0, symSize: 0xE0 }
  - { offsetInCU: 0x7D1E, offset: 0x7D1E, size: 0x8, addend: 0x0, symName: __ZN5Eigen8internal17resize_if_allowedINS_5ArrayIfLin1ELi1ELi0ELin1ELi1EEENS_13CwiseBinaryOpINS0_18scalar_quotient_opIffEEKNS4_INS0_17scalar_product_opIffEEKNS_12CwiseUnaryOpINS0_14scalar_cast_opIifEEKNS2_IiLin1ELi1ELi0ELin1ELi1EEEEEKNS_14CwiseNullaryOpINS0_18scalar_constant_opIfEEKS3_EEEESL_EEffEEvRT_RKT0_RKNS0_9assign_opIT1_T2_EE, symObjAddr: 0x9970, symBinAddr: 0x10000D5D4, symSize: 0xF8 }
  - { offsetInCU: 0x8048, offset: 0x8048, size: 0x8, addend: 0x0, symName: __ZN5Eigen8internal4castIifEET0_RKT_, symObjAddr: 0xAC58, symBinAddr: 0x10000E8BC, symSize: 0x24 }
  - { offsetInCU: 0x80C0, offset: 0x80C0, size: 0x8, addend: 0x0, symName: __ZN5Eigen8internal24call_assignment_no_aliasINS_5ArrayIiLin1ELi1ELi0ELin1ELi1EEENS_12CwiseUnaryOpINS0_14scalar_cast_opIfiEEKNS2_IfLin1ELi1ELi0ELin1ELi1EEEEENS0_9assign_opIiiEEEEvRT_RKT0_RKT1_, symObjAddr: 0xB288, symBinAddr: 0x10000EEEC, symSize: 0x3C }
  - { offsetInCU: 0x818E, offset: 0x818E, size: 0x8, addend: 0x0, symName: __ZN5Eigen8internal18check_for_aliasingINS_5ArrayIiLin1ELi1ELi0ELin1ELi1EEENS_12CwiseUnaryOpINS0_14scalar_cast_opIfiEEKNS2_IfLin1ELi1ELi0ELin1ELi1EEEEEEEvRKT_RKT0_, symObjAddr: 0xB304, symBinAddr: 0x10000EF68, symSize: 0x14 }
  - { offsetInCU: 0x81D9, offset: 0x81D9, size: 0x8, addend: 0x0, symName: __ZN5Eigen8internal26call_dense_assignment_loopINS_5ArrayIiLin1ELi1ELi0ELin1ELi1EEENS_12CwiseUnaryOpINS0_14scalar_cast_opIfiEEKNS2_IfLin1ELi1ELi0ELin1ELi1EEEEENS0_9assign_opIiiEEEEvRT_RKT0_RKT1_, symObjAddr: 0xB318, symBinAddr: 0x10000EF7C, symSize: 0xD8 }
  - { offsetInCU: 0x8459, offset: 0x8459, size: 0x8, addend: 0x0, symName: __ZN5Eigen8internal17resize_if_allowedINS_5ArrayIiLin1ELi1ELi0ELin1ELi1EEENS_12CwiseUnaryOpINS0_14scalar_cast_opIfiEEKNS2_IfLin1ELi1ELi0ELin1ELi1EEEEEiiEEvRT_RKT0_RKNS0_9assign_opIT1_T2_EE, symObjAddr: 0xB424, symBinAddr: 0x10000F088, symSize: 0xF8 }
  - { offsetInCU: 0x8731, offset: 0x8731, size: 0x8, addend: 0x0, symName: __ZN5Eigen8internal4castIfiEET0_RKT_, symObjAddr: 0xB960, symBinAddr: 0x10000F5C4, symSize: 0x24 }
  - { offsetInCU: 0x87A9, offset: 0x87A9, size: 0x8, addend: 0x0, symName: __ZN5Eigen8internal12print_matrixINS_5ArrayIiLi1ELin1ELi1ELi1ELin1EEEEERNSt3__113basic_ostreamIcNS4_11char_traitsIcEEEES9_RKT_RKNS_8IOFormatE, symObjAddr: 0xE12C, symBinAddr: 0x100011D90, symSize: 0x574 }
  - { offsetInCU: 0x88DA, offset: 0x88DA, size: 0x8, addend: 0x0, symName: __ZN5Eigen8internal24call_assignment_no_aliasINS_5ArrayIiLi1ELin1ELi1ELi1ELin1EEENS_9TransposeINS2_IiLin1ELi1ELi0ELin1ELi1EEEEENS0_9assign_opIiiEEEEvRT_RKT0_RKT1_, symObjAddr: 0xF3B8, symBinAddr: 0x10001301C, symSize: 0x3C }
  - { offsetInCU: 0x89A8, offset: 0x89A8, size: 0x8, addend: 0x0, symName: __ZN5Eigen8internal18check_for_aliasingINS_5ArrayIiLi1ELin1ELi1ELi1ELin1EEENS_9TransposeINS2_IiLin1ELi1ELi0ELin1ELi1EEEEEEEvRKT_RKT0_, symObjAddr: 0xF448, symBinAddr: 0x1000130AC, symSize: 0x14 }
  - { offsetInCU: 0x89F3, offset: 0x89F3, size: 0x8, addend: 0x0, symName: __ZN5Eigen8internal26call_dense_assignment_loopINS_5ArrayIiLi1ELin1ELi1ELi1ELin1EEENS_9TransposeINS2_IiLin1ELi1ELi0ELin1ELi1EEEEENS0_9assign_opIiiEEEEvRT_RKT0_RKT1_, symObjAddr: 0xF45C, symBinAddr: 0x1000130C0, symSize: 0xE0 }
  - { offsetInCU: 0x8AA7, offset: 0x8AA7, size: 0x8, addend: 0x0, symName: __ZN5Eigen8internal17resize_if_allowedINS_5ArrayIiLi1ELin1ELi1ELi1ELin1EEENS_9TransposeINS2_IiLin1ELi1ELi0ELin1ELi1EEEEEiiEEvRT_RKT0_RKNS0_9assign_opIT1_T2_EE, symObjAddr: 0xF53C, symBinAddr: 0x1000131A0, symSize: 0xF8 }
  - { offsetInCU: 0x8BEB, offset: 0x8BEB, size: 0x8, addend: 0x0, symName: __ZN5Eigen8internal24call_assignment_no_aliasINS_5ArrayIiLin1ELin1ELi0ELin1ELin1EEENS_5BlockIS3_Lin1ELin1ELb0EEENS0_9assign_opIiiEEEEvRT_RKT0_RKT1_, symObjAddr: 0x10418, symBinAddr: 0x10001407C, symSize: 0x3C }
  - { offsetInCU: 0x8CB9, offset: 0x8CB9, size: 0x8, addend: 0x0, symName: __ZN5Eigen8internal18check_for_aliasingINS_5ArrayIiLin1ELin1ELi0ELin1ELin1EEENS_5BlockIS3_Lin1ELin1ELb0EEEEEvRKT_RKT0_, symObjAddr: 0x10494, symBinAddr: 0x1000140F8, symSize: 0x60 }
  - { offsetInCU: 0x8D04, offset: 0x8D04, size: 0x8, addend: 0x0, symName: __ZN5Eigen8internal26call_dense_assignment_loopINS_5ArrayIiLin1ELin1ELi0ELin1ELin1EEENS_5BlockIS3_Lin1ELin1ELb0EEENS0_9assign_opIiiEEEEvRT_RKT0_RKT1_, symObjAddr: 0x104F4, symBinAddr: 0x100014158, symSize: 0xD8 }
  - { offsetInCU: 0x8DF6, offset: 0x8DF6, size: 0x8, addend: 0x0, symName: __ZN5Eigen8internal17resize_if_allowedINS_5ArrayIiLin1ELin1ELi0ELin1ELin1EEENS_5BlockIS3_Lin1ELin1ELb0EEEiiEEvRT_RKT0_RKNS0_9assign_opIT1_T2_EE, symObjAddr: 0x105E0, symBinAddr: 0x100014244, symSize: 0xF8 }
  - { offsetInCU: 0x8E7C, offset: 0x8E7C, size: 0x8, addend: 0x0, symName: __ZN5Eigen8internal24call_assignment_no_aliasINS_5ArrayIfLin1ELin1ELi0ELin1ELin1EEENS_14CwiseNullaryOpINS0_18scalar_constant_opIfEES3_EENS0_9assign_opIffEEEEvRT_RKT0_RKT1_, symObjAddr: 0x113E8, symBinAddr: 0x10001504C, symSize: 0x3C }
  - { offsetInCU: 0x8F4A, offset: 0x8F4A, size: 0x8, addend: 0x0, symName: __ZN5Eigen8internal18check_for_aliasingINS_5ArrayIfLin1ELin1ELi0ELin1ELin1EEENS_14CwiseNullaryOpINS0_18scalar_constant_opIfEES3_EEEEvRKT_RKT0_, symObjAddr: 0x11478, symBinAddr: 0x1000150DC, symSize: 0x60 }
  - { offsetInCU: 0x8F95, offset: 0x8F95, size: 0x8, addend: 0x0, symName: __ZN5Eigen8internal26call_dense_assignment_loopINS_5ArrayIfLin1ELin1ELi0ELin1ELin1EEEEEvRT_RKNS_14CwiseNullaryOpINS0_18scalar_constant_opINS4_6ScalarEEES4_EERKNS0_9assign_opIS8_S8_EE, symObjAddr: 0x114D8, symBinAddr: 0x10001513C, symSize: 0x6C }
  - { offsetInCU: 0x9024, offset: 0x9024, size: 0x8, addend: 0x0, symName: __ZN5Eigen8internal17resize_if_allowedINS_5ArrayIfLin1ELin1ELi0ELin1ELin1EEENS_14CwiseNullaryOpINS0_18scalar_constant_opIfEES3_EEffEEvRT_RKT0_RKNS0_9assign_opIT1_T2_EE, symObjAddr: 0x115D0, symBinAddr: 0x100015234, symSize: 0xF8 }
  - { offsetInCU: 0x90AA, offset: 0x90AA, size: 0x8, addend: 0x0, symName: '__ZN5Eigen8internal24call_assignment_no_aliasINS_5ArrayIfLin1ELin1ELi0ELin1ELin1EEENS_14CwiseNullaryOpIZ18simulatePopulationRKNS2_IiLin1ELi1ELi0ELin1ELi1EEEiRNSt3__16vectorINS9_INS2_IiLin1ELin1ELi0ELin1ELin1EEENS8_9allocatorISA_EEEENSB_ISD_EEEEE3$_0S3_EENS0_9assign_opIffEEEEvRT_RKT0_RKT1_', symObjAddr: 0x1225C, symBinAddr: 0x100015EC0, symSize: 0x3C }
  - { offsetInCU: 0x9178, offset: 0x9178, size: 0x8, addend: 0x0, symName: '__ZN5Eigen8internal18check_for_aliasingINS_5ArrayIfLin1ELin1ELi0ELin1ELin1EEENS_14CwiseNullaryOpIZ18simulatePopulationRKNS2_IiLin1ELi1ELi0ELin1ELi1EEEiRNSt3__16vectorINS9_INS2_IiLin1ELin1ELi0ELin1ELin1EEENS8_9allocatorISA_EEEENSB_ISD_EEEEE3$_0S3_EEEEvRKT_RKT0_', symObjAddr: 0x122D8, symBinAddr: 0x100015F3C, symSize: 0x60 }
  - { offsetInCU: 0x91C3, offset: 0x91C3, size: 0x8, addend: 0x0, symName: '__ZN5Eigen8internal26call_dense_assignment_loopINS_5ArrayIfLin1ELin1ELi0ELin1ELin1EEENS_14CwiseNullaryOpIZ18simulatePopulationRKNS2_IiLin1ELi1ELi0ELin1ELi1EEEiRNSt3__16vectorINS9_INS2_IiLin1ELin1ELi0ELin1ELin1EEENS8_9allocatorISA_EEEENSB_ISD_EEEEE3$_0S3_EENS0_9assign_opIffEEEEvRT_RKT0_RKT1_', symObjAddr: 0x12338, symBinAddr: 0x100015F9C, symSize: 0xE0 }
  - { offsetInCU: 0x9409, offset: 0x9409, size: 0x8, addend: 0x0, symName: '__ZN5Eigen8internal17resize_if_allowedINS_5ArrayIfLin1ELin1ELi0ELin1ELin1EEENS_14CwiseNullaryOpIZ18simulatePopulationRKNS2_IiLin1ELi1ELi0ELin1ELi1EEEiRNSt3__16vectorINS9_INS2_IiLin1ELin1ELi0ELin1ELin1EEENS8_9allocatorISA_EEEENSB_ISD_EEEEE3$_0S3_EEffEEvRT_RKT0_RKNS0_9assign_opIT1_T2_EE', symObjAddr: 0x12460, symBinAddr: 0x1000160C4, symSize: 0xF8 }
  - { offsetInCU: 0x96E1, offset: 0x96E1, size: 0x8, addend: 0x0, symName: __ZN5Eigen8internal24call_assignment_no_aliasINS_5ArrayIiLin1ELin1ELi0ELin1ELin1EEENS_12CwiseUnaryOpINS0_14scalar_cast_opIbiEEKNS_13CwiseBinaryOpINS0_13scalar_cmp_opIffLNS0_14ComparisonNameE1EEEKNS2_IfLin1ELin1ELi0ELin1ELin1EEESC_EEEENS0_9assign_opIiiEEEEvRT_RKT0_RKT1_, symObjAddr: 0x133A4, symBinAddr: 0x100017008, symSize: 0x3C }
  - { offsetInCU: 0x97AF, offset: 0x97AF, size: 0x8, addend: 0x0, symName: __ZN5Eigen8internal18check_for_aliasingINS_5ArrayIiLin1ELin1ELi0ELin1ELin1EEENS_12CwiseUnaryOpINS0_14scalar_cast_opIbiEEKNS_13CwiseBinaryOpINS0_13scalar_cmp_opIffLNS0_14ComparisonNameE1EEEKNS2_IfLin1ELin1ELi0ELin1ELin1EEESC_EEEEEEvRKT_RKT0_, symObjAddr: 0x13420, symBinAddr: 0x100017084, symSize: 0x60 }
  - { offsetInCU: 0x97FA, offset: 0x97FA, size: 0x8, addend: 0x0, symName: __ZN5Eigen8internal26call_dense_assignment_loopINS_5ArrayIiLin1ELin1ELi0ELin1ELin1EEENS_12CwiseUnaryOpINS0_14scalar_cast_opIbiEEKNS_13CwiseBinaryOpINS0_13scalar_cmp_opIffLNS0_14ComparisonNameE1EEEKNS2_IfLin1ELin1ELi0ELin1ELin1EEESC_EEEENS0_9assign_opIiiEEEEvRT_RKT0_RKT1_, symObjAddr: 0x13480, symBinAddr: 0x1000170E4, symSize: 0xD8 }
  - { offsetInCU: 0x9CB2, offset: 0x9CB2, size: 0x8, addend: 0x0, symName: __ZN5Eigen8internal17resize_if_allowedINS_5ArrayIiLin1ELin1ELi0ELin1ELin1EEENS_12CwiseUnaryOpINS0_14scalar_cast_opIbiEEKNS_13CwiseBinaryOpINS0_13scalar_cmp_opIffLNS0_14ComparisonNameE1EEEKNS2_IfLin1ELin1ELi0ELin1ELin1EEESC_EEEEiiEEvRT_RKT0_RKNS0_9assign_opIT1_T2_EE, symObjAddr: 0x135A0, symBinAddr: 0x100017204, symSize: 0xF8 }
  - { offsetInCU: 0x9F8A, offset: 0x9F8A, size: 0x8, addend: 0x0, symName: __ZN5Eigen8internal4castIbiEET0_RKT_, symObjAddr: 0x13DF4, symBinAddr: 0x100017A58, symSize: 0x24 }
  - { offsetInCU: 0xA002, offset: 0xA002, size: 0x8, addend: 0x0, symName: __ZN5Eigen8internal24call_assignment_no_aliasINS_5ArrayIiLin1ELi1ELi0ELin1ELi1EEENS_16PartialReduxExprINS2_IiLin1ELin1ELi0ELin1ELin1EEENS0_10member_sumIiiEELi0EEENS0_9assign_opIiiEEEEvRT_RKT0_RKT1_, symObjAddr: 0x1451C, symBinAddr: 0x100018180, symSize: 0x44 }
  - { offsetInCU: 0xA0D0, offset: 0xA0D0, size: 0x8, addend: 0x0, symName: __ZN5Eigen8internal18check_for_aliasingINS_9TransposeINS_5ArrayIiLin1ELi1ELi0ELin1ELi1EEEEENS_16PartialReduxExprINS3_IiLin1ELin1ELi0ELin1ELin1EEENS0_10member_sumIiiEELi0EEEEEvRKT_RKT0_, symObjAddr: 0x145A0, symBinAddr: 0x100018204, symSize: 0x14 }
  - { offsetInCU: 0xA11B, offset: 0xA11B, size: 0x8, addend: 0x0, symName: __ZN5Eigen8internal26call_dense_assignment_loopINS_9TransposeINS_5ArrayIiLin1ELi1ELi0ELin1ELi1EEEEENS_16PartialReduxExprINS3_IiLin1ELin1ELi0ELin1ELin1EEENS0_10member_sumIiiEELi0EEENS0_9assign_opIiiEEEEvRT_RKT0_RKT1_, symObjAddr: 0x145B4, symBinAddr: 0x100018218, symSize: 0xF0 }
  - { offsetInCU: 0xA2D5, offset: 0xA2D5, size: 0x8, addend: 0x0, symName: __ZN5Eigen8internal17resize_if_allowedINS_9TransposeINS_5ArrayIiLin1ELi1ELi0ELin1ELi1EEEEENS_16PartialReduxExprINS3_IiLin1ELin1ELi0ELin1ELin1EEENS0_10member_sumIiiEELi0EEEiiEEvRT_RKT0_RKNS0_9assign_opIT1_T2_EE, symObjAddr: 0x1470C, symBinAddr: 0x100018370, symSize: 0xF8 }
  - { offsetInCU: 0xA77F, offset: 0xA77F, size: 0x8, addend: 0x0, symName: __ZN5Eigen8internalL21first_default_alignedINS_5BlockIKNS_5ArrayIiLin1ELin1ELi0ELin1ELin1EEELin1ELi1ELb1EEEEElRKNS_9DenseBaseIT_EE, symObjAddr: 0x155FC, symBinAddr: 0x100019260, symSize: 0x24 }
  - { offsetInCU: 0xA7B6, offset: 0xA7B6, size: 0x8, addend: 0x0, symName: __ZN5Eigen8internalL13first_alignedILi16ENS_5BlockIKNS_5ArrayIiLin1ELin1ELi0ELin1ELin1EEELin1ELi1ELb1EEEEElRKNS_9DenseBaseIT0_EE, symObjAddr: 0x156BC, symBinAddr: 0x100019320, symSize: 0x28 }
  - { offsetInCU: 0xA835, offset: 0xA835, size: 0x8, addend: 0x0, symName: __ZN5Eigen8internal12print_matrixINS_5ArrayIiLin1ELi1ELi0ELin1ELi1EEEEERNSt3__113basic_ostreamIcNS4_11char_traitsIcEEEES9_RKT_RKNS_8IOFormatE, symObjAddr: 0x15B44, symBinAddr: 0x1000197A8, symSize: 0x574 }
  - { offsetInCU: 0xA966, offset: 0xA966, size: 0x8, addend: 0x0, symName: __ZN5Eigen8internal15call_assignmentINS_5ArrayIiLin1ELi1ELi0ELin1ELi1EEENS_12CwiseUnaryOpINS0_14scalar_cast_opIfiEEKNS2_IfLin1ELi1ELi0ELin1ELi1EEEEEEEvRT_RKT0_, symObjAddr: 0x16194, symBinAddr: 0x100019DF8, symSize: 0x50 }
  - { offsetInCU: 0xA9B1, offset: 0xA9B1, size: 0x8, addend: 0x0, symName: __ZN5Eigen8internal15call_assignmentINS_5ArrayIiLin1ELi1ELi0ELin1ELi1EEENS_12CwiseUnaryOpINS0_14scalar_cast_opIfiEEKNS2_IfLin1ELi1ELi0ELin1ELi1EEEEENS0_9assign_opIiiEEEEvRT_RKT0_RKT1_NS0_9enable_ifIXntsr25evaluator_assume_aliasingISE_EE5valueEPvE4typeE, symObjAddr: 0x161E4, symBinAddr: 0x100019E48, symSize: 0x38 }
  - { offsetInCU: 0xAA1F, offset: 0xAA1F, size: 0x8, addend: 0x0, symName: __ZN5Eigen8internal15call_assignmentINS_5ArrayIiLin1ELin1ELi0ELin1ELin1EEES3_EEvRT_RKT0_, symObjAddr: 0x16268, symBinAddr: 0x100019ECC, symSize: 0x50 }
  - { offsetInCU: 0xAA6A, offset: 0xAA6A, size: 0x8, addend: 0x0, symName: __ZN5Eigen8internal15call_assignmentINS_5ArrayIiLin1ELin1ELi0ELin1ELin1EEES3_NS0_9assign_opIiiEEEEvRT_RKT0_RKT1_NS0_9enable_ifIXntsr25evaluator_assume_aliasingIS8_EE5valueEPvE4typeE, symObjAddr: 0x162B8, symBinAddr: 0x100019F1C, symSize: 0x38 }
  - { offsetInCU: 0xAAD8, offset: 0xAAD8, size: 0x8, addend: 0x0, symName: __ZN5Eigen8internal24call_assignment_no_aliasINS_5ArrayIiLin1ELin1ELi0ELin1ELin1EEES3_NS0_9assign_opIiiEEEEvRT_RKT0_RKT1_, symObjAddr: 0x162F0, symBinAddr: 0x100019F54, symSize: 0x3C }
  - { offsetInCU: 0xABA6, offset: 0xABA6, size: 0x8, addend: 0x0, symName: __ZN5Eigen8internal18check_for_aliasingINS_5ArrayIiLin1ELin1ELi0ELin1ELin1EEES3_EEvRKT_RKT0_, symObjAddr: 0x1636C, symBinAddr: 0x100019FD0, symSize: 0x60 }
  - { offsetInCU: 0xABF1, offset: 0xABF1, size: 0x8, addend: 0x0, symName: __ZN5Eigen8internal26call_dense_assignment_loopINS_5ArrayIiLin1ELin1ELi0ELin1ELin1EEES3_NS0_9assign_opIiiEEEEvRT_RKT0_RKT1_, symObjAddr: 0x163CC, symBinAddr: 0x10001A030, symSize: 0xD8 }
  - { offsetInCU: 0xACE3, offset: 0xACE3, size: 0x8, addend: 0x0, symName: __ZN5Eigen8internal17resize_if_allowedINS_5ArrayIiLin1ELin1ELi0ELin1ELin1EEES3_iiEEvRT_RKT0_RKNS0_9assign_opIT1_T2_EE, symObjAddr: 0x164B8, symBinAddr: 0x10001A11C, symSize: 0xF8 }
  - { offsetInCU: 0xAD69, offset: 0xAD69, size: 0x8, addend: 0x0, symName: __ZN5Eigen8internal24call_assignment_no_aliasINS_5ArrayIiLin1ELi1ELi0ELin1ELi1EEENS_14CwiseNullaryOpINS0_18scalar_constant_opIiEES3_EENS0_9assign_opIiiEEEEvRT_RKT0_RKT1_, symObjAddr: 0x16D4C, symBinAddr: 0x10001A9B0, symSize: 0x3C }
  - { offsetInCU: 0xAE37, offset: 0xAE37, size: 0x8, addend: 0x0, symName: __ZN5Eigen8internal18check_for_aliasingINS_5ArrayIiLin1ELi1ELi0ELin1ELi1EEENS_14CwiseNullaryOpINS0_18scalar_constant_opIiEES3_EEEEvRKT_RKT0_, symObjAddr: 0x16DC8, symBinAddr: 0x10001AA2C, symSize: 0x14 }
  - { offsetInCU: 0xAE82, offset: 0xAE82, size: 0x8, addend: 0x0, symName: __ZN5Eigen8internal26call_dense_assignment_loopINS_5ArrayIiLin1ELi1ELi0ELin1ELi1EEEEEvRT_RKNS_14CwiseNullaryOpINS0_18scalar_constant_opINS4_6ScalarEEES4_EERKNS0_9assign_opIS8_S8_EE, symObjAddr: 0x16DDC, symBinAddr: 0x10001AA40, symSize: 0x70 }
  - { offsetInCU: 0xAED3, offset: 0xAED3, size: 0x8, addend: 0x0, symName: __ZN5Eigen8internal17resize_if_allowedINS_5ArrayIiLin1ELi1ELi0ELin1ELi1EEENS_14CwiseNullaryOpINS0_18scalar_constant_opIiEES3_EEiiEEvRT_RKT0_RKNS0_9assign_opIT1_T2_EE, symObjAddr: 0x16E4C, symBinAddr: 0x10001AAB0, symSize: 0xF8 }
  - { offsetInCU: 0xAF59, offset: 0xAF59, size: 0x8, addend: 0x0, symName: __ZN5Eigen8internal12print_matrixINS_5ArrayIiLin1ELin1ELi0ELin1ELin1EEEEERNSt3__113basic_ostreamIcNS4_11char_traitsIcEEEES9_RKT_RKNS_8IOFormatE, symObjAddr: 0x180BC, symBinAddr: 0x10001BD20, symSize: 0x574 }
  - { offsetInCU: 0xB2FD, offset: 0xB2FD, size: 0x8, addend: 0x0, symName: __ZN5EigenL6lastp1E, symObjAddr: 0x1EE6EE, symBinAddr: 0x100024001, symSize: 0x0 }
  - { offsetInCU: 0xB316, offset: 0xB316, size: 0x8, addend: 0x0, symName: __ZN5EigenL3allE, symObjAddr: 0x1EE6F1, symBinAddr: 0x100024004, symSize: 0x0 }
  - { offsetInCU: 0xB32F, offset: 0xB32F, size: 0x8, addend: 0x0, symName: __ZN5EigenL3fixILi1EEE, symObjAddr: 0x1EE6F0, symBinAddr: 0x100024003, symSize: 0x0 }
  - { offsetInCU: 0x359F0, offset: 0x359F0, size: 0x8, addend: 0x0, symName: __ZN5EigenlsINS_9TransposeINS_5ArrayIiLin1ELi1ELi0ELin1ELi1EEEEEEERNSt3__113basic_ostreamIcNS5_11char_traitsIcEEEESA_RKNS_9DenseBaseIT_EE, symObjAddr: 0x1528, symBinAddr: 0x10000518C, symSize: 0x230 }
  - { offsetInCU: 0x35A33, offset: 0x35A33, size: 0x8, addend: 0x0, symName: __ZN5EigenlsINS_5ArrayIiLin1ELi1ELi0ELin1ELi1EEEEERNSt3__113basic_ostreamIcNS3_11char_traitsIcEEEES8_RKNS_9DenseBaseIT_EE, symObjAddr: 0x1D3C, symBinAddr: 0x1000059A0, symSize: 0x208 }
  - { offsetInCU: 0x35A76, offset: 0x35A76, size: 0x8, addend: 0x0, symName: __ZN5EigenlsINS_5ArrayIiLin1ELin1ELi0ELin1ELin1EEEEERNSt3__113basic_ostreamIcNS3_11char_traitsIcEEEES8_RKNS_9DenseBaseIT_EE, symObjAddr: 0x2520, symBinAddr: 0x100006184, symSize: 0x208 }
  - { offsetInCU: 0x3B1B7, offset: 0x3B1B7, size: 0x8, addend: 0x0, symName: __ZNSt3__124__put_character_sequenceB8ue170006IcNS_11char_traitsIcEEEERNS_13basic_ostreamIT_T0_EES7_PKS4_m, symObjAddr: 0xD79C, symBinAddr: 0x100011400, symSize: 0x1EC }
  - { offsetInCU: 0x3E22A, offset: 0x3E22A, size: 0x8, addend: 0x0, symName: __ZNSt3__1lsB8ue170006INS_11char_traitsIcEEEERNS_13basic_ostreamIcT_EES6_PKc, symObjAddr: 0x145C, symBinAddr: 0x1000050C0, symSize: 0x48 }
  - { offsetInCU: 0x3E270, offset: 0x3E270, size: 0x8, addend: 0x0, symName: __ZNSt3__14endlB8ue170006IcNS_11char_traitsIcEEEERNS_13basic_ostreamIT_T0_EES7_, symObjAddr: 0x14D0, symBinAddr: 0x100005134, symSize: 0x58 }
  - { offsetInCU: 0x3EBCB, offset: 0x3EBCB, size: 0x8, addend: 0x0, symName: __ZNSt3__118__constexpr_strlenB8ue170006EPKc, symObjAddr: 0x2D34, symBinAddr: 0x100006998, symSize: 0x24 }
  - { offsetInCU: 0x3EBF7, offset: 0x3EBF7, size: 0x8, addend: 0x0, symName: __ZNSt3__16fill_nB8ue170006IPiliEET_S2_T0_RKT1_, symObjAddr: 0x4650, symBinAddr: 0x1000082B4, symSize: 0x44 }
  - { offsetInCU: 0x3EC5A, offset: 0x3EC5A, size: 0x8, addend: 0x0, symName: __ZNSt3__18__fill_nB8ue170006IPiliEET_S2_T0_RKT1_, symObjAddr: 0x472C, symBinAddr: 0x100008390, symSize: 0x64 }
  - { offsetInCU: 0x3ECBD, offset: 0x3ECBD, size: 0x8, addend: 0x0, symName: __ZNSt3__121__convert_to_integralB8ue170006El, symObjAddr: 0x4790, symBinAddr: 0x1000083F4, symSize: 0x14 }
  - { offsetInCU: 0x3ECE9, offset: 0x3ECE9, size: 0x8, addend: 0x0, symName: __ZNSt3__13minB8ue170006IlEERKT_S3_S3_, symObjAddr: 0x840C, symBinAddr: 0x10000C070, symSize: 0x2C }
  - { offsetInCU: 0x3ED2C, offset: 0x3ED2C, size: 0x8, addend: 0x0, symName: __ZNSt3__13minB8ue170006IlNS_6__lessIvvEEEERKT_S5_S5_T0_, symObjAddr: 0x8438, symBinAddr: 0x10000C09C, symSize: 0x54 }
  - { offsetInCU: 0x3EDFC, offset: 0x3EDFC, size: 0x8, addend: 0x0, symName: __ZNSt3__112__to_addressB8ue170006IN5Eigen5ArrayIiLin1ELin1ELi0ELin1ELin1EEEEEPT_S5_, symObjAddr: 0xBD14, symBinAddr: 0x10000F978, symSize: 0x14 }
  - { offsetInCU: 0x3EE31, offset: 0x3EE31, size: 0x8, addend: 0x0, symName: __ZNSt3__13maxB8ue170006ImEERKT_S3_S3_, symObjAddr: 0xC284, symBinAddr: 0x10000FEE8, symSize: 0x2C }
  - { offsetInCU: 0x3EE74, offset: 0x3EE74, size: 0x8, addend: 0x0, symName: __ZNSt3__13minB8ue170006ImEERKT_S3_S3_, symObjAddr: 0xC2B0, symBinAddr: 0x10000FF14, symSize: 0x2C }
  - { offsetInCU: 0x3F0C2, offset: 0x3F0C2, size: 0x8, addend: 0x0, symName: __ZNSt3__13minB8ue170006ImNS_6__lessIvvEEEERKT_S5_S5_T0_, symObjAddr: 0xC33C, symBinAddr: 0x10000FFA0, symSize: 0x54 }
  - { offsetInCU: 0x3F11D, offset: 0x3F11D, size: 0x8, addend: 0x0, symName: __ZNSt3__120__throw_length_errorB8ue170006EPKc, symObjAddr: 0xC41C, symBinAddr: 0x100010080, symSize: 0x64 }
  - { offsetInCU: 0x3F147, offset: 0x3F147, size: 0x8, addend: 0x0, symName: __ZNSt3__13maxB8ue170006ImNS_6__lessIvvEEEERKT_S5_S5_T0_, symObjAddr: 0xC560, symBinAddr: 0x1000101C4, symSize: 0x54 }
  - { offsetInCU: 0x3F1A1, offset: 0x3F1A1, size: 0x8, addend: 0x0, symName: __ZNSt3__119__allocate_at_leastB8ue170006INS_9allocatorIN5Eigen5ArrayIiLin1ELin1ELi0ELin1ELin1EEEEEEENS_19__allocation_resultINS_16allocator_traitsIT_E7pointerEEERS8_m, symObjAddr: 0xC6D0, symBinAddr: 0x100010334, symSize: 0x40 }
  - { offsetInCU: 0x3F1E4, offset: 0x3F1E4, size: 0x8, addend: 0x0, symName: __ZNSt3__117__libcpp_allocateB8ue170006Emm, symObjAddr: 0xC874, symBinAddr: 0x1000104D8, symSize: 0x28 }
  - { offsetInCU: 0x3F221, offset: 0x3F221, size: 0x8, addend: 0x0, symName: __ZNSt3__121__libcpp_operator_newB8ue170006IJmEEEPvDpT_, symObjAddr: 0xC89C, symBinAddr: 0x100010500, symSize: 0x24 }
  - { offsetInCU: 0x3F25C, offset: 0x3F25C, size: 0x8, addend: 0x0, symName: __ZNSt3__142__uninitialized_allocator_move_if_noexceptB8ue170006INS_9allocatorIN5Eigen5ArrayIiLin1ELin1ELi0ELin1ELin1EEEEENS_16reverse_iteratorIPS4_EES8_S8_EET2_RT_T0_T1_S9_, symObjAddr: 0xC9F8, symBinAddr: 0x10001065C, symSize: 0x12C }
  - { offsetInCU: 0x3F2FC, offset: 0x3F2FC, size: 0x8, addend: 0x0, symName: __ZNSt3__14swapB8ue170006IPN5Eigen5ArrayIiLin1ELin1ELi0ELin1ELin1EEEEENS_9enable_ifIXaasr21is_move_constructibleIT_EE5valuesr18is_move_assignableIS6_EE5valueEvE4typeERS6_S9_, symObjAddr: 0xCB70, symBinAddr: 0x1000107D4, symSize: 0x3C }
  - { offsetInCU: 0x3F34D, offset: 0x3F34D, size: 0x8, addend: 0x0, symName: __ZNSt3__122__make_exception_guardB8ue170006INS_29_AllocatorDestroyRangeReverseINS_9allocatorIN5Eigen5ArrayIiLin1ELin1ELi0ELin1ELin1EEEEENS_16reverse_iteratorIPS5_EEEEEENS_28__exception_guard_exceptionsIT_EESC_, symObjAddr: 0xCCBC, symBinAddr: 0x100010920, symSize: 0x4C }
  - { offsetInCU: 0x3F383, offset: 0x3F383, size: 0x8, addend: 0x0, symName: __ZNSt3__1neB8ue170006IPN5Eigen5ArrayIiLin1ELin1ELi0ELin1ELin1EEES4_EEbRKNS_16reverse_iteratorIT_EERKNS5_IT0_EE, symObjAddr: 0xCD4C, symBinAddr: 0x1000109B0, symSize: 0x48 }
  - { offsetInCU: 0x3F3CF, offset: 0x3F3CF, size: 0x8, addend: 0x0, symName: __ZNSt3__112__to_addressB8ue170006INS_16reverse_iteratorIPN5Eigen5ArrayIiLin1ELin1ELi0ELin1ELin1EEEEEvEEu7__decayIDTclsr19__to_address_helperIT_EE6__callclsr3stdE7declvalIRKS7_EEEEES9_, symObjAddr: 0xCDC8, symBinAddr: 0x100010A2C, symSize: 0x24 }
  - { offsetInCU: 0x3F430, offset: 0x3F430, size: 0x8, addend: 0x0, symName: __ZNSt3__119__allocator_destroyB8ue170006INS_9allocatorIN5Eigen5ArrayIiLin1ELin1ELi0ELin1ELin1EEEEENS_16reverse_iteratorINS6_IPS4_EEEES9_EEvRT_T0_T1_, symObjAddr: 0xD1E0, symBinAddr: 0x100010E44, symSize: 0x70 }
  - { offsetInCU: 0x3F495, offset: 0x3F495, size: 0x8, addend: 0x0, symName: __ZNSt3__1neB8ue170006INS_16reverse_iteratorIPN5Eigen5ArrayIiLin1ELin1ELi0ELin1ELin1EEEEES6_EEbRKNS1_IT_EERKNS1_IT0_EE, symObjAddr: 0xD28C, symBinAddr: 0x100010EF0, symSize: 0x60 }
  - { offsetInCU: 0x3F4E1, offset: 0x3F4E1, size: 0x8, addend: 0x0, symName: __ZNSt3__112__to_addressB8ue170006INS_16reverse_iteratorINS1_IPN5Eigen5ArrayIiLin1ELin1ELi0ELin1ELin1EEEEEEEvEEu7__decayIDTclsr19__to_address_helperIT_EE6__callclsr3stdE7declvalIRKS8_EEEEESA_, symObjAddr: 0xD318, symBinAddr: 0x100010F7C, symSize: 0x24 }
  - { offsetInCU: 0x3F542, offset: 0x3F542, size: 0x8, addend: 0x0, symName: __ZNSt3__119__libcpp_deallocateB8ue170006EPvmm, symObjAddr: 0xD6D4, symBinAddr: 0x100011338, symSize: 0x30 }
  - { offsetInCU: 0x3F58A, offset: 0x3F58A, size: 0x8, addend: 0x0, symName: __ZNSt3__127__do_deallocate_handle_sizeB8ue170006IJEEEvPvmDpT_, symObjAddr: 0xD704, symBinAddr: 0x100011368, symSize: 0x28 }
  - { offsetInCU: 0x3F5C9, offset: 0x3F5C9, size: 0x8, addend: 0x0, symName: __ZNSt3__124__libcpp_operator_deleteB8ue170006IJPvEEEvDpT_, symObjAddr: 0xD72C, symBinAddr: 0x100011390, symSize: 0x24 }
  - { offsetInCU: 0x3F600, offset: 0x3F600, size: 0x8, addend: 0x0, symName: __ZNSt3__116__pad_and_outputB8ue170006IcNS_11char_traitsIcEEEENS_19ostreambuf_iteratorIT_T0_EES6_PKS4_S8_S8_RNS_8ios_baseES4_, symObjAddr: 0xD9A4, symBinAddr: 0x100011608, symSize: 0x240 }
  - { offsetInCU: 0x3F6CF, offset: 0x3F6CF, size: 0x8, addend: 0x0, symName: __ZNSt3__112__to_addressB8ue170006IKcEEPT_S3_, symObjAddr: 0xDE14, symBinAddr: 0x100011A78, symSize: 0x14 }
  - { offsetInCU: 0x3F737, offset: 0x3F737, size: 0x8, addend: 0x0, symName: __ZNSt3__19use_facetB8ue170006INS_5ctypeIcEEEERKT_RKNS_6localeE, symObjAddr: 0xE094, symBinAddr: 0x100011CF8, symSize: 0x2C }
  - { offsetInCU: 0x3FC0E, offset: 0x3FC0E, size: 0x8, addend: 0x0, symName: __ZNSt3__1lsB8ue170006IcNS_11char_traitsIcEENS_9allocatorIcEEEERNS_13basic_ostreamIT_T0_EES9_RKNS_12basic_stringIS6_S7_T1_EE, symObjAddr: 0xE7FC, symBinAddr: 0x100012460, symSize: 0x4C }
  - { offsetInCU: 0x405AE, offset: 0x405AE, size: 0x8, addend: 0x0, symName: __ZNSt3__13maxB8ue170006IlEERKT_S3_S3_, symObjAddr: 0xEA28, symBinAddr: 0x10001268C, symSize: 0x2C }
  - { offsetInCU: 0x405FC, offset: 0x405FC, size: 0x8, addend: 0x0, symName: __ZNSt3__13maxB8ue170006IlNS_6__lessIvvEEEERKT_S5_S5_T0_, symObjAddr: 0xF028, symBinAddr: 0x100012C8C, symSize: 0x54 }
  - { offsetInCU: 0x40689, offset: 0x40689, size: 0x8, addend: 0x0, symName: __ZNSt3__16fill_nB8ue170006IPflfEET_S2_T0_RKT1_, symObjAddr: 0x116C8, symBinAddr: 0x10001532C, symSize: 0x44 }
  - { offsetInCU: 0x406EC, offset: 0x406EC, size: 0x8, addend: 0x0, symName: __ZNSt3__18__fill_nB8ue170006IPflfEET_S2_T0_RKT1_, symObjAddr: 0x1178C, symBinAddr: 0x1000153F0, symSize: 0x64 }
  - { offsetInCU: 0x40773, offset: 0x40773, size: 0x8, addend: 0x0, symName: __ZNSt3__118generate_canonicalB8ue170006IfLm24ENS_23mersenne_twister_engineIjLm32ELm624ELm397ELm31ELj2567483615ELm11ELj4294967295ELm7ELj2636928640ELm15ELj4022730752ELm18ELj1812433253EEEEET_RT1_, symObjAddr: 0x12950, symBinAddr: 0x1000165B4, symSize: 0x118 }
  - { offsetInCU: 0x40839, offset: 0x40839, size: 0x8, addend: 0x0, symName: __ZNSt3__122__make_exception_guardB8ue170006INS_6vectorINS1_IN5Eigen5ArrayIiLin1ELin1ELi0ELin1ELin1EEENS_9allocatorIS4_EEEENS5_IS7_EEE16__destroy_vectorEEENS_28__exception_guard_exceptionsIT_EESC_, symObjAddr: 0x170A8, symBinAddr: 0x10001AD0C, symSize: 0x40 }
  - { offsetInCU: 0x4086E, offset: 0x4086E, size: 0x8, addend: 0x0, symName: __ZNSt3__119__allocate_at_leastB8ue170006INS_9allocatorINS_6vectorIN5Eigen5ArrayIiLin1ELin1ELi0ELin1ELin1EEENS1_IS5_EEEEEEEENS_19__allocation_resultINS_16allocator_traitsIT_E7pointerEEERSB_m, symObjAddr: 0x1749C, symBinAddr: 0x10001B100, symSize: 0x40 }
  - { offsetInCU: 0x408B1, offset: 0x408B1, size: 0x8, addend: 0x0, symName: __ZNSt3__112__to_addressB8ue170006INS_6vectorIN5Eigen5ArrayIiLin1ELin1ELi0ELin1ELin1EEENS_9allocatorIS4_EEEEEEPT_S9_, symObjAddr: 0x177E4, symBinAddr: 0x10001B448, symSize: 0x14 }
  - { offsetInCU: 0x40D65, offset: 0x40D65, size: 0x8, addend: 0x0, symName: __ZSt28__throw_bad_array_new_lengthB8ue170006v, symObjAddr: 0xC840, symBinAddr: 0x1000104A4, symSize: 0x34 }
  - { offsetInCU: 0x42E8D, offset: 0x42E8D, size: 0x8, addend: 0x0, symName: __ZN5Eigen8internal21dense_assignment_loopINS0_31generic_dense_assignment_kernelINS0_9evaluatorINS_5BlockINS_5ArrayIiLin1ELin1ELi0ELin1ELin1EEELin1ELin1ELb0EEEEENS3_IS6_EENS0_9assign_opIiiEELi0EEELi4ELi0EE3runERSC_, symObjAddr: 0x7790, symBinAddr: 0x10000B3F4, symSize: 0x214 }
  - { offsetInCU: 0x435CF, offset: 0x435CF, size: 0x8, addend: 0x0, symName: __ZN5Eigen8internal21dense_assignment_loopINS0_31generic_dense_assignment_kernelINS0_9evaluatorINS_5ArrayIiLi1ELin1ELi1ELi1ELin1EEEEENS3_INS_9TransposeINS4_IiLin1ELi1ELi0ELin1ELi1EEEEEEENS0_9assign_opIiiEELi0EEELi3ELi0EE3runERSD_, symObjAddr: 0xF6C8, symBinAddr: 0x10001332C, symSize: 0xA8 }
  - { offsetInCU: 0x43698, offset: 0x43698, size: 0x8, addend: 0x0, symName: __ZN5Eigen8internal21dense_assignment_loopINS0_31generic_dense_assignment_kernelINS0_9evaluatorINS_5ArrayIiLin1ELin1ELi0ELin1ELin1EEEEENS3_INS_5BlockIS5_Lin1ELin1ELb0EEEEENS0_9assign_opIiiEELi0EEELi4ELi0EE3runERSC_, symObjAddr: 0x10724, symBinAddr: 0x100014388, symSize: 0x1D8 }
  - { offsetInCU: 0x43835, offset: 0x43835, size: 0x8, addend: 0x0, symName: __ZN5Eigen8internal21dense_assignment_loopINS0_31generic_dense_assignment_kernelINS0_9evaluatorINS_5ArrayIiLin1ELin1ELi0ELin1ELin1EEEEES6_NS0_9assign_opIiiEELi0EEELi3ELi0EE3runERS9_, symObjAddr: 0x165FC, symBinAddr: 0x10001A260, symSize: 0xA8 }
  - { offsetInCU: 0x4444F, offset: 0x4444F, size: 0x8, addend: 0x0, symName: __ZNSt3__16vectorIN5Eigen5ArrayIiLin1ELin1ELi0ELin1ELin1EEENS_9allocatorIS3_EEE26__swap_out_circular_bufferERNS_14__split_bufferIS3_RS5_EE, symObjAddr: 0xC08C, symBinAddr: 0x10000FCF0, symSize: 0x110 }
  - { offsetInCU: 0x44AE4, offset: 0x44AE4, size: 0x8, addend: 0x0, symName: __Z18simulatePopulationRKN5Eigen5ArrayIiLin1ELi1ELi0ELin1ELi1EEEiRNSt3__16vectorINS5_INS0_IiLin1ELin1ELi0ELin1ELin1EEENS4_9allocatorIS6_EEEENS7_IS9_EEEE, symObjAddr: 0x7DC, symBinAddr: 0x100004440, symSize: 0x964 }
  - { offsetInCU: 0x4789E, offset: 0x4789E, size: 0x8, addend: 0x0, symName: __ZN5Eigen8symbolic10SymbolExprINS_8internal17symbolic_last_tagEEC1Ev, symObjAddr: 0x0, symBinAddr: 0x100003C64, symSize: 0x2C }
  - { offsetInCU: 0x478C8, offset: 0x478C8, size: 0x8, addend: 0x0, symName: __ZNK5Eigen8symbolic8BaseExprINS0_10SymbolExprINS_8internal17symbolic_last_tagEEEEplILi1EEENS0_7AddExprIS5_NS0_9ValueExprINS3_8FixedIntIXT_EEEEEEESB_, symObjAddr: 0x2C, symBinAddr: 0x100003C90, symSize: 0x48 }
  - { offsetInCU: 0x47903, offset: 0x47903, size: 0x8, addend: 0x0, symName: __ZNK5Eigen8internal8FixedIntILi1EEclEv, symObjAddr: 0x74, symBinAddr: 0x100003CD8, symSize: 0x10 }
  - { offsetInCU: 0x47929, offset: 0x47929, size: 0x8, addend: 0x0, symName: __ZN5Eigen8internal5all_tC1Ev, symObjAddr: 0x84, symBinAddr: 0x100003CE8, symSize: 0x2C }
  - { offsetInCU: 0x47952, offset: 0x47952, size: 0x8, addend: 0x0, symName: __Z20generateAgefromBirthRKN5Eigen5ArrayIiLin1ELi1ELi0ELin1ELi1EEE, symObjAddr: 0xB0, symBinAddr: 0x100003D14, symSize: 0x270 }
  - { offsetInCU: 0x47A27, offset: 0x47A27, size: 0x8, addend: 0x0, symName: __ZNK5Eigen9DenseBaseINS_5ArrayIiLin1ELi1ELi0ELin1ELi1EEEE3sumEv, symObjAddr: 0x320, symBinAddr: 0x100003F84, symSize: 0x70 }
  - { offsetInCU: 0x47A50, offset: 0x47A50, size: 0x8, addend: 0x0, symName: __ZN5Eigen9DenseBaseINS_5ArrayIiLin1ELin1ELi0ELin1ELin1EEEE8ConstantEllRKi, symObjAddr: 0x390, symBinAddr: 0x100003FF4, symSize: 0x60 }
  - { offsetInCU: 0x47A99, offset: 0x47A99, size: 0x8, addend: 0x0, symName: __ZN5Eigen5ArrayIiLin1ELin1ELi0ELin1ELin1EEC1INS_14CwiseNullaryOpINS_8internal18scalar_constant_opIiEES1_EEEERKNS_9EigenBaseIT_EENS4_9enable_ifIXsr8internal14is_convertibleINS9_6ScalarEiEE5valueENS1_11PrivateTypeEE4typeE, symObjAddr: 0x3F0, symBinAddr: 0x100004054, symSize: 0x34 }
  - { offsetInCU: 0x47AE6, offset: 0x47AE6, size: 0x8, addend: 0x0, symName: __ZNK5Eigen9EigenBaseINS_5ArrayIiLin1ELi1ELi0ELin1ELi1EEEE4sizeEv, symObjAddr: 0x424, symBinAddr: 0x100004088, symSize: 0x44 }
  - { offsetInCU: 0x47B0C, offset: 0x47B0C, size: 0x8, addend: 0x0, symName: __ZNK5Eigen15DenseCoeffsBaseINS_5ArrayIiLin1ELi1ELi0ELin1ELi1EEELi0EEixEl, symObjAddr: 0x468, symBinAddr: 0x1000040CC, symSize: 0xA4 }
  - { offsetInCU: 0x47B40, offset: 0x47B40, size: 0x8, addend: 0x0, symName: __ZN5Eigen9DenseBaseINS_5ArrayIiLin1ELi1ELi0ELin1ELi1EEEE9LinSpacedElRKiS5_, symObjAddr: 0x50C, symBinAddr: 0x100004170, symSize: 0x58 }
  - { offsetInCU: 0x47B8A, offset: 0x47B8A, size: 0x8, addend: 0x0, symName: __ZN5Eigen5ArrayIiLin1ELi1ELi0ELin1ELi1EEC1INS_14CwiseNullaryOpINS_8internal12linspaced_opIiEES1_EEEERKNS_9EigenBaseIT_EENS4_9enable_ifIXsr8internal14is_convertibleINS9_6ScalarEiEE5valueENS1_11PrivateTypeEE4typeE, symObjAddr: 0x564, symBinAddr: 0x1000041C8, symSize: 0x34 }
  - { offsetInCU: 0x47BD7, offset: 0x47BD7, size: 0x8, addend: 0x0, symName: __ZN5Eigen9DenseBaseINS_5ArrayIiLin1ELi1ELi0ELin1ELi1EEEE9transposeEv, symObjAddr: 0x598, symBinAddr: 0x1000041FC, symSize: 0x34 }
  - { offsetInCU: 0x47BFF, offset: 0x47BFF, size: 0x8, addend: 0x0, symName: __ZNK5Eigen9DenseBaseINS_9TransposeINS_5ArrayIiLin1ELi1ELi0ELin1ELi1EEEEEE9replicateEll, symObjAddr: 0x5CC, symBinAddr: 0x100004230, symSize: 0x44 }
  - { offsetInCU: 0x47C48, offset: 0x47C48, size: 0x8, addend: 0x0, symName: __ZN5Eigen5ArrayIiLin1ELin1ELi0ELin1ELin1EEC1INS_9ReplicateINS_9TransposeINS0_IiLin1ELi1ELi0ELin1ELi1EEEEELin1ELin1EEEEERKNS_9EigenBaseIT_EENS_8internal9enable_ifIXsr8internal14is_convertibleINS9_6ScalarEiEE5valueENS1_11PrivateTypeEE4typeE, symObjAddr: 0x610, symBinAddr: 0x100004274, symSize: 0x34 }
  - { offsetInCU: 0x47C95, offset: 0x47C95, size: 0x8, addend: 0x0, symName: __ZN5Eigen9DenseBaseINS_5ArrayIiLin1ELin1ELi0ELin1ELin1EEEE5blockIiiEENS3_13FixedBlockXprIXsr8internal15get_fixed_valueIT_EE5valueEXsr8internal15get_fixed_valueIT0_EE5valueEE4TypeEllS6_S7_, symObjAddr: 0x644, symBinAddr: 0x1000042A8, symSize: 0x94 }
  - { offsetInCU: 0x47D05, offset: 0x47D05, size: 0x8, addend: 0x0, symName: __ZN5Eigen5BlockINS_5ArrayIiLin1ELin1ELi0ELin1ELin1EEELin1ELin1ELb0EEaSIS2_EERS3_RKNS_9DenseBaseIT_EE, symObjAddr: 0x6D8, symBinAddr: 0x10000433C, symSize: 0x40 }
  - { offsetInCU: 0x47D42, offset: 0x47D42, size: 0x8, addend: 0x0, symName: __ZN5Eigen5ArrayIiLin1ELin1ELi0ELin1ELin1EED1Ev, symObjAddr: 0x718, symBinAddr: 0x10000437C, symSize: 0x2C }
  - { offsetInCU: 0x47D6E, offset: 0x47D6E, size: 0x8, addend: 0x0, symName: __ZN5Eigen5ArrayIiLin1ELi1ELi0ELin1ELi1EED1Ev, symObjAddr: 0x744, symBinAddr: 0x1000043A8, symSize: 0x2C }
  - { offsetInCU: 0x47D99, offset: 0x47D99, size: 0x8, addend: 0x0, symName: __Z6MapFerii, symObjAddr: 0x770, symBinAddr: 0x1000043D4, symSize: 0x6C }
  - { offsetInCU: 0x47DD4, offset: 0x47DD4, size: 0x8, addend: 0x0, symName: __ZN5Eigen5ArrayIiLin1ELi1ELi0ELin1ELi1EEC1ERKS1_, symObjAddr: 0x1140, symBinAddr: 0x100004DA4, symSize: 0x34 }
  - { offsetInCU: 0x47E0D, offset: 0x47E0D, size: 0x8, addend: 0x0, symName: __ZNK5Eigen9DenseBaseINS_5ArrayIiLin1ELi1ELi0ELin1ELi1EEEE4castIfEENS3_7CastXprIT_E4TypeEv, symObjAddr: 0x1174, symBinAddr: 0x100004DD8, symSize: 0x4C }
  - { offsetInCU: 0x47E3C, offset: 0x47E3C, size: 0x8, addend: 0x0, symName: __ZNK5Eigen9ArrayBaseINS_12CwiseUnaryOpINS_8internal14scalar_cast_opIifEEKNS_5ArrayIiLin1ELi1ELi0ELin1ELi1EEEEEEmlIfEEKNS_13CwiseBinaryOpINS2_17scalar_product_opIfNS2_18promote_scalar_argIfT_Xsr5Eigen8internal14has_ReturnTypeINS_20ScalarBinaryOpTraitsIfSE_NSC_IfSE_EEEEEE5valueEE4typeEEEKS8_KNS2_19plain_constant_typeIS8_SJ_E4typeEEERKSE_, symObjAddr: 0x11C0, symBinAddr: 0x100004E24, symSize: 0xA8 }
  - { offsetInCU: 0x47E79, offset: 0x47E79, size: 0x8, addend: 0x0, symName: __ZNK5Eigen9ArrayBaseINS_13CwiseBinaryOpINS_8internal17scalar_product_opIffEEKNS_12CwiseUnaryOpINS2_14scalar_cast_opIifEEKNS_5ArrayIiLin1ELi1ELi0ELin1ELi1EEEEEKNS_14CwiseNullaryOpINS2_18scalar_constant_opIfEEKNS8_IfLin1ELi1ELi0ELin1ELi1EEEEEEEEdvIfEEKNS1_INS2_18scalar_quotient_opIfNS2_18promote_scalar_argIfT_Xsr5Eigen8internal14has_ReturnTypeINS_20ScalarBinaryOpTraitsIfSP_NSN_IfSP_EEEEEE5valueEE4typeEEEKSK_KNS2_19plain_constant_typeISK_SU_E4typeEEERKSP_, symObjAddr: 0x1268, symBinAddr: 0x100004ECC, symSize: 0xA8 }
  - { offsetInCU: 0x47EBB, offset: 0x47EBB, size: 0x8, addend: 0x0, symName: __ZN5Eigen5ArrayIfLin1ELi1ELi0ELin1ELi1EEC1INS_13CwiseBinaryOpINS_8internal18scalar_quotient_opIffEEKNS3_INS4_17scalar_product_opIffEEKNS_12CwiseUnaryOpINS4_14scalar_cast_opIifEEKNS0_IiLin1ELi1ELi0ELin1ELi1EEEEEKNS_14CwiseNullaryOpINS4_18scalar_constant_opIfEEKS1_EEEESL_EEEERKNS_9EigenBaseIT_EENS4_9enable_ifIXsr8internal14is_convertibleINSQ_6ScalarEfEE5valueENS1_11PrivateTypeEE4typeE, symObjAddr: 0x1310, symBinAddr: 0x100004F74, symSize: 0x34 }
  - { offsetInCU: 0x47F08, offset: 0x47F08, size: 0x8, addend: 0x0, symName: __ZNK5Eigen9DenseBaseINS_5ArrayIfLin1ELi1ELi0ELin1ELi1EEEE4castIiEENS3_7CastXprIT_E4TypeEv, symObjAddr: 0x1344, symBinAddr: 0x100004FA8, symSize: 0x4C }
  - { offsetInCU: 0x47F3C, offset: 0x47F3C, size: 0x8, addend: 0x0, symName: __ZN5Eigen5ArrayIiLin1ELi1ELi0ELin1ELi1EEC1INS_12CwiseUnaryOpINS_8internal14scalar_cast_opIfiEEKNS0_IfLin1ELi1ELi0ELin1ELi1EEEEEEERKNS_9EigenBaseIT_EENS4_9enable_ifIXsr8internal14is_convertibleINSB_6ScalarEiEE5valueENS1_11PrivateTypeEE4typeE, symObjAddr: 0x1390, symBinAddr: 0x100004FF4, symSize: 0x34 }
  - { offsetInCU: 0x47F89, offset: 0x47F89, size: 0x8, addend: 0x0, symName: __ZNSt3__16vectorINS0_IN5Eigen5ArrayIiLin1ELin1ELi0ELin1ELin1EEENS_9allocatorIS3_EEEENS4_IS6_EEEixB8ue170006Em, symObjAddr: 0x13C4, symBinAddr: 0x100005028, symSize: 0x2C }
  - { offsetInCU: 0x47FC0, offset: 0x47FC0, size: 0x8, addend: 0x0, symName: __ZNSt3__16vectorIN5Eigen5ArrayIiLin1ELin1ELi0ELin1ELin1EEENS_9allocatorIS3_EEE9push_backB8ue170006ERKS3_, symObjAddr: 0x13F0, symBinAddr: 0x100005054, symSize: 0x6C }
  - { offsetInCU: 0x47FF7, offset: 0x47FF7, size: 0x8, addend: 0x0, symName: __ZNSt3__113basic_ostreamIcNS_11char_traitsIcEEElsB8ue170006EPFRS3_S4_E, symObjAddr: 0x14A4, symBinAddr: 0x100005108, symSize: 0x2C }
  - { offsetInCU: 0x4802B, offset: 0x4802B, size: 0x8, addend: 0x0, symName: __ZNK5Eigen15PlainObjectBaseINS_5ArrayIiLin1ELin1ELi0ELin1ELin1EEEE4rowsEv, symObjAddr: 0x1758, symBinAddr: 0x1000053BC, symSize: 0x24 }
  - { offsetInCU: 0x48056, offset: 0x48056, size: 0x8, addend: 0x0, symName: __ZN5Eigen5ArrayIiLin1ELin1ELi0ELin1ELin1EEC1INS_5BlockIS1_Lin1ELin1ELb0EEEEERKNS_9EigenBaseIT_EENS_8internal9enable_ifIXsr8internal14is_convertibleINS6_6ScalarEiEE5valueENS1_11PrivateTypeEE4typeE, symObjAddr: 0x177C, symBinAddr: 0x1000053E0, symSize: 0x34 }
  - { offsetInCU: 0x480A3, offset: 0x480A3, size: 0x8, addend: 0x0, symName: __ZN5Eigen9DenseBaseINS_5ArrayIfLin1ELin1ELi0ELin1ELin1EEEE4ZeroEll, symObjAddr: 0x17B0, symBinAddr: 0x100005414, symSize: 0x40 }
  - { offsetInCU: 0x480DE, offset: 0x480DE, size: 0x8, addend: 0x0, symName: __ZN5Eigen5ArrayIfLin1ELin1ELi0ELin1ELin1EEC1INS_14CwiseNullaryOpINS_8internal18scalar_constant_opIfEES1_EEEERKNS_9EigenBaseIT_EENS4_9enable_ifIXsr8internal14is_convertibleINS9_6ScalarEfEE5valueENS1_11PrivateTypeEE4typeE, symObjAddr: 0x17F0, symBinAddr: 0x100005454, symSize: 0x34 }
  - { offsetInCU: 0x4812B, offset: 0x4812B, size: 0x8, addend: 0x0, symName: __ZNK5Eigen15PlainObjectBaseINS_5ArrayIiLin1ELin1ELi0ELin1ELin1EEEE4colsEv, symObjAddr: 0x1824, symBinAddr: 0x100005488, symSize: 0x24 }
  - { offsetInCU: 0x48151, offset: 0x48151, size: 0x8, addend: 0x0, symName: __ZN5Eigen15DenseCoeffsBaseINS_5ArrayIiLin1ELin1ELi0ELin1ELin1EEELi1EEclEll, symObjAddr: 0x1848, symBinAddr: 0x1000054AC, symSize: 0xF4 }
  - { offsetInCU: 0x48195, offset: 0x48195, size: 0x8, addend: 0x0, symName: __ZN5Eigen15DenseCoeffsBaseINS_5ArrayIfLin1ELin1ELi0ELin1ELin1EEELi1EEclEll, symObjAddr: 0x193C, symBinAddr: 0x1000055A0, symSize: 0xF4 }
  - { offsetInCU: 0x481F2, offset: 0x481F2, size: 0x8, addend: 0x0, symName: __ZNSt3__113random_deviceC1B8ue170006Ev, symObjAddr: 0x1A30, symBinAddr: 0x100005694, symSize: 0x74 }
  - { offsetInCU: 0x4821C, offset: 0x4821C, size: 0x8, addend: 0x0, symName: __ZNSt3__123mersenne_twister_engineIjLm32ELm624ELm397ELm31ELj2567483615ELm11ELj4294967295ELm7ELj2636928640ELm15ELj4022730752ELm18ELj1812433253EEC1B8ue170006Ej, symObjAddr: 0x1AA4, symBinAddr: 0x100005708, symSize: 0x34 }
  - { offsetInCU: 0x48254, offset: 0x48254, size: 0x8, addend: 0x0, symName: __ZNSt3__125uniform_real_distributionIfEC1B8ue170006Eff, symObjAddr: 0x1AD8, symBinAddr: 0x10000573C, symSize: 0x3C }
  - { offsetInCU: 0x4829A, offset: 0x4829A, size: 0x8, addend: 0x0, symName: '__ZN5Eigen9DenseBaseINS_5ArrayIfLin1ELin1ELi0ELin1ELin1EEEE11NullaryExprIZ18simulatePopulationRKNS1_IiLin1ELi1ELi0ELin1ELi1EEEiRNSt3__16vectorINS9_INS1_IiLin1ELin1ELi0ELin1ELin1EEENS8_9allocatorISA_EEEENSB_ISD_EEEEE3$_0EEKNS_14CwiseNullaryOpIT_S2_EEllRKSJ_', symObjAddr: 0x1B14, symBinAddr: 0x100005778, symSize: 0x40 }
  - { offsetInCU: 0x482EC, offset: 0x482EC, size: 0x8, addend: 0x0, symName: '__ZN5Eigen5ArrayIfLin1ELin1ELi0ELin1ELin1EEC1INS_14CwiseNullaryOpIZ18simulatePopulationRKNS0_IiLin1ELi1ELi0ELin1ELi1EEEiRNSt3__16vectorINS8_INS0_IiLin1ELin1ELi0ELin1ELin1EEENS7_9allocatorIS9_EEEENSA_ISC_EEEEE3$_0S1_EEEERKNS_9EigenBaseIT_EENS_8internal9enable_ifIXsr8internal14is_convertibleINSJ_6ScalarEfEE5valueENS1_11PrivateTypeEE4typeE', symObjAddr: 0x1B54, symBinAddr: 0x1000057B8, symSize: 0x34 }
  - { offsetInCU: 0x48339, offset: 0x48339, size: 0x8, addend: 0x0, symName: __ZN5Eigen9ArrayBaseINS_5ArrayIfLin1ELin1ELi0ELin1ELin1EEEE5arrayEv, symObjAddr: 0x1B88, symBinAddr: 0x1000057EC, symSize: 0x14 }
  - { offsetInCU: 0x4835F, offset: 0x4835F, size: 0x8, addend: 0x0, symName: __ZNK5Eigen9ArrayBaseINS_5ArrayIfLin1ELin1ELi0ELin1ELin1EEEEgtIS2_EEKNS_13CwiseBinaryOpINS_8internal13scalar_cmp_opINT_6ScalarEfLNS6_14ComparisonNameE1EEEKS8_KS2_EERKNS0_IS8_EE, symObjAddr: 0x1B9C, symBinAddr: 0x100005800, symSize: 0x6C }
  - { offsetInCU: 0x4839C, offset: 0x4839C, size: 0x8, addend: 0x0, symName: __ZNK5Eigen9DenseBaseINS_13CwiseBinaryOpINS_8internal13scalar_cmp_opIffLNS2_14ComparisonNameE1EEEKNS_5ArrayIfLin1ELin1ELi0ELin1ELin1EEES8_EEE4castIiEENSA_7CastXprIT_E4TypeEv, symObjAddr: 0x1C08, symBinAddr: 0x10000586C, symSize: 0x4C }
  - { offsetInCU: 0x483D0, offset: 0x483D0, size: 0x8, addend: 0x0, symName: __ZN5Eigen5ArrayIiLin1ELin1ELi0ELin1ELin1EEC1INS_12CwiseUnaryOpINS_8internal14scalar_cast_opIbiEEKNS_13CwiseBinaryOpINS4_13scalar_cmp_opIffLNS4_14ComparisonNameE1EEEKNS0_IfLin1ELin1ELi0ELin1ELin1EEESC_EEEEEERKNS_9EigenBaseIT_EENS4_9enable_ifIXsr8internal14is_convertibleINSH_6ScalarEiEE5valueENS1_11PrivateTypeEE4typeE, symObjAddr: 0x1C54, symBinAddr: 0x1000058B8, symSize: 0x34 }
  - { offsetInCU: 0x4841D, offset: 0x4841D, size: 0x8, addend: 0x0, symName: __ZN5Eigen9DenseBaseINS_5ArrayIiLin1ELin1ELi0ELin1ELin1EEEE7colwiseEv, symObjAddr: 0x1C88, symBinAddr: 0x1000058EC, symSize: 0x34 }
  - { offsetInCU: 0x48446, offset: 0x48446, size: 0x8, addend: 0x0, symName: __ZNK5Eigen12VectorwiseOpINS_5ArrayIiLin1ELin1ELi0ELin1ELin1EEELi0EE3sumEv, symObjAddr: 0x1CBC, symBinAddr: 0x100005920, symSize: 0x4C }
  - { offsetInCU: 0x48471, offset: 0x48471, size: 0x8, addend: 0x0, symName: __ZN5Eigen5ArrayIiLin1ELi1ELi0ELin1ELi1EEC1INS_16PartialReduxExprINS0_IiLin1ELin1ELi0ELin1ELin1EEENS_8internal10member_sumIiiEELi0EEEEERKNS_9EigenBaseIT_EENS5_9enable_ifIXsr8internal14is_convertibleINSA_6ScalarEiEE5valueENS1_11PrivateTypeEE4typeE, symObjAddr: 0x1D08, symBinAddr: 0x10000596C, symSize: 0x34 }
  - { offsetInCU: 0x484BE, offset: 0x484BE, size: 0x8, addend: 0x0, symName: __ZN5Eigen5ArrayIiLin1ELi1ELi0ELin1ELi1EEaSINS_12CwiseUnaryOpINS_8internal14scalar_cast_opIfiEEKNS0_IfLin1ELi1ELi0ELin1ELi1EEEEEEERS1_RKNS_9DenseBaseIT_EE, symObjAddr: 0x1F44, symBinAddr: 0x100005BA8, symSize: 0x2C }
  - { offsetInCU: 0x484FB, offset: 0x484FB, size: 0x8, addend: 0x0, symName: __ZN5Eigen5ArrayIiLin1ELin1ELi0ELin1ELin1EEaSERKS1_, symObjAddr: 0x1F70, symBinAddr: 0x100005BD4, symSize: 0x2C }
  - { offsetInCU: 0x4852F, offset: 0x4852F, size: 0x8, addend: 0x0, symName: __ZN5Eigen5ArrayIfLin1ELi1ELi0ELin1ELi1EED1Ev, symObjAddr: 0x1F9C, symBinAddr: 0x100005C00, symSize: 0x2C }
  - { offsetInCU: 0x4855B, offset: 0x4855B, size: 0x8, addend: 0x0, symName: __ZN5Eigen5ArrayIfLin1ELin1ELi0ELin1ELin1EED1Ev, symObjAddr: 0x1FC8, symBinAddr: 0x100005C2C, symSize: 0x2C }
  - { offsetInCU: 0x48587, offset: 0x48587, size: 0x8, addend: 0x0, symName: _main, symObjAddr: 0x1FF4, symBinAddr: 0x100005C58, symSize: 0x2B8 }
  - { offsetInCU: 0x4861F, offset: 0x4861F, size: 0x8, addend: 0x0, symName: __ZN5Eigen9DenseBaseINS_5ArrayIiLin1ELi1ELi0ELin1ELi1EEEE8ConstantElRKi, symObjAddr: 0x22AC, symBinAddr: 0x100005F10, symSize: 0x50 }
  - { offsetInCU: 0x48659, offset: 0x48659, size: 0x8, addend: 0x0, symName: __ZN5Eigen5ArrayIiLin1ELi1ELi0ELin1ELi1EEC1INS_14CwiseNullaryOpINS_8internal18scalar_constant_opIiEES1_EEEERKNS_9EigenBaseIT_EENS4_9enable_ifIXsr8internal14is_convertibleINS9_6ScalarEiEE5valueENS1_11PrivateTypeEE4typeE, symObjAddr: 0x22FC, symBinAddr: 0x100005F60, symSize: 0x34 }
  - { offsetInCU: 0x486A6, offset: 0x486A6, size: 0x8, addend: 0x0, symName: __ZNSt3__16vectorINS0_IN5Eigen5ArrayIiLin1ELin1ELi0ELin1ELin1EEENS_9allocatorIS3_EEEENS4_IS6_EEEC1Em, symObjAddr: 0x2330, symBinAddr: 0x100005F94, symSize: 0x34 }
  - { offsetInCU: 0x4877D, offset: 0x4877D, size: 0x8, addend: 0x0, symName: __ZNSt3__114basic_ofstreamIcNS_11char_traitsIcEEEC1EPKcj, symObjAddr: 0x2364, symBinAddr: 0x100005FC8, symSize: 0x16C }
  - { offsetInCU: 0x487C7, offset: 0x487C7, size: 0x8, addend: 0x0, symName: __ZNKSt3__16vectorINS0_IN5Eigen5ArrayIiLin1ELin1ELi0ELin1ELin1EEENS_9allocatorIS3_EEEENS4_IS6_EEE4sizeB8ue170006Ev, symObjAddr: 0x24D0, symBinAddr: 0x100006134, symSize: 0x28 }
  - { offsetInCU: 0x487ED, offset: 0x487ED, size: 0x8, addend: 0x0, symName: __ZNKSt3__16vectorIN5Eigen5ArrayIiLin1ELin1ELi0ELin1ELin1EEENS_9allocatorIS3_EEE4sizeB8ue170006Ev, symObjAddr: 0x24F8, symBinAddr: 0x10000615C, symSize: 0x28 }
  - { offsetInCU: 0x48813, offset: 0x48813, size: 0x8, addend: 0x0, symName: __ZNSt3__16vectorIN5Eigen5ArrayIiLin1ELin1ELi0ELin1ELin1EEENS_9allocatorIS3_EEEixB8ue170006Em, symObjAddr: 0x2728, symBinAddr: 0x10000638C, symSize: 0x2C }
  - { offsetInCU: 0x4884A, offset: 0x4884A, size: 0x8, addend: 0x0, symName: __ZNSt3__114basic_ofstreamIcNS_11char_traitsIcEEE5closeEv, symObjAddr: 0x2754, symBinAddr: 0x1000063B8, symSize: 0x58 }
  - { offsetInCU: 0x48877, offset: 0x48877, size: 0x8, addend: 0x0, symName: __ZNSt3__114basic_ofstreamIcNS_11char_traitsIcEEED1Ev, symObjAddr: 0x27AC, symBinAddr: 0x100006410, symSize: 0x40 }
  - { offsetInCU: 0x488A4, offset: 0x488A4, size: 0x8, addend: 0x0, symName: __ZNSt3__16vectorINS0_IN5Eigen5ArrayIiLin1ELin1ELi0ELin1ELin1EEENS_9allocatorIS3_EEEENS4_IS6_EEED1B8ue170006Ev, symObjAddr: 0x27EC, symBinAddr: 0x100006450, symSize: 0x2C }
  - { offsetInCU: 0x488CE, offset: 0x488CE, size: 0x8, addend: 0x0, symName: __ZN5Eigen8internal8FixedIntILi1EEC1Ev, symObjAddr: 0x2818, symBinAddr: 0x10000647C, symSize: 0x2C }
  - { offsetInCU: 0x488F8, offset: 0x488F8, size: 0x8, addend: 0x0, symName: __ZN5Eigen8internal5all_tC2Ev, symObjAddr: 0x2844, symBinAddr: 0x1000064A8, symSize: 0x14 }
  - { offsetInCU: 0x48922, offset: 0x48922, size: 0x8, addend: 0x0, symName: __ZNK5Eigen9EigenBaseINS_5ArrayIiLin1ELi1ELi0ELin1ELi1EEEE4rowsEv, symObjAddr: 0x2858, symBinAddr: 0x1000064BC, symSize: 0x38 }
  - { offsetInCU: 0x48948, offset: 0x48948, size: 0x8, addend: 0x0, symName: __ZNK5Eigen9EigenBaseINS_5ArrayIiLin1ELi1ELi0ELin1ELi1EEEE4colsEv, symObjAddr: 0x2890, symBinAddr: 0x1000064F4, symSize: 0x28 }
  - { offsetInCU: 0x4896E, offset: 0x4896E, size: 0x8, addend: 0x0, symName: __ZNK5Eigen9EigenBaseINS_5ArrayIiLin1ELi1ELi0ELin1ELi1EEEE7derivedEv, symObjAddr: 0x28B8, symBinAddr: 0x10000651C, symSize: 0x14 }
  - { offsetInCU: 0x48994, offset: 0x48994, size: 0x8, addend: 0x0, symName: __ZNK5Eigen15PlainObjectBaseINS_5ArrayIiLin1ELi1ELi0ELin1ELi1EEEE4rowsEv, symObjAddr: 0x28D8, symBinAddr: 0x10000653C, symSize: 0x24 }
  - { offsetInCU: 0x489BA, offset: 0x489BA, size: 0x8, addend: 0x0, symName: __ZNK5Eigen12DenseStorageIiLin1ELin1ELi1ELi0EE4rowsEv, symObjAddr: 0x28FC, symBinAddr: 0x100006560, symSize: 0x18 }
  - { offsetInCU: 0x489E0, offset: 0x489E0, size: 0x8, addend: 0x0, symName: __ZNK5Eigen15PlainObjectBaseINS_5ArrayIiLin1ELi1ELi0ELin1ELi1EEEE4colsEv, symObjAddr: 0x2914, symBinAddr: 0x100006578, symSize: 0x30 }
  - { offsetInCU: 0x48A06, offset: 0x48A06, size: 0x8, addend: 0x0, symName: __ZN5Eigen12DenseStorageIiLin1ELin1ELi1ELi0EE4colsEv, symObjAddr: 0x2944, symBinAddr: 0x1000065A8, symSize: 0x8 }
  - { offsetInCU: 0x48A1A, offset: 0x48A1A, size: 0x8, addend: 0x0, symName: __ZN5Eigen5ArrayIiLin1ELin1ELi0ELin1ELin1EED2Ev, symObjAddr: 0x294C, symBinAddr: 0x1000065B0, symSize: 0x2C }
  - { offsetInCU: 0x48A46, offset: 0x48A46, size: 0x8, addend: 0x0, symName: __ZN5Eigen15PlainObjectBaseINS_5ArrayIiLin1ELin1ELi0ELin1ELin1EEEED2Ev, symObjAddr: 0x2978, symBinAddr: 0x1000065DC, symSize: 0x2C }
  - { offsetInCU: 0x48A72, offset: 0x48A72, size: 0x8, addend: 0x0, symName: __ZN5Eigen12DenseStorageIiLin1ELin1ELin1ELi0EED1Ev, symObjAddr: 0x29A4, symBinAddr: 0x100006608, symSize: 0x2C }
  - { offsetInCU: 0x48A9C, offset: 0x48A9C, size: 0x8, addend: 0x0, symName: __ZN5Eigen12DenseStorageIiLin1ELin1ELin1ELi0EED2Ev, symObjAddr: 0x29D0, symBinAddr: 0x100006634, symSize: 0x44 }
  - { offsetInCU: 0x48AC6, offset: 0x48AC6, size: 0x8, addend: 0x0, symName: __ZN5Eigen5ArrayIiLin1ELi1ELi0ELin1ELi1EED2Ev, symObjAddr: 0x2A84, symBinAddr: 0x1000066E8, symSize: 0x2C }
  - { offsetInCU: 0x48AF2, offset: 0x48AF2, size: 0x8, addend: 0x0, symName: __ZN5Eigen15PlainObjectBaseINS_5ArrayIiLin1ELi1ELi0ELin1ELi1EEEED2Ev, symObjAddr: 0x2AB0, symBinAddr: 0x100006714, symSize: 0x2C }
  - { offsetInCU: 0x48B1E, offset: 0x48B1E, size: 0x8, addend: 0x0, symName: __ZN5Eigen12DenseStorageIiLin1ELin1ELi1ELi0EED1Ev, symObjAddr: 0x2ADC, symBinAddr: 0x100006740, symSize: 0x2C }
  - { offsetInCU: 0x48B48, offset: 0x48B48, size: 0x8, addend: 0x0, symName: __ZN5Eigen12DenseStorageIiLin1ELin1ELi1ELi0EED2Ev, symObjAddr: 0x2B08, symBinAddr: 0x10000676C, symSize: 0x44 }
  - { offsetInCU: 0x48B72, offset: 0x48B72, size: 0x8, addend: 0x0, symName: __ZNK5Eigen12DenseStorageIiLin1ELin1ELin1ELi0EE4rowsEv, symObjAddr: 0x2B4C, symBinAddr: 0x1000067B0, symSize: 0x18 }
  - { offsetInCU: 0x48B98, offset: 0x48B98, size: 0x8, addend: 0x0, symName: __ZNK5Eigen12DenseStorageIiLin1ELin1ELin1ELi0EE4colsEv, symObjAddr: 0x2B64, symBinAddr: 0x1000067C8, symSize: 0x18 }
  - { offsetInCU: 0x48BC3, offset: 0x48BC3, size: 0x8, addend: 0x0, symName: __ZNSt3__112basic_stringIcNS_11char_traitsIcEENS_9allocatorIcEEEC1B8ue170006ILi0EEEPKc, symObjAddr: 0x2B7C, symBinAddr: 0x1000067E0, symSize: 0x34 }
  - { offsetInCU: 0x48C03, offset: 0x48C03, size: 0x8, addend: 0x0, symName: __ZNSt3__112basic_stringIcNS_11char_traitsIcEENS_9allocatorIcEEEC2B8ue170006ILi0EEEPKc, symObjAddr: 0x2BB0, symBinAddr: 0x100006814, symSize: 0x58 }
  - { offsetInCU: 0x48C49, offset: 0x48C49, size: 0x8, addend: 0x0, symName: __ZNSt3__117__compressed_pairINS_12basic_stringIcNS_11char_traitsIcEENS_9allocatorIcEEE5__repES5_EC1B8ue170006INS_18__default_init_tagESA_EEOT_OT0_, symObjAddr: 0x2C08, symBinAddr: 0x10000686C, symSize: 0x3C }
  - { offsetInCU: 0x48CA1, offset: 0x48CA1, size: 0x8, addend: 0x0, symName: __ZNSt3__111char_traitsIcE6lengthB8ue170006EPKc, symObjAddr: 0x2C44, symBinAddr: 0x1000068A8, symSize: 0x34 }
  - { offsetInCU: 0x48CC4, offset: 0x48CC4, size: 0x8, addend: 0x0, symName: __ZNSt3__117__compressed_pairINS_12basic_stringIcNS_11char_traitsIcEENS_9allocatorIcEEE5__repES5_EC2B8ue170006INS_18__default_init_tagESA_EEOT_OT0_, symObjAddr: 0x2C78, symBinAddr: 0x1000068DC, symSize: 0x3C }
  - { offsetInCU: 0x48D1C, offset: 0x48D1C, size: 0x8, addend: 0x0, symName: __ZNSt3__122__compressed_pair_elemINS_12basic_stringIcNS_11char_traitsIcEENS_9allocatorIcEEE5__repELi0ELb0EEC2B8ue170006ENS_18__default_init_tagE, symObjAddr: 0x2CB4, symBinAddr: 0x100006918, symSize: 0x14 }
  - { offsetInCU: 0x48D51, offset: 0x48D51, size: 0x8, addend: 0x0, symName: __ZNSt3__122__compressed_pair_elemINS_9allocatorIcEELi1ELb1EEC2B8ue170006ENS_18__default_init_tagE, symObjAddr: 0x2CC8, symBinAddr: 0x10000692C, symSize: 0x2C }
  - { offsetInCU: 0x48D86, offset: 0x48D86, size: 0x8, addend: 0x0, symName: __ZNSt3__19allocatorIcEC2B8ue170006Ev, symObjAddr: 0x2CF4, symBinAddr: 0x100006958, symSize: 0x2C }
  - { offsetInCU: 0x48DB0, offset: 0x48DB0, size: 0x8, addend: 0x0, symName: __ZNSt3__116__non_trivial_ifILb1ENS_9allocatorIcEEEC2B8ue170006Ev, symObjAddr: 0x2D20, symBinAddr: 0x100006984, symSize: 0x14 }
  - { offsetInCU: 0x48DDA, offset: 0x48DDA, size: 0x8, addend: 0x0, symName: __ZN5Eigen5ArrayIfLin1ELi1ELi0ELin1ELi1EED2Ev, symObjAddr: 0x2D58, symBinAddr: 0x1000069BC, symSize: 0x2C }
  - { offsetInCU: 0x48E06, offset: 0x48E06, size: 0x8, addend: 0x0, symName: __ZN5Eigen15PlainObjectBaseINS_5ArrayIfLin1ELi1ELi0ELin1ELi1EEEED2Ev, symObjAddr: 0x2D84, symBinAddr: 0x1000069E8, symSize: 0x2C }
  - { offsetInCU: 0x48E32, offset: 0x48E32, size: 0x8, addend: 0x0, symName: __ZN5Eigen12DenseStorageIfLin1ELin1ELi1ELi0EED1Ev, symObjAddr: 0x2DB0, symBinAddr: 0x100006A14, symSize: 0x2C }
  - { offsetInCU: 0x48E5C, offset: 0x48E5C, size: 0x8, addend: 0x0, symName: __ZN5Eigen12DenseStorageIfLin1ELin1ELi1ELi0EED2Ev, symObjAddr: 0x2DDC, symBinAddr: 0x100006A40, symSize: 0x44 }
  - { offsetInCU: 0x48E86, offset: 0x48E86, size: 0x8, addend: 0x0, symName: __ZN5Eigen5ArrayIfLin1ELin1ELi0ELin1ELin1EED2Ev, symObjAddr: 0x2E48, symBinAddr: 0x100006AAC, symSize: 0x2C }
  - { offsetInCU: 0x48EB2, offset: 0x48EB2, size: 0x8, addend: 0x0, symName: __ZN5Eigen15PlainObjectBaseINS_5ArrayIfLin1ELin1ELi0ELin1ELin1EEEED2Ev, symObjAddr: 0x2E74, symBinAddr: 0x100006AD8, symSize: 0x2C }
  - { offsetInCU: 0x48EDE, offset: 0x48EDE, size: 0x8, addend: 0x0, symName: __ZN5Eigen12DenseStorageIfLin1ELin1ELin1ELi0EED1Ev, symObjAddr: 0x2EA0, symBinAddr: 0x100006B04, symSize: 0x2C }
  - { offsetInCU: 0x48F08, offset: 0x48F08, size: 0x8, addend: 0x0, symName: __ZN5Eigen12DenseStorageIfLin1ELin1ELin1ELi0EED2Ev, symObjAddr: 0x2ECC, symBinAddr: 0x100006B30, symSize: 0x44 }
  - { offsetInCU: 0x48F32, offset: 0x48F32, size: 0x8, addend: 0x0, symName: __ZNSt3__114basic_ofstreamIcNS_11char_traitsIcEEED2Ev, symObjAddr: 0x2F10, symBinAddr: 0x100006B74, symSize: 0x64 }
  - { offsetInCU: 0x48F6C, offset: 0x48F6C, size: 0x8, addend: 0x0, symName: __ZTv0_n24_NSt3__114basic_ofstreamIcNS_11char_traitsIcEEED1Ev, symObjAddr: 0x2F74, symBinAddr: 0x100006BD8, symSize: 0x28 }
  - { offsetInCU: 0x48F83, offset: 0x48F83, size: 0x8, addend: 0x0, symName: __ZN5Eigen8symbolic10SymbolExprINS_8internal17symbolic_last_tagEEC2Ev, symObjAddr: 0x2F9C, symBinAddr: 0x100006C00, symSize: 0x14 }
  - { offsetInCU: 0x48FAD, offset: 0x48FAD, size: 0x8, addend: 0x0, symName: __ZN5Eigen8internal8FixedIntILi1EEC2Ev, symObjAddr: 0x2FB0, symBinAddr: 0x100006C14, symSize: 0x14 }
  - { offsetInCU: 0x48FD7, offset: 0x48FD7, size: 0x8, addend: 0x0, symName: __ZNK5Eigen8symbolic8BaseExprINS0_10SymbolExprINS_8internal17symbolic_last_tagEEEE7derivedEv, symObjAddr: 0x2FC4, symBinAddr: 0x100006C28, symSize: 0x14 }
  - { offsetInCU: 0x48FFD, offset: 0x48FFD, size: 0x8, addend: 0x0, symName: __ZN5Eigen8symbolic9ValueExprINS_8internal8FixedIntILi1EEEEC1Ev, symObjAddr: 0x2FD8, symBinAddr: 0x100006C3C, symSize: 0x2C }
  - { offsetInCU: 0x49027, offset: 0x49027, size: 0x8, addend: 0x0, symName: __ZN5Eigen8symbolic7AddExprINS0_10SymbolExprINS_8internal17symbolic_last_tagEEENS0_9ValueExprINS3_8FixedIntILi1EEEEEEC1ERKS5_RKS9_, symObjAddr: 0x3004, symBinAddr: 0x100006C68, symSize: 0x3C }
  - { offsetInCU: 0x4906D, offset: 0x4906D, size: 0x8, addend: 0x0, symName: __ZN5Eigen8symbolic9ValueExprINS_8internal8FixedIntILi1EEEEC2Ev, symObjAddr: 0x3040, symBinAddr: 0x100006CA4, symSize: 0x14 }
  - { offsetInCU: 0x49097, offset: 0x49097, size: 0x8, addend: 0x0, symName: __ZN5Eigen8symbolic7AddExprINS0_10SymbolExprINS_8internal17symbolic_last_tagEEENS0_9ValueExprINS3_8FixedIntILi1EEEEEEC2ERKS5_RKS9_, symObjAddr: 0x3054, symBinAddr: 0x100006CB8, symSize: 0x1C }
  - { offsetInCU: 0x490DD, offset: 0x490DD, size: 0x8, addend: 0x0, symName: __ZNK5Eigen9DenseBaseINS_5ArrayIiLin1ELi1ELi0ELin1ELi1EEEE5reduxINS_8internal13scalar_sum_opIiiEEEEiRKT_, symObjAddr: 0x3070, symBinAddr: 0x100006CD4, symSize: 0x10C }
  - { offsetInCU: 0x49139, offset: 0x49139, size: 0x8, addend: 0x0, symName: __ZN5Eigen8internal13scalar_sum_opIiiEC1Ev, symObjAddr: 0x317C, symBinAddr: 0x100006DE0, symSize: 0x2C }
  - { offsetInCU: 0x4917C, offset: 0x4917C, size: 0x8, addend: 0x0, symName: __ZN5Eigen8internal15redux_evaluatorINS_5ArrayIiLin1ELi1ELi0ELin1ELi1EEEEC1ERKS3_, symObjAddr: 0x31A8, symBinAddr: 0x100006E0C, symSize: 0x34 }
  - { offsetInCU: 0x491BA, offset: 0x491BA, size: 0x8, addend: 0x0, symName: __ZN5Eigen8internal10redux_implINS0_13scalar_sum_opIiiEENS0_15redux_evaluatorINS_5ArrayIiLin1ELi1ELi0ELin1ELi1EEEEELi3ELi0EE3runIS6_EEiRKS7_RKS3_RKT_, symObjAddr: 0x31DC, symBinAddr: 0x100006E40, symSize: 0x340 }
  - { offsetInCU: 0x49336, offset: 0x49336, size: 0x8, addend: 0x0, symName: __ZN5Eigen8internal15redux_evaluatorINS_5ArrayIiLin1ELi1ELi0ELin1ELi1EEEED1Ev, symObjAddr: 0x351C, symBinAddr: 0x100007180, symSize: 0x2C }
  - { offsetInCU: 0x49363, offset: 0x49363, size: 0x8, addend: 0x0, symName: __ZN5Eigen8internal15redux_evaluatorINS_5ArrayIiLin1ELi1ELi0ELin1ELi1EEEEC2ERKS3_, symObjAddr: 0x3548, symBinAddr: 0x1000071AC, symSize: 0x34 }
  - { offsetInCU: 0x4939C, offset: 0x4939C, size: 0x8, addend: 0x0, symName: __ZN5Eigen8internal9evaluatorINS_5ArrayIiLin1ELi1ELi0ELin1ELi1EEEEC2ERKS3_, symObjAddr: 0x357C, symBinAddr: 0x1000071E0, symSize: 0x34 }
  - { offsetInCU: 0x493D5, offset: 0x493D5, size: 0x8, addend: 0x0, symName: __ZN5Eigen8internal9evaluatorINS_15PlainObjectBaseINS_5ArrayIiLin1ELi1ELi0ELin1ELi1EEEEEEC2ERKS5_, symObjAddr: 0x35B0, symBinAddr: 0x100007214, symSize: 0x78 }
  - { offsetInCU: 0x4940D, offset: 0x4940D, size: 0x8, addend: 0x0, symName: __ZN5Eigen8internal14evaluator_baseINS_5ArrayIiLin1ELi1ELi0ELin1ELi1EEEEC2Ev, symObjAddr: 0x3628, symBinAddr: 0x10000728C, symSize: 0x14 }
  - { offsetInCU: 0x49437, offset: 0x49437, size: 0x8, addend: 0x0, symName: __ZNK5Eigen15PlainObjectBaseINS_5ArrayIiLin1ELi1ELi0ELin1ELi1EEEE4dataEv, symObjAddr: 0x363C, symBinAddr: 0x1000072A0, symSize: 0x24 }
  - { offsetInCU: 0x4945D, offset: 0x4945D, size: 0x8, addend: 0x0, symName: __ZN5Eigen8internal30plainobjectbase_evaluator_dataIiLi0EEC1EPKil, symObjAddr: 0x3660, symBinAddr: 0x1000072C4, symSize: 0x3C }
  - { offsetInCU: 0x494A3, offset: 0x494A3, size: 0x8, addend: 0x0, symName: __ZN5Eigen8internal14evaluator_baseINS_5ArrayIiLin1ELi1ELi0ELin1ELi1EEEED2Ev, symObjAddr: 0x369C, symBinAddr: 0x100007300, symSize: 0x14 }
  - { offsetInCU: 0x494CD, offset: 0x494CD, size: 0x8, addend: 0x0, symName: __ZNK5Eigen12DenseStorageIiLin1ELin1ELi1ELi0EE4dataEv, symObjAddr: 0x36B0, symBinAddr: 0x100007314, symSize: 0x18 }
  - { offsetInCU: 0x494F3, offset: 0x494F3, size: 0x8, addend: 0x0, symName: __ZN5Eigen8internal30plainobjectbase_evaluator_dataIiLi0EEC2EPKil, symObjAddr: 0x36C8, symBinAddr: 0x10000732C, symSize: 0x40 }
  - { offsetInCU: 0x49551, offset: 0x49551, size: 0x8, addend: 0x0, symName: __ZNK5Eigen8internal9evaluatorINS_15PlainObjectBaseINS_5ArrayIiLin1ELi1ELi0ELin1ELi1EEEEEE6packetILi16E17__simd128_int32_tEET0_l, symObjAddr: 0x373C, symBinAddr: 0x1000073A0, symSize: 0x3C }
  - { offsetInCU: 0x495C0, offset: 0x495C0, size: 0x8, addend: 0x0, symName: __ZNK5Eigen8internal13scalar_sum_opIiiE8packetOpI17__simd128_int32_tEET_RKS5_S7_, symObjAddr: 0x3778, symBinAddr: 0x1000073DC, symSize: 0x30 }
  - { offsetInCU: 0x4960B, offset: 0x4960B, size: 0x8, addend: 0x0, symName: __ZNK5Eigen8internal13scalar_sum_opIiiE6preduxI17__simd128_int32_tEEiRKT_, symObjAddr: 0x37A8, symBinAddr: 0x10000740C, symSize: 0x28 }
  - { offsetInCU: 0x49648, offset: 0x49648, size: 0x8, addend: 0x0, symName: __ZNK5Eigen8internal13scalar_sum_opIiiEclERKiS4_, symObjAddr: 0x37D0, symBinAddr: 0x100007434, symSize: 0x2C }
  - { offsetInCU: 0x4968A, offset: 0x4968A, size: 0x8, addend: 0x0, symName: __ZNK5Eigen8internal9evaluatorINS_15PlainObjectBaseINS_5ArrayIiLin1ELi1ELi0ELin1ELi1EEEEEE5coeffEl, symObjAddr: 0x37FC, symBinAddr: 0x100007460, symSize: 0x24 }
  - { offsetInCU: 0x496BE, offset: 0x496BE, size: 0x8, addend: 0x0, symName: __ZN5Eigen8internal18first_aligned_implILi16ENS_5ArrayIiLin1ELi1ELi0ELin1ELi1EEELb1EE3runERKS3_, symObjAddr: 0x3848, symBinAddr: 0x1000074AC, symSize: 0x14 }
  - { offsetInCU: 0x496DE, offset: 0x496DE, size: 0x8, addend: 0x0, symName: __ZN5Eigen8internal15redux_evaluatorINS_5ArrayIiLin1ELi1ELi0ELin1ELi1EEEED2Ev, symObjAddr: 0x3970, symBinAddr: 0x1000075D4, symSize: 0x2C }
  - { offsetInCU: 0x4970B, offset: 0x4970B, size: 0x8, addend: 0x0, symName: __ZN5Eigen8internal9evaluatorINS_5ArrayIiLin1ELi1ELi0ELin1ELi1EEEED2Ev, symObjAddr: 0x399C, symBinAddr: 0x100007600, symSize: 0x2C }
  - { offsetInCU: 0x49738, offset: 0x49738, size: 0x8, addend: 0x0, symName: __ZN5Eigen8internal9evaluatorINS_15PlainObjectBaseINS_5ArrayIiLin1ELi1ELi0ELin1ELi1EEEEEED2Ev, symObjAddr: 0x39C8, symBinAddr: 0x10000762C, symSize: 0x2C }
  - { offsetInCU: 0x49764, offset: 0x49764, size: 0x8, addend: 0x0, symName: __ZN5Eigen8internal13scalar_sum_opIiiEC2Ev, symObjAddr: 0x39F4, symBinAddr: 0x100007658, symSize: 0x14 }
  - { offsetInCU: 0x4978E, offset: 0x4978E, size: 0x8, addend: 0x0, symName: __ZN5Eigen9DenseBaseINS_5ArrayIiLin1ELin1ELi0ELin1ELin1EEEE11NullaryExprINS_8internal18scalar_constant_opIiEEEEKNS_14CwiseNullaryOpIT_S2_EEllRKS9_, symObjAddr: 0x3A08, symBinAddr: 0x10000766C, symSize: 0x48 }
  - { offsetInCU: 0x497DB, offset: 0x497DB, size: 0x8, addend: 0x0, symName: __ZN5Eigen8internal18scalar_constant_opIiEC1ERKi, symObjAddr: 0x3A50, symBinAddr: 0x1000076B4, symSize: 0x34 }
  - { offsetInCU: 0x49813, offset: 0x49813, size: 0x8, addend: 0x0, symName: __ZN5Eigen14CwiseNullaryOpINS_8internal18scalar_constant_opIiEENS_5ArrayIiLin1ELin1ELi0ELin1ELin1EEEEC1EllRKS3_, symObjAddr: 0x3A84, symBinAddr: 0x1000076E8, symSize: 0x44 }
  - { offsetInCU: 0x49867, offset: 0x49867, size: 0x8, addend: 0x0, symName: __ZN5Eigen14CwiseNullaryOpINS_8internal18scalar_constant_opIiEENS_5ArrayIiLin1ELin1ELi0ELin1ELin1EEEEC2EllRKS3_, symObjAddr: 0x3AC8, symBinAddr: 0x10000772C, symSize: 0xDC }
  - { offsetInCU: 0x498BB, offset: 0x498BB, size: 0x8, addend: 0x0, symName: __ZN5Eigen9ArrayBaseINS_14CwiseNullaryOpINS_8internal18scalar_constant_opIiEENS_5ArrayIiLin1ELin1ELi0ELin1ELin1EEEEEEC2Ev, symObjAddr: 0x3BA4, symBinAddr: 0x100007808, symSize: 0x2C }
  - { offsetInCU: 0x498E5, offset: 0x498E5, size: 0x8, addend: 0x0, symName: __ZN5Eigen8internal19variable_if_dynamicIlLin1EEC1El, symObjAddr: 0x3BD0, symBinAddr: 0x100007834, symSize: 0x34 }
  - { offsetInCU: 0x4991D, offset: 0x4991D, size: 0x8, addend: 0x0, symName: __ZN5Eigen8internal18scalar_constant_opIiEC1ERKS2_, symObjAddr: 0x3C04, symBinAddr: 0x100007868, symSize: 0x34 }
  - { offsetInCU: 0x49955, offset: 0x49955, size: 0x8, addend: 0x0, symName: __ZN5Eigen9DenseBaseINS_14CwiseNullaryOpINS_8internal18scalar_constant_opIiEENS_5ArrayIiLin1ELin1ELi0ELin1ELin1EEEEEEC2Ev, symObjAddr: 0x3C38, symBinAddr: 0x10000789C, symSize: 0x14 }
  - { offsetInCU: 0x4997F, offset: 0x4997F, size: 0x8, addend: 0x0, symName: __ZN5Eigen8internal19variable_if_dynamicIlLin1EEC2El, symObjAddr: 0x3C4C, symBinAddr: 0x1000078B0, symSize: 0x20 }
  - { offsetInCU: 0x499B7, offset: 0x499B7, size: 0x8, addend: 0x0, symName: __ZN5Eigen8internal18scalar_constant_opIiEC2ERKS2_, symObjAddr: 0x3C6C, symBinAddr: 0x1000078D0, symSize: 0x24 }
  - { offsetInCU: 0x499EF, offset: 0x499EF, size: 0x8, addend: 0x0, symName: __ZN5Eigen8internal18scalar_constant_opIiEC2ERKi, symObjAddr: 0x3C90, symBinAddr: 0x1000078F4, symSize: 0x24 }
  - { offsetInCU: 0x49A27, offset: 0x49A27, size: 0x8, addend: 0x0, symName: __ZN5Eigen5ArrayIiLin1ELin1ELi0ELin1ELin1EEC2INS_14CwiseNullaryOpINS_8internal18scalar_constant_opIiEES1_EEEERKNS_9EigenBaseIT_EENS4_9enable_ifIXsr8internal14is_convertibleINS9_6ScalarEiEE5valueENS1_11PrivateTypeEE4typeE, symObjAddr: 0x3CB4, symBinAddr: 0x100007918, symSize: 0x40 }
  - { offsetInCU: 0x49A74, offset: 0x49A74, size: 0x8, addend: 0x0, symName: __ZNK5Eigen9EigenBaseINS_14CwiseNullaryOpINS_8internal18scalar_constant_opIiEENS_5ArrayIiLin1ELin1ELi0ELin1ELin1EEEEEE7derivedEv, symObjAddr: 0x3CF4, symBinAddr: 0x100007958, symSize: 0x14 }
  - { offsetInCU: 0x49A9A, offset: 0x49A9A, size: 0x8, addend: 0x0, symName: __ZN5Eigen15PlainObjectBaseINS_5ArrayIiLin1ELin1ELi0ELin1ELin1EEEEC2INS_14CwiseNullaryOpINS_8internal18scalar_constant_opIiEES2_EEEERKNS_9DenseBaseIT_EE, symObjAddr: 0x3D08, symBinAddr: 0x10000796C, symSize: 0x84 }
  - { offsetInCU: 0x49ADC, offset: 0x49ADC, size: 0x8, addend: 0x0, symName: __ZN5Eigen9ArrayBaseINS_5ArrayIiLin1ELin1ELi0ELin1ELin1EEEEC2Ev, symObjAddr: 0x3D8C, symBinAddr: 0x1000079F0, symSize: 0x2C }
  - { offsetInCU: 0x49B06, offset: 0x49B06, size: 0x8, addend: 0x0, symName: __ZN5Eigen12DenseStorageIiLin1ELin1ELin1ELi0EEC1Ev, symObjAddr: 0x3DB8, symBinAddr: 0x100007A1C, symSize: 0x2C }
  - { offsetInCU: 0x49B30, offset: 0x49B30, size: 0x8, addend: 0x0, symName: __ZN5Eigen15PlainObjectBaseINS_5ArrayIiLin1ELin1ELi0ELin1ELin1EEEE22_check_template_paramsEv, symObjAddr: 0x3DE4, symBinAddr: 0x100007A48, symSize: 0x4 }
  - { offsetInCU: 0x49B85, offset: 0x49B85, size: 0x8, addend: 0x0, symName: __ZN5Eigen15PlainObjectBaseINS_5ArrayIiLin1ELin1ELi0ELin1ELin1EEEE10resizeLikeINS_14CwiseNullaryOpINS_8internal18scalar_constant_opIiEES2_EEEEvRKNS_9EigenBaseIT_EE, symObjAddr: 0x3DE8, symBinAddr: 0x100007A4C, symSize: 0x11C }
  - { offsetInCU: 0x49C19, offset: 0x49C19, size: 0x8, addend: 0x0, symName: __ZN5Eigen15PlainObjectBaseINS_5ArrayIiLin1ELin1ELi0ELin1ELin1EEEE12_set_noaliasINS_14CwiseNullaryOpINS_8internal18scalar_constant_opIiEES2_EEEERS2_RKNS_9DenseBaseIT_EE, symObjAddr: 0x3F04, symBinAddr: 0x100007B68, symSize: 0x60 }
  - { offsetInCU: 0x49C57, offset: 0x49C57, size: 0x8, addend: 0x0, symName: __ZN5Eigen9DenseBaseINS_5ArrayIiLin1ELin1ELi0ELin1ELin1EEEEC2Ev, symObjAddr: 0x3F64, symBinAddr: 0x100007BC8, symSize: 0x14 }
  - { offsetInCU: 0x49C81, offset: 0x49C81, size: 0x8, addend: 0x0, symName: __ZN5Eigen12DenseStorageIiLin1ELin1ELin1ELi0EEC2Ev, symObjAddr: 0x3F78, symBinAddr: 0x100007BDC, symSize: 0x20 }
  - { offsetInCU: 0x49CAB, offset: 0x49CAB, size: 0x8, addend: 0x0, symName: __ZNK5Eigen14CwiseNullaryOpINS_8internal18scalar_constant_opIiEENS_5ArrayIiLin1ELin1ELi0ELin1ELin1EEEE4rowsEv, symObjAddr: 0x3F98, symBinAddr: 0x100007BFC, symSize: 0x24 }
  - { offsetInCU: 0x49CD1, offset: 0x49CD1, size: 0x8, addend: 0x0, symName: __ZNK5Eigen14CwiseNullaryOpINS_8internal18scalar_constant_opIiEENS_5ArrayIiLin1ELin1ELi0ELin1ELin1EEEE4colsEv, symObjAddr: 0x3FBC, symBinAddr: 0x100007C20, symSize: 0x28 }
  - { offsetInCU: 0x49CF7, offset: 0x49CF7, size: 0x8, addend: 0x0, symName: __ZN5Eigen15PlainObjectBaseINS_5ArrayIiLin1ELin1ELi0ELin1ELin1EEEE6resizeEll, symObjAddr: 0x3FE4, symBinAddr: 0x100007C48, symSize: 0x14C }
  - { offsetInCU: 0x49D73, offset: 0x49D73, size: 0x8, addend: 0x0, symName: __ZNK5Eigen8internal19variable_if_dynamicIlLin1EE5valueEv, symObjAddr: 0x4164, symBinAddr: 0x100007DC8, symSize: 0x18 }
  - { offsetInCU: 0x49D99, offset: 0x49D99, size: 0x8, addend: 0x0, symName: __ZN5Eigen12DenseStorageIiLin1ELin1ELin1ELi0EE6resizeElll, symObjAddr: 0x417C, symBinAddr: 0x100007DE0, symSize: 0xB4 }
  - { offsetInCU: 0x49DEC, offset: 0x49DEC, size: 0x8, addend: 0x0, symName: __ZN5Eigen9EigenBaseINS_5ArrayIiLin1ELin1ELi0ELin1ELin1EEEE7derivedEv, symObjAddr: 0x43F4, symBinAddr: 0x100008058, symSize: 0x14 }
  - { offsetInCU: 0x49E12, offset: 0x49E12, size: 0x8, addend: 0x0, symName: __ZN5Eigen8internal9assign_opIiiEC1Ev, symObjAddr: 0x4408, symBinAddr: 0x10000806C, symSize: 0x2C }
  - { offsetInCU: 0x49E3C, offset: 0x49E3C, size: 0x8, addend: 0x0, symName: __ZN5Eigen8internal10AssignmentINS_5ArrayIiLin1ELin1ELi0ELin1ELin1EEENS_14CwiseNullaryOpINS0_18scalar_constant_opIiEES3_EENS0_9assign_opIiiEENS0_11Dense2DenseEvE3runERS3_RKS7_RKS9_, symObjAddr: 0x4434, symBinAddr: 0x100008098, symSize: 0x40 }
  - { offsetInCU: 0x49E7E, offset: 0x49E7E, size: 0x8, addend: 0x0, symName: __ZN5Eigen8internal27checkTransposeAliasing_implINS_5ArrayIiLin1ELin1ELi0ELin1ELin1EEENS_14CwiseNullaryOpINS0_18scalar_constant_opIiEES3_EELb0EE3runERKS3_RKS7_, symObjAddr: 0x4544, symBinAddr: 0x1000081A8, symSize: 0x14 }
  - { offsetInCU: 0x49EA9, offset: 0x49EA9, size: 0x8, addend: 0x0, symName: __ZN5Eigen15PlainObjectBaseINS_5ArrayIiLin1ELin1ELi0ELin1ELin1EEEE4dataEv, symObjAddr: 0x4694, symBinAddr: 0x1000082F8, symSize: 0x24 }
  - { offsetInCU: 0x49ECF, offset: 0x49ECF, size: 0x8, addend: 0x0, symName: __ZNK5Eigen9EigenBaseINS_5ArrayIiLin1ELin1ELi0ELin1ELin1EEEE4sizeEv, symObjAddr: 0x46B8, symBinAddr: 0x10000831C, symSize: 0x44 }
  - { offsetInCU: 0x49EF5, offset: 0x49EF5, size: 0x8, addend: 0x0, symName: __ZNK5Eigen14CwiseNullaryOpINS_8internal18scalar_constant_opIiEENS_5ArrayIiLin1ELin1ELi0ELin1ELin1EEEE7functorEv, symObjAddr: 0x46FC, symBinAddr: 0x100008360, symSize: 0x18 }
  - { offsetInCU: 0x49F1B, offset: 0x49F1B, size: 0x8, addend: 0x0, symName: __ZNK5Eigen8internal18scalar_constant_opIiEclEv, symObjAddr: 0x4714, symBinAddr: 0x100008378, symSize: 0x18 }
  - { offsetInCU: 0x49F41, offset: 0x49F41, size: 0x8, addend: 0x0, symName: __ZN5Eigen12DenseStorageIiLin1ELin1ELin1ELi0EE4dataEv, symObjAddr: 0x47A4, symBinAddr: 0x100008408, symSize: 0x18 }
  - { offsetInCU: 0x49F67, offset: 0x49F67, size: 0x8, addend: 0x0, symName: __ZNK5Eigen9EigenBaseINS_5ArrayIiLin1ELin1ELi0ELin1ELin1EEEE4rowsEv, symObjAddr: 0x47BC, symBinAddr: 0x100008420, symSize: 0x38 }
  - { offsetInCU: 0x49F8D, offset: 0x49F8D, size: 0x8, addend: 0x0, symName: __ZNK5Eigen9EigenBaseINS_5ArrayIiLin1ELin1ELi0ELin1ELin1EEEE4colsEv, symObjAddr: 0x47F4, symBinAddr: 0x100008458, symSize: 0x28 }
  - { offsetInCU: 0x49FB3, offset: 0x49FB3, size: 0x8, addend: 0x0, symName: __ZNK5Eigen9EigenBaseINS_5ArrayIiLin1ELin1ELi0ELin1ELin1EEEE7derivedEv, symObjAddr: 0x481C, symBinAddr: 0x100008480, symSize: 0x14 }
  - { offsetInCU: 0x49FD9, offset: 0x49FD9, size: 0x8, addend: 0x0, symName: __ZN5Eigen8internal9assign_opIiiEC2Ev, symObjAddr: 0x4830, symBinAddr: 0x100008494, symSize: 0x14 }
  - { offsetInCU: 0x4A003, offset: 0x4A003, size: 0x8, addend: 0x0, symName: __ZNK5Eigen15DenseCoeffsBaseINS_5ArrayIiLin1ELi1ELi0ELin1ELi1EEELi0EE5coeffEl, symObjAddr: 0x4844, symBinAddr: 0x1000084A8, symSize: 0x58 }
  - { offsetInCU: 0x4A037, offset: 0x4A037, size: 0x8, addend: 0x0, symName: __ZN5Eigen8internal9evaluatorINS_5ArrayIiLin1ELi1ELi0ELin1ELi1EEEEC1ERKS3_, symObjAddr: 0x489C, symBinAddr: 0x100008500, symSize: 0x34 }
  - { offsetInCU: 0x4A070, offset: 0x4A070, size: 0x8, addend: 0x0, symName: __ZN5Eigen8internal9evaluatorINS_5ArrayIiLin1ELi1ELi0ELin1ELi1EEEED1Ev, symObjAddr: 0x48D0, symBinAddr: 0x100008534, symSize: 0x2C }
  - { offsetInCU: 0x4A09D, offset: 0x4A09D, size: 0x8, addend: 0x0, symName: __ZN5Eigen9DenseBaseINS_5ArrayIiLin1ELi1ELi0ELin1ELi1EEEE11NullaryExprINS_8internal12linspaced_opIiEEEEKNS_14CwiseNullaryOpIT_S2_EElRKS9_, symObjAddr: 0x48FC, symBinAddr: 0x100008560, symSize: 0x3C }
  - { offsetInCU: 0x4A0DB, offset: 0x4A0DB, size: 0x8, addend: 0x0, symName: __ZN5Eigen8internal12linspaced_opIiEC1ERKiS4_l, symObjAddr: 0x4938, symBinAddr: 0x10000859C, symSize: 0x44 }
  - { offsetInCU: 0x4A12F, offset: 0x4A12F, size: 0x8, addend: 0x0, symName: __ZN5Eigen14CwiseNullaryOpINS_8internal12linspaced_opIiEENS_5ArrayIiLin1ELi1ELi0ELin1ELi1EEEEC1EllRKS3_, symObjAddr: 0x497C, symBinAddr: 0x1000085E0, symSize: 0x44 }
  - { offsetInCU: 0x4A183, offset: 0x4A183, size: 0x8, addend: 0x0, symName: __ZN5Eigen14CwiseNullaryOpINS_8internal12linspaced_opIiEENS_5ArrayIiLin1ELi1ELi0ELin1ELi1EEEEC2EllRKS3_, symObjAddr: 0x49C0, symBinAddr: 0x100008624, symSize: 0xEC }
  - { offsetInCU: 0x4A1D7, offset: 0x4A1D7, size: 0x8, addend: 0x0, symName: __ZN5Eigen9ArrayBaseINS_14CwiseNullaryOpINS_8internal12linspaced_opIiEENS_5ArrayIiLin1ELi1ELi0ELin1ELi1EEEEEEC2Ev, symObjAddr: 0x4AAC, symBinAddr: 0x100008710, symSize: 0x2C }
  - { offsetInCU: 0x4A201, offset: 0x4A201, size: 0x8, addend: 0x0, symName: __ZN5Eigen8internal19variable_if_dynamicIlLi1EEC1El, symObjAddr: 0x4AD8, symBinAddr: 0x10000873C, symSize: 0x34 }
  - { offsetInCU: 0x4A239, offset: 0x4A239, size: 0x8, addend: 0x0, symName: __ZN5Eigen9DenseBaseINS_14CwiseNullaryOpINS_8internal12linspaced_opIiEENS_5ArrayIiLin1ELi1ELi0ELin1ELi1EEEEEEC2Ev, symObjAddr: 0x4B0C, symBinAddr: 0x100008770, symSize: 0x14 }
  - { offsetInCU: 0x4A263, offset: 0x4A263, size: 0x8, addend: 0x0, symName: __ZN5Eigen8internal19variable_if_dynamicIlLi1EEC2El, symObjAddr: 0x4B20, symBinAddr: 0x100008784, symSize: 0x64 }
  - { offsetInCU: 0x4A29B, offset: 0x4A29B, size: 0x8, addend: 0x0, symName: __ZN5Eigen8internal12linspaced_opIiEC2ERKiS4_l, symObjAddr: 0x4B84, symBinAddr: 0x1000087E8, symSize: 0x78 }
  - { offsetInCU: 0x4A2EF, offset: 0x4A2EF, size: 0x8, addend: 0x0, symName: __ZN5Eigen8internal17linspaced_op_implIiLb1EEC1ERKiS4_l, symObjAddr: 0x4BFC, symBinAddr: 0x100008860, symSize: 0x44 }
  - { offsetInCU: 0x4A355, offset: 0x4A355, size: 0x8, addend: 0x0, symName: __ZN5Eigen8internal17linspaced_op_implIiLb1EEC2ERKiS4_l, symObjAddr: 0x4C40, symBinAddr: 0x1000088A4, symSize: 0x22C }
  - { offsetInCU: 0x4A41B, offset: 0x4A41B, size: 0x8, addend: 0x0, symName: __ZN5Eigen5ArrayIiLin1ELi1ELi0ELin1ELi1EEC2INS_14CwiseNullaryOpINS_8internal12linspaced_opIiEES1_EEEERKNS_9EigenBaseIT_EENS4_9enable_ifIXsr8internal14is_convertibleINS9_6ScalarEiEE5valueENS1_11PrivateTypeEE4typeE, symObjAddr: 0x4E88, symBinAddr: 0x100008AEC, symSize: 0x40 }
  - { offsetInCU: 0x4A468, offset: 0x4A468, size: 0x8, addend: 0x0, symName: __ZNK5Eigen9EigenBaseINS_14CwiseNullaryOpINS_8internal12linspaced_opIiEENS_5ArrayIiLin1ELi1ELi0ELin1ELi1EEEEEE7derivedEv, symObjAddr: 0x4EC8, symBinAddr: 0x100008B2C, symSize: 0x14 }
  - { offsetInCU: 0x4A48E, offset: 0x4A48E, size: 0x8, addend: 0x0, symName: __ZN5Eigen15PlainObjectBaseINS_5ArrayIiLin1ELi1ELi0ELin1ELi1EEEEC2INS_14CwiseNullaryOpINS_8internal12linspaced_opIiEES2_EEEERKNS_9DenseBaseIT_EE, symObjAddr: 0x4EDC, symBinAddr: 0x100008B40, symSize: 0x84 }
  - { offsetInCU: 0x4A4D0, offset: 0x4A4D0, size: 0x8, addend: 0x0, symName: __ZN5Eigen9ArrayBaseINS_5ArrayIiLin1ELi1ELi0ELin1ELi1EEEEC2Ev, symObjAddr: 0x4F60, symBinAddr: 0x100008BC4, symSize: 0x2C }
  - { offsetInCU: 0x4A4FA, offset: 0x4A4FA, size: 0x8, addend: 0x0, symName: __ZN5Eigen12DenseStorageIiLin1ELin1ELi1ELi0EEC1Ev, symObjAddr: 0x4F8C, symBinAddr: 0x100008BF0, symSize: 0x2C }
  - { offsetInCU: 0x4A524, offset: 0x4A524, size: 0x8, addend: 0x0, symName: __ZN5Eigen15PlainObjectBaseINS_5ArrayIiLin1ELi1ELi0ELin1ELi1EEEE22_check_template_paramsEv, symObjAddr: 0x4FB8, symBinAddr: 0x100008C1C, symSize: 0x4 }
  - { offsetInCU: 0x4A538, offset: 0x4A538, size: 0x8, addend: 0x0, symName: __ZN5Eigen15PlainObjectBaseINS_5ArrayIiLin1ELi1ELi0ELin1ELi1EEEE10resizeLikeINS_14CwiseNullaryOpINS_8internal12linspaced_opIiEES2_EEEEvRKNS_9EigenBaseIT_EE, symObjAddr: 0x4FBC, symBinAddr: 0x100008C20, symSize: 0x170 }
  - { offsetInCU: 0x4A5CC, offset: 0x4A5CC, size: 0x8, addend: 0x0, symName: __ZN5Eigen15PlainObjectBaseINS_5ArrayIiLin1ELi1ELi0ELin1ELi1EEEE12_set_noaliasINS_14CwiseNullaryOpINS_8internal12linspaced_opIiEES2_EEEERS2_RKNS_9DenseBaseIT_EE, symObjAddr: 0x512C, symBinAddr: 0x100008D90, symSize: 0x60 }
  - { offsetInCU: 0x4A60A, offset: 0x4A60A, size: 0x8, addend: 0x0, symName: __ZN5Eigen9DenseBaseINS_5ArrayIiLin1ELi1ELi0ELin1ELi1EEEEC2Ev, symObjAddr: 0x518C, symBinAddr: 0x100008DF0, symSize: 0x14 }
  - { offsetInCU: 0x4A634, offset: 0x4A634, size: 0x8, addend: 0x0, symName: __ZN5Eigen12DenseStorageIiLin1ELin1ELi1ELi0EEC2Ev, symObjAddr: 0x51A0, symBinAddr: 0x100008E04, symSize: 0x1C }
  - { offsetInCU: 0x4A65E, offset: 0x4A65E, size: 0x8, addend: 0x0, symName: __ZNK5Eigen14CwiseNullaryOpINS_8internal12linspaced_opIiEENS_5ArrayIiLin1ELi1ELi0ELin1ELi1EEEE4rowsEv, symObjAddr: 0x51BC, symBinAddr: 0x100008E20, symSize: 0x24 }
  - { offsetInCU: 0x4A684, offset: 0x4A684, size: 0x8, addend: 0x0, symName: __ZNK5Eigen14CwiseNullaryOpINS_8internal12linspaced_opIiEENS_5ArrayIiLin1ELi1ELi0ELin1ELi1EEEE4colsEv, symObjAddr: 0x51E0, symBinAddr: 0x100008E44, symSize: 0x20 }
  - { offsetInCU: 0x4A6AA, offset: 0x4A6AA, size: 0x8, addend: 0x0, symName: __ZN5Eigen15PlainObjectBaseINS_5ArrayIiLin1ELi1ELi0ELin1ELi1EEEE6resizeEll, symObjAddr: 0x5200, symBinAddr: 0x100008E64, symSize: 0x168 }
  - { offsetInCU: 0x4A726, offset: 0x4A726, size: 0x8, addend: 0x0, symName: __ZN5Eigen8internal19variable_if_dynamicIlLi1EE5valueEv, symObjAddr: 0x5368, symBinAddr: 0x100008FCC, symSize: 0x8 }
  - { offsetInCU: 0x4A73A, offset: 0x4A73A, size: 0x8, addend: 0x0, symName: __ZN5Eigen12DenseStorageIiLin1ELin1ELi1ELi0EE6resizeElll, symObjAddr: 0x5370, symBinAddr: 0x100008FD4, symSize: 0xA4 }
  - { offsetInCU: 0x4A789, offset: 0x4A789, size: 0x8, addend: 0x0, symName: __ZN5Eigen9EigenBaseINS_5ArrayIiLin1ELi1ELi0ELin1ELi1EEEE7derivedEv, symObjAddr: 0x5450, symBinAddr: 0x1000090B4, symSize: 0x14 }
  - { offsetInCU: 0x4A7AF, offset: 0x4A7AF, size: 0x8, addend: 0x0, symName: __ZN5Eigen8internal10AssignmentINS_5ArrayIiLin1ELi1ELi0ELin1ELi1EEENS_14CwiseNullaryOpINS0_12linspaced_opIiEES3_EENS0_9assign_opIiiEENS0_11Dense2DenseEvE3runERS3_RKS7_RKS9_, symObjAddr: 0x5464, symBinAddr: 0x1000090C8, symSize: 0x40 }
  - { offsetInCU: 0x4A814, offset: 0x4A814, size: 0x8, addend: 0x0, symName: __ZN5Eigen8internal9evaluatorINS_14CwiseNullaryOpINS0_12linspaced_opIiEENS_5ArrayIiLin1ELi1ELi0ELin1ELi1EEEEEEC1ERKS7_, symObjAddr: 0x5598, symBinAddr: 0x1000091FC, symSize: 0x34 }
  - { offsetInCU: 0x4A84D, offset: 0x4A84D, size: 0x8, addend: 0x0, symName: __ZNK5Eigen9EigenBaseINS_5ArrayIiLin1ELi1ELi0ELin1ELi1EEEE18const_cast_derivedEv, symObjAddr: 0x56C4, symBinAddr: 0x100009328, symSize: 0x14 }
  - { offsetInCU: 0x4A8A0, offset: 0x4A8A0, size: 0x8, addend: 0x0, symName: __ZN5Eigen8internal31generic_dense_assignment_kernelINS0_9evaluatorINS_5ArrayIiLin1ELi1ELi0ELin1ELi1EEEEENS2_INS_14CwiseNullaryOpINS0_12linspaced_opIiEES4_EEEENS0_9assign_opIiiEELi0EEC1ERS5_RKSA_RKSC_RS4_, symObjAddr: 0x56D8, symBinAddr: 0x10000933C, symSize: 0x4C }
  - { offsetInCU: 0x4A90B, offset: 0x4A90B, size: 0x8, addend: 0x0, symName: __ZN5Eigen8internal21dense_assignment_loopINS0_31generic_dense_assignment_kernelINS0_9evaluatorINS_5ArrayIiLin1ELi1ELi0ELin1ELi1EEEEENS3_INS_14CwiseNullaryOpINS0_12linspaced_opIiEES5_EEEENS0_9assign_opIiiEELi0EEELi1ELi0EE3runERSE_, symObjAddr: 0x5724, symBinAddr: 0x100009388, symSize: 0x68 }
  - { offsetInCU: 0x4A95B, offset: 0x4A95B, size: 0x8, addend: 0x0, symName: __ZN5Eigen8internal9evaluatorINS_14CwiseNullaryOpINS0_12linspaced_opIiEENS_5ArrayIiLin1ELi1ELi0ELin1ELi1EEEEEED1Ev, symObjAddr: 0x578C, symBinAddr: 0x1000093F0, symSize: 0x2C }
  - { offsetInCU: 0x4A987, offset: 0x4A987, size: 0x8, addend: 0x0, symName: __ZN5Eigen8internal9evaluatorINS_14CwiseNullaryOpINS0_12linspaced_opIiEENS_5ArrayIiLin1ELi1ELi0ELin1ELi1EEEEEEC2ERKS7_, symObjAddr: 0x57B8, symBinAddr: 0x10000941C, symSize: 0x70 }
  - { offsetInCU: 0x4A9C0, offset: 0x4A9C0, size: 0x8, addend: 0x0, symName: __ZN5Eigen8internal14evaluator_baseINS_14CwiseNullaryOpINS0_12linspaced_opIiEENS_5ArrayIiLin1ELi1ELi0ELin1ELi1EEEEEEC2Ev, symObjAddr: 0x5828, symBinAddr: 0x10000948C, symSize: 0x14 }
  - { offsetInCU: 0x4A9EA, offset: 0x4A9EA, size: 0x8, addend: 0x0, symName: __ZNK5Eigen14CwiseNullaryOpINS_8internal12linspaced_opIiEENS_5ArrayIiLin1ELi1ELi0ELin1ELi1EEEE7functorEv, symObjAddr: 0x583C, symBinAddr: 0x1000094A0, symSize: 0x18 }
  - { offsetInCU: 0x4AA10, offset: 0x4AA10, size: 0x8, addend: 0x0, symName: __ZN5Eigen8internal14evaluator_baseINS_14CwiseNullaryOpINS0_12linspaced_opIiEENS_5ArrayIiLin1ELi1ELi0ELin1ELi1EEEEEED2Ev, symObjAddr: 0x5854, symBinAddr: 0x1000094B8, symSize: 0x14 }
  - { offsetInCU: 0x4AA3A, offset: 0x4AA3A, size: 0x8, addend: 0x0, symName: __ZN5Eigen8internal31generic_dense_assignment_kernelINS0_9evaluatorINS_5ArrayIiLin1ELi1ELi0ELin1ELi1EEEEENS2_INS_14CwiseNullaryOpINS0_12linspaced_opIiEES4_EEEENS0_9assign_opIiiEELi0EEC2ERS5_RKSA_RKSC_RS4_, symObjAddr: 0x5868, symBinAddr: 0x1000094CC, symSize: 0x44 }
  - { offsetInCU: 0x4AAA0, offset: 0x4AAA0, size: 0x8, addend: 0x0, symName: __ZNK5Eigen8internal31generic_dense_assignment_kernelINS0_9evaluatorINS_5ArrayIiLin1ELi1ELi0ELin1ELi1EEEEENS2_INS_14CwiseNullaryOpINS0_12linspaced_opIiEES4_EEEENS0_9assign_opIiiEELi0EE4sizeEv, symObjAddr: 0x58AC, symBinAddr: 0x100009510, symSize: 0x28 }
  - { offsetInCU: 0x4AAC6, offset: 0x4AAC6, size: 0x8, addend: 0x0, symName: __ZN5Eigen8internal31generic_dense_assignment_kernelINS0_9evaluatorINS_5ArrayIiLin1ELi1ELi0ELin1ELi1EEEEENS2_INS_14CwiseNullaryOpINS0_12linspaced_opIiEES4_EEEENS0_9assign_opIiiEELi0EE11assignCoeffEl, symObjAddr: 0x58D4, symBinAddr: 0x100009538, symSize: 0x68 }
  - { offsetInCU: 0x4AAFB, offset: 0x4AAFB, size: 0x8, addend: 0x0, symName: __ZNK5Eigen8internal9assign_opIiiE11assignCoeffERiRKi, symObjAddr: 0x593C, symBinAddr: 0x1000095A0, symSize: 0x28 }
  - { offsetInCU: 0x4AB3D, offset: 0x4AB3D, size: 0x8, addend: 0x0, symName: __ZN5Eigen8internal9evaluatorINS_15PlainObjectBaseINS_5ArrayIiLin1ELi1ELi0ELin1ELi1EEEEEE8coeffRefEl, symObjAddr: 0x5964, symBinAddr: 0x1000095C8, symSize: 0x24 }
  - { offsetInCU: 0x4AB7B, offset: 0x4AB7B, size: 0x8, addend: 0x0, symName: __ZNK5Eigen8internal9evaluatorINS_14CwiseNullaryOpINS0_12linspaced_opIiEENS_5ArrayIiLin1ELi1ELi0ELin1ELi1EEEEEE5coeffIlEEiT_, symObjAddr: 0x5988, symBinAddr: 0x1000095EC, symSize: 0x34 }
  - { offsetInCU: 0x4ABBE, offset: 0x4ABBE, size: 0x8, addend: 0x0, symName: __ZNK5Eigen8internal15nullary_wrapperIiNS0_12linspaced_opIiEELb0ELb1ELb0EEclIlEEiRKS3_T_, symObjAddr: 0x59BC, symBinAddr: 0x100009620, symSize: 0x30 }
  - { offsetInCU: 0x4AC10, offset: 0x4AC10, size: 0x8, addend: 0x0, symName: __ZNK5Eigen8internal12linspaced_opIiEclIlEEKiT_, symObjAddr: 0x59EC, symBinAddr: 0x100009650, symSize: 0x2C }
  - { offsetInCU: 0x4AC52, offset: 0x4AC52, size: 0x8, addend: 0x0, symName: __ZNK5Eigen8internal17linspaced_op_implIiLb1EEclIlEEKiT_, symObjAddr: 0x5A18, symBinAddr: 0x10000967C, symSize: 0x98 }
  - { offsetInCU: 0x4AC8F, offset: 0x4AC8F, size: 0x8, addend: 0x0, symName: __ZN5Eigen8internal9evaluatorINS_14CwiseNullaryOpINS0_12linspaced_opIiEENS_5ArrayIiLin1ELi1ELi0ELin1ELi1EEEEEED2Ev, symObjAddr: 0x5AB0, symBinAddr: 0x100009714, symSize: 0x2C }
  - { offsetInCU: 0x4ACBB, offset: 0x4ACBB, size: 0x8, addend: 0x0, symName: __ZN5Eigen9TransposeINS_5ArrayIiLin1ELi1ELi0ELin1ELi1EEEEC1ERS2_, symObjAddr: 0x5ADC, symBinAddr: 0x100009740, symSize: 0x34 }
  - { offsetInCU: 0x4ACF3, offset: 0x4ACF3, size: 0x8, addend: 0x0, symName: __ZN5Eigen9TransposeINS_5ArrayIiLin1ELi1ELi0ELin1ELi1EEEEC2ERS2_, symObjAddr: 0x5B10, symBinAddr: 0x100009774, symSize: 0x38 }
  - { offsetInCU: 0x4AD2B, offset: 0x4AD2B, size: 0x8, addend: 0x0, symName: __ZN5Eigen13TransposeImplINS_5ArrayIiLin1ELi1ELi0ELin1ELi1EEENS_5DenseEEC2Ev, symObjAddr: 0x5B48, symBinAddr: 0x1000097AC, symSize: 0x2C }
  - { offsetInCU: 0x4AD55, offset: 0x4AD55, size: 0x8, addend: 0x0, symName: __ZN5Eigen9ArrayBaseINS_9TransposeINS_5ArrayIiLin1ELi1ELi0ELin1ELi1EEEEEEC2Ev, symObjAddr: 0x5B74, symBinAddr: 0x1000097D8, symSize: 0x2C }
  - { offsetInCU: 0x4AD7F, offset: 0x4AD7F, size: 0x8, addend: 0x0, symName: __ZN5Eigen9DenseBaseINS_9TransposeINS_5ArrayIiLin1ELi1ELi0ELin1ELi1EEEEEEC2Ev, symObjAddr: 0x5BA0, symBinAddr: 0x100009804, symSize: 0x14 }
  - { offsetInCU: 0x4ADA9, offset: 0x4ADA9, size: 0x8, addend: 0x0, symName: __ZNK5Eigen9EigenBaseINS_9TransposeINS_5ArrayIiLin1ELi1ELi0ELin1ELi1EEEEEE7derivedEv, symObjAddr: 0x5BB4, symBinAddr: 0x100009818, symSize: 0x14 }
  - { offsetInCU: 0x4ADD4, offset: 0x4ADD4, size: 0x8, addend: 0x0, symName: __ZN5Eigen9ReplicateINS_9TransposeINS_5ArrayIiLin1ELi1ELi0ELin1ELi1EEEEELin1ELin1EEC1IS4_EERKT_ll, symObjAddr: 0x5BC8, symBinAddr: 0x10000982C, symSize: 0x44 }
  - { offsetInCU: 0x4AE31, offset: 0x4AE31, size: 0x8, addend: 0x0, symName: __ZN5Eigen9ReplicateINS_9TransposeINS_5ArrayIiLin1ELi1ELi0ELin1ELi1EEEEELin1ELin1EEC2IS4_EERKT_ll, symObjAddr: 0x5C0C, symBinAddr: 0x100009870, symSize: 0x64 }
  - { offsetInCU: 0x4AE8E, offset: 0x4AE8E, size: 0x8, addend: 0x0, symName: __ZN5Eigen9ArrayBaseINS_9ReplicateINS_9TransposeINS_5ArrayIiLin1ELi1ELi0ELin1ELi1EEEEELin1ELin1EEEEC2Ev, symObjAddr: 0x5C70, symBinAddr: 0x1000098D4, symSize: 0x2C }
  - { offsetInCU: 0x4AEB8, offset: 0x4AEB8, size: 0x8, addend: 0x0, symName: __ZN5Eigen9DenseBaseINS_9ReplicateINS_9TransposeINS_5ArrayIiLin1ELi1ELi0ELin1ELi1EEEEELin1ELin1EEEEC2Ev, symObjAddr: 0x5C9C, symBinAddr: 0x100009900, symSize: 0x14 }
  - { offsetInCU: 0x4AEE2, offset: 0x4AEE2, size: 0x8, addend: 0x0, symName: __ZN5Eigen5ArrayIiLin1ELin1ELi0ELin1ELin1EEC2INS_9ReplicateINS_9TransposeINS0_IiLin1ELi1ELi0ELin1ELi1EEEEELin1ELin1EEEEERKNS_9EigenBaseIT_EENS_8internal9enable_ifIXsr8internal14is_convertibleINS9_6ScalarEiEE5valueENS1_11PrivateTypeEE4typeE, symObjAddr: 0x5CB0, symBinAddr: 0x100009914, symSize: 0x40 }
  - { offsetInCU: 0x4AF2F, offset: 0x4AF2F, size: 0x8, addend: 0x0, symName: __ZNK5Eigen9EigenBaseINS_9ReplicateINS_9TransposeINS_5ArrayIiLin1ELi1ELi0ELin1ELi1EEEEELin1ELin1EEEE7derivedEv, symObjAddr: 0x5CF0, symBinAddr: 0x100009954, symSize: 0x14 }
  - { offsetInCU: 0x4AF55, offset: 0x4AF55, size: 0x8, addend: 0x0, symName: __ZN5Eigen15PlainObjectBaseINS_5ArrayIiLin1ELin1ELi0ELin1ELin1EEEEC2INS_9ReplicateINS_9TransposeINS1_IiLin1ELi1ELi0ELin1ELi1EEEEELin1ELin1EEEEERKNS_9DenseBaseIT_EE, symObjAddr: 0x5D04, symBinAddr: 0x100009968, symSize: 0x80 }
  - { offsetInCU: 0x4AF97, offset: 0x4AF97, size: 0x8, addend: 0x0, symName: __ZN5Eigen15PlainObjectBaseINS_5ArrayIiLin1ELin1ELi0ELin1ELin1EEEE10resizeLikeINS_9ReplicateINS_9TransposeINS1_IiLin1ELi1ELi0ELin1ELi1EEEEELin1ELin1EEEEEvRKNS_9EigenBaseIT_EE, symObjAddr: 0x5D84, symBinAddr: 0x1000099E8, symSize: 0x11C }
  - { offsetInCU: 0x4B02B, offset: 0x4B02B, size: 0x8, addend: 0x0, symName: __ZN5Eigen15PlainObjectBaseINS_5ArrayIiLin1ELin1ELi0ELin1ELin1EEEE12_set_noaliasINS_9ReplicateINS_9TransposeINS1_IiLin1ELi1ELi0ELin1ELi1EEEEELin1ELin1EEEEERS2_RKNS_9DenseBaseIT_EE, symObjAddr: 0x5EA0, symBinAddr: 0x100009B04, symSize: 0x60 }
  - { offsetInCU: 0x4B069, offset: 0x4B069, size: 0x8, addend: 0x0, symName: __ZNK5Eigen9ReplicateINS_9TransposeINS_5ArrayIiLin1ELi1ELi0ELin1ELi1EEEEELin1ELin1EE4rowsEv, symObjAddr: 0x5F00, symBinAddr: 0x100009B64, symSize: 0x44 }
  - { offsetInCU: 0x4B08F, offset: 0x4B08F, size: 0x8, addend: 0x0, symName: __ZNK5Eigen9ReplicateINS_9TransposeINS_5ArrayIiLin1ELi1ELi0ELin1ELi1EEEEELin1ELin1EE4colsEv, symObjAddr: 0x5F44, symBinAddr: 0x100009BA8, symSize: 0x44 }
  - { offsetInCU: 0x4B0B5, offset: 0x4B0B5, size: 0x8, addend: 0x0, symName: __ZNK5Eigen9TransposeINS_5ArrayIiLin1ELi1ELi0ELin1ELi1EEEE4rowsEv, symObjAddr: 0x5F88, symBinAddr: 0x100009BEC, symSize: 0x28 }
  - { offsetInCU: 0x4B0DB, offset: 0x4B0DB, size: 0x8, addend: 0x0, symName: __ZNK5Eigen9TransposeINS_5ArrayIiLin1ELi1ELi0ELin1ELi1EEEE4colsEv, symObjAddr: 0x5FB0, symBinAddr: 0x100009C14, symSize: 0x28 }
  - { offsetInCU: 0x4B101, offset: 0x4B101, size: 0x8, addend: 0x0, symName: __ZN5Eigen8internal10AssignmentINS_5ArrayIiLin1ELin1ELi0ELin1ELin1EEENS_9ReplicateINS_9TransposeINS2_IiLin1ELi1ELi0ELin1ELi1EEEEELin1ELin1EEENS0_9assign_opIiiEENS0_11Dense2DenseEvE3runERS3_RKS8_RKSA_, symObjAddr: 0x6014, symBinAddr: 0x100009C78, symSize: 0x40 }
  - { offsetInCU: 0x4B143, offset: 0x4B143, size: 0x8, addend: 0x0, symName: __ZN5Eigen8internal27checkTransposeAliasing_implINS_5ArrayIiLin1ELin1ELi0ELin1ELin1EEENS_9ReplicateINS_9TransposeINS2_IiLin1ELi1ELi0ELin1ELi1EEEEELin1ELin1EEELb0EE3runERKS3_RKS8_, symObjAddr: 0x6194, symBinAddr: 0x100009DF8, symSize: 0x14 }
  - { offsetInCU: 0x4B1A0, offset: 0x4B1A0, size: 0x8, addend: 0x0, symName: __ZN5Eigen8internal9evaluatorINS_9ReplicateINS_9TransposeINS_5ArrayIiLin1ELi1ELi0ELin1ELi1EEEEELin1ELin1EEEEC1ERKS7_, symObjAddr: 0x61A8, symBinAddr: 0x100009E0C, symSize: 0x34 }
  - { offsetInCU: 0x4B1D8, offset: 0x4B1D8, size: 0x8, addend: 0x0, symName: __ZN5Eigen8internal9evaluatorINS_5ArrayIiLin1ELin1ELi0ELin1ELin1EEEEC1ERKS3_, symObjAddr: 0x62D4, symBinAddr: 0x100009F38, symSize: 0x34 }
  - { offsetInCU: 0x4B211, offset: 0x4B211, size: 0x8, addend: 0x0, symName: __ZNK5Eigen9EigenBaseINS_5ArrayIiLin1ELin1ELi0ELin1ELin1EEEE18const_cast_derivedEv, symObjAddr: 0x6308, symBinAddr: 0x100009F6C, symSize: 0x14 }
  - { offsetInCU: 0x4B264, offset: 0x4B264, size: 0x8, addend: 0x0, symName: __ZN5Eigen8internal31generic_dense_assignment_kernelINS0_9evaluatorINS_5ArrayIiLin1ELin1ELi0ELin1ELin1EEEEENS2_INS_9ReplicateINS_9TransposeINS3_IiLin1ELi1ELi0ELin1ELi1EEEEELin1ELin1EEEEENS0_9assign_opIiiEELi0EEC1ERS5_RKSB_RKSD_RS4_, symObjAddr: 0x631C, symBinAddr: 0x100009F80, symSize: 0x4C }
  - { offsetInCU: 0x4B2CF, offset: 0x4B2CF, size: 0x8, addend: 0x0, symName: __ZN5Eigen8internal21dense_assignment_loopINS0_31generic_dense_assignment_kernelINS0_9evaluatorINS_5ArrayIiLin1ELin1ELi0ELin1ELin1EEEEENS3_INS_9ReplicateINS_9TransposeINS4_IiLin1ELi1ELi0ELin1ELi1EEEEELin1ELin1EEEEENS0_9assign_opIiiEELi0EEELi0ELi0EE3runERSF_, symObjAddr: 0x6368, symBinAddr: 0x100009FCC, symSize: 0xAC }
  - { offsetInCU: 0x4B32D, offset: 0x4B32D, size: 0x8, addend: 0x0, symName: __ZN5Eigen8internal9evaluatorINS_5ArrayIiLin1ELin1ELi0ELin1ELin1EEEED1Ev, symObjAddr: 0x6414, symBinAddr: 0x10000A078, symSize: 0x2C }
  - { offsetInCU: 0x4B35A, offset: 0x4B35A, size: 0x8, addend: 0x0, symName: __ZN5Eigen8internal9evaluatorINS_9ReplicateINS_9TransposeINS_5ArrayIiLin1ELi1ELi0ELin1ELi1EEEEELin1ELin1EEEED1Ev, symObjAddr: 0x6440, symBinAddr: 0x10000A0A4, symSize: 0x2C }
  - { offsetInCU: 0x4B386, offset: 0x4B386, size: 0x8, addend: 0x0, symName: __ZN5Eigen8internal9evaluatorINS_9ReplicateINS_9TransposeINS_5ArrayIiLin1ELi1ELi0ELin1ELi1EEEEELin1ELin1EEEEC2ERKS7_, symObjAddr: 0x646C, symBinAddr: 0x10000A0D0, symSize: 0x34 }
  - { offsetInCU: 0x4B3BE, offset: 0x4B3BE, size: 0x8, addend: 0x0, symName: __ZN5Eigen8internal15unary_evaluatorINS_9ReplicateINS_9TransposeINS_5ArrayIiLin1ELi1ELi0ELin1ELi1EEEEELin1ELin1EEENS0_10IndexBasedEiEC2ERKS7_, symObjAddr: 0x64A0, symBinAddr: 0x10000A104, symSize: 0x104 }
  - { offsetInCU: 0x4B3F7, offset: 0x4B3F7, size: 0x8, addend: 0x0, symName: __ZN5Eigen8internal14evaluator_baseINS_9ReplicateINS_9TransposeINS_5ArrayIiLin1ELi1ELi0ELin1ELi1EEEEELin1ELin1EEEEC2Ev, symObjAddr: 0x65A4, symBinAddr: 0x10000A208, symSize: 0x14 }
  - { offsetInCU: 0x4B421, offset: 0x4B421, size: 0x8, addend: 0x0, symName: __ZNK5Eigen9ReplicateINS_9TransposeINS_5ArrayIiLin1ELi1ELi0ELin1ELi1EEEEELin1ELin1EE16nestedExpressionEv, symObjAddr: 0x65B8, symBinAddr: 0x10000A21C, symSize: 0x14 }
  - { offsetInCU: 0x4B447, offset: 0x4B447, size: 0x8, addend: 0x0, symName: __ZN5Eigen8internal9evaluatorINS_9TransposeINS_5ArrayIiLin1ELi1ELi0ELin1ELi1EEEEEEC1ERKS5_, symObjAddr: 0x65CC, symBinAddr: 0x10000A230, symSize: 0x34 }
  - { offsetInCU: 0x4B47F, offset: 0x4B47F, size: 0x8, addend: 0x0, symName: __ZN5Eigen8internal9evaluatorINS_9TransposeINS_5ArrayIiLin1ELi1ELi0ELin1ELi1EEEEEED1Ev, symObjAddr: 0x6600, symBinAddr: 0x10000A264, symSize: 0x2C }
  - { offsetInCU: 0x4B4AB, offset: 0x4B4AB, size: 0x8, addend: 0x0, symName: __ZN5Eigen8internal14evaluator_baseINS_9ReplicateINS_9TransposeINS_5ArrayIiLin1ELi1ELi0ELin1ELi1EEEEELin1ELin1EEEED2Ev, symObjAddr: 0x662C, symBinAddr: 0x10000A290, symSize: 0x14 }
  - { offsetInCU: 0x4B4D5, offset: 0x4B4D5, size: 0x8, addend: 0x0, symName: __ZN5Eigen8internal9evaluatorINS_9TransposeINS_5ArrayIiLin1ELi1ELi0ELin1ELi1EEEEEEC2ERKS5_, symObjAddr: 0x6640, symBinAddr: 0x10000A2A4, symSize: 0x34 }
  - { offsetInCU: 0x4B50D, offset: 0x4B50D, size: 0x8, addend: 0x0, symName: __ZN5Eigen8internal15unary_evaluatorINS_9TransposeINS_5ArrayIiLin1ELi1ELi0ELin1ELi1EEEEENS0_10IndexBasedEiEC2ERKS5_, symObjAddr: 0x6674, symBinAddr: 0x10000A2D8, symSize: 0x74 }
  - { offsetInCU: 0x4B546, offset: 0x4B546, size: 0x8, addend: 0x0, symName: __ZN5Eigen8internal14evaluator_baseINS_9TransposeINS_5ArrayIiLin1ELi1ELi0ELin1ELi1EEEEEEC2Ev, symObjAddr: 0x66E8, symBinAddr: 0x10000A34C, symSize: 0x14 }
  - { offsetInCU: 0x4B570, offset: 0x4B570, size: 0x8, addend: 0x0, symName: __ZNK5Eigen9TransposeINS_5ArrayIiLin1ELi1ELi0ELin1ELi1EEEE16nestedExpressionEv, symObjAddr: 0x66FC, symBinAddr: 0x10000A360, symSize: 0x18 }
  - { offsetInCU: 0x4B596, offset: 0x4B596, size: 0x8, addend: 0x0, symName: __ZN5Eigen8internal14evaluator_baseINS_9TransposeINS_5ArrayIiLin1ELi1ELi0ELin1ELi1EEEEEED2Ev, symObjAddr: 0x6714, symBinAddr: 0x10000A378, symSize: 0x14 }
  - { offsetInCU: 0x4B5C0, offset: 0x4B5C0, size: 0x8, addend: 0x0, symName: __ZN5Eigen8internal9evaluatorINS_9TransposeINS_5ArrayIiLin1ELi1ELi0ELin1ELi1EEEEEED2Ev, symObjAddr: 0x6728, symBinAddr: 0x10000A38C, symSize: 0x2C }
  - { offsetInCU: 0x4B5EC, offset: 0x4B5EC, size: 0x8, addend: 0x0, symName: __ZN5Eigen8internal15unary_evaluatorINS_9TransposeINS_5ArrayIiLin1ELi1ELi0ELin1ELi1EEEEENS0_10IndexBasedEiED2Ev, symObjAddr: 0x6754, symBinAddr: 0x10000A3B8, symSize: 0x34 }
  - { offsetInCU: 0x4B618, offset: 0x4B618, size: 0x8, addend: 0x0, symName: __ZN5Eigen8internal9evaluatorINS_5ArrayIiLin1ELin1ELi0ELin1ELin1EEEEC2ERKS3_, symObjAddr: 0x6788, symBinAddr: 0x10000A3EC, symSize: 0x34 }
  - { offsetInCU: 0x4B651, offset: 0x4B651, size: 0x8, addend: 0x0, symName: __ZN5Eigen8internal9evaluatorINS_15PlainObjectBaseINS_5ArrayIiLin1ELin1ELi0ELin1ELin1EEEEEEC2ERKS5_, symObjAddr: 0x67BC, symBinAddr: 0x10000A420, symSize: 0x80 }
  - { offsetInCU: 0x4B689, offset: 0x4B689, size: 0x8, addend: 0x0, symName: __ZN5Eigen8internal14evaluator_baseINS_5ArrayIiLin1ELin1ELi0ELin1ELin1EEEEC2Ev, symObjAddr: 0x683C, symBinAddr: 0x10000A4A0, symSize: 0x14 }
  - { offsetInCU: 0x4B6B3, offset: 0x4B6B3, size: 0x8, addend: 0x0, symName: __ZNK5Eigen15PlainObjectBaseINS_5ArrayIiLin1ELin1ELi0ELin1ELin1EEEE4dataEv, symObjAddr: 0x6850, symBinAddr: 0x10000A4B4, symSize: 0x24 }
  - { offsetInCU: 0x4B6D9, offset: 0x4B6D9, size: 0x8, addend: 0x0, symName: __ZNK5Eigen15DenseCoeffsBaseINS_5ArrayIiLin1ELin1ELi0ELin1ELin1EEELi3EE11outerStrideEv, symObjAddr: 0x6874, symBinAddr: 0x10000A4D8, symSize: 0x28 }
  - { offsetInCU: 0x4B6FF, offset: 0x4B6FF, size: 0x8, addend: 0x0, symName: __ZN5Eigen8internal30plainobjectbase_evaluator_dataIiLin1EEC1EPKil, symObjAddr: 0x689C, symBinAddr: 0x10000A500, symSize: 0x3C }
  - { offsetInCU: 0x4B745, offset: 0x4B745, size: 0x8, addend: 0x0, symName: __ZN5Eigen8internal14evaluator_baseINS_5ArrayIiLin1ELin1ELi0ELin1ELin1EEEED2Ev, symObjAddr: 0x68D8, symBinAddr: 0x10000A53C, symSize: 0x14 }
  - { offsetInCU: 0x4B76F, offset: 0x4B76F, size: 0x8, addend: 0x0, symName: __ZNK5Eigen12DenseStorageIiLin1ELin1ELin1ELi0EE4dataEv, symObjAddr: 0x68EC, symBinAddr: 0x10000A550, symSize: 0x18 }
  - { offsetInCU: 0x4B795, offset: 0x4B795, size: 0x8, addend: 0x0, symName: __ZNK5Eigen5ArrayIiLin1ELin1ELi0ELin1ELin1EE11outerStrideEv, symObjAddr: 0x6904, symBinAddr: 0x10000A568, symSize: 0x34 }
  - { offsetInCU: 0x4B7BB, offset: 0x4B7BB, size: 0x8, addend: 0x0, symName: __ZNK5Eigen9DenseBaseINS_5ArrayIiLin1ELin1ELi0ELin1ELin1EEEE9innerSizeEv, symObjAddr: 0x6938, symBinAddr: 0x10000A59C, symSize: 0x24 }
  - { offsetInCU: 0x4B7E1, offset: 0x4B7E1, size: 0x8, addend: 0x0, symName: __ZN5Eigen8internal30plainobjectbase_evaluator_dataIiLin1EEC2EPKil, symObjAddr: 0x695C, symBinAddr: 0x10000A5C0, symSize: 0x2C }
  - { offsetInCU: 0x4B827, offset: 0x4B827, size: 0x8, addend: 0x0, symName: __ZN5Eigen8internal31generic_dense_assignment_kernelINS0_9evaluatorINS_5ArrayIiLin1ELin1ELi0ELin1ELin1EEEEENS2_INS_9ReplicateINS_9TransposeINS3_IiLin1ELi1ELi0ELin1ELi1EEEEELin1ELin1EEEEENS0_9assign_opIiiEELi0EEC2ERS5_RKSB_RKSD_RS4_, symObjAddr: 0x6988, symBinAddr: 0x10000A5EC, symSize: 0x44 }
  - { offsetInCU: 0x4B88D, offset: 0x4B88D, size: 0x8, addend: 0x0, symName: __ZNK5Eigen8internal31generic_dense_assignment_kernelINS0_9evaluatorINS_5ArrayIiLin1ELin1ELi0ELin1ELin1EEEEENS2_INS_9ReplicateINS_9TransposeINS3_IiLin1ELi1ELi0ELin1ELi1EEEEELin1ELin1EEEEENS0_9assign_opIiiEELi0EE9outerSizeEv, symObjAddr: 0x69CC, symBinAddr: 0x10000A630, symSize: 0x38 }
  - { offsetInCU: 0x4B8B3, offset: 0x4B8B3, size: 0x8, addend: 0x0, symName: __ZNK5Eigen8internal31generic_dense_assignment_kernelINS0_9evaluatorINS_5ArrayIiLin1ELin1ELi0ELin1ELin1EEEEENS2_INS_9ReplicateINS_9TransposeINS3_IiLin1ELi1ELi0ELin1ELi1EEEEELin1ELin1EEEEENS0_9assign_opIiiEELi0EE9innerSizeEv, symObjAddr: 0x6A04, symBinAddr: 0x10000A668, symSize: 0x28 }
  - { offsetInCU: 0x4B8D9, offset: 0x4B8D9, size: 0x8, addend: 0x0, symName: __ZN5Eigen8internal31generic_dense_assignment_kernelINS0_9evaluatorINS_5ArrayIiLin1ELin1ELi0ELin1ELin1EEEEENS2_INS_9ReplicateINS_9TransposeINS3_IiLin1ELi1ELi0ELin1ELi1EEEEELin1ELin1EEEEENS0_9assign_opIiiEELi0EE23assignCoeffByOuterInnerEll, symObjAddr: 0x6A2C, symBinAddr: 0x10000A690, symSize: 0x60 }
  - { offsetInCU: 0x4B93B, offset: 0x4B93B, size: 0x8, addend: 0x0, symName: __ZNK5Eigen9DenseBaseINS_5ArrayIiLin1ELin1ELi0ELin1ELin1EEEE9outerSizeEv, symObjAddr: 0x6A8C, symBinAddr: 0x10000A6F0, symSize: 0x24 }
  - { offsetInCU: 0x4B961, offset: 0x4B961, size: 0x8, addend: 0x0, symName: __ZN5Eigen8internal31generic_dense_assignment_kernelINS0_9evaluatorINS_5ArrayIiLin1ELin1ELi0ELin1ELin1EEEEENS2_INS_9ReplicateINS_9TransposeINS3_IiLin1ELi1ELi0ELin1ELi1EEEEELin1ELin1EEEEENS0_9assign_opIiiEELi0EE20rowIndexByOuterInnerEll, symObjAddr: 0x6AB0, symBinAddr: 0x10000A714, symSize: 0x18 }
  - { offsetInCU: 0x4B994, offset: 0x4B994, size: 0x8, addend: 0x0, symName: __ZN5Eigen8internal31generic_dense_assignment_kernelINS0_9evaluatorINS_5ArrayIiLin1ELin1ELi0ELin1ELin1EEEEENS2_INS_9ReplicateINS_9TransposeINS3_IiLin1ELi1ELi0ELin1ELi1EEEEELin1ELin1EEEEENS0_9assign_opIiiEELi0EE20colIndexByOuterInnerEll, symObjAddr: 0x6AC8, symBinAddr: 0x10000A72C, symSize: 0x18 }
  - { offsetInCU: 0x4B9C7, offset: 0x4B9C7, size: 0x8, addend: 0x0, symName: __ZN5Eigen8internal31generic_dense_assignment_kernelINS0_9evaluatorINS_5ArrayIiLin1ELin1ELi0ELin1ELin1EEEEENS2_INS_9ReplicateINS_9TransposeINS3_IiLin1ELi1ELi0ELin1ELi1EEEEELin1ELin1EEEEENS0_9assign_opIiiEELi0EE11assignCoeffEll, symObjAddr: 0x6AE0, symBinAddr: 0x10000A744, symSize: 0x74 }
  - { offsetInCU: 0x4BA0B, offset: 0x4BA0B, size: 0x8, addend: 0x0, symName: __ZN5Eigen8internal9evaluatorINS_15PlainObjectBaseINS_5ArrayIiLin1ELin1ELi0ELin1ELin1EEEEEE8coeffRefEll, symObjAddr: 0x6B54, symBinAddr: 0x10000A7B8, symSize: 0x5C }
  - { offsetInCU: 0x4BA4D, offset: 0x4BA4D, size: 0x8, addend: 0x0, symName: __ZNK5Eigen8internal15unary_evaluatorINS_9ReplicateINS_9TransposeINS_5ArrayIiLin1ELi1ELi0ELin1ELi1EEEEELin1ELin1EEENS0_10IndexBasedEiE5coeffEll, symObjAddr: 0x6BB0, symBinAddr: 0x10000A814, symSize: 0x8C }
  - { offsetInCU: 0x4BAAF, offset: 0x4BAAF, size: 0x8, addend: 0x0, symName: __ZNK5Eigen8internal30plainobjectbase_evaluator_dataIiLin1EE11outerStrideEv, symObjAddr: 0x6C3C, symBinAddr: 0x10000A8A0, symSize: 0x18 }
  - { offsetInCU: 0x4BAD5, offset: 0x4BAD5, size: 0x8, addend: 0x0, symName: __ZNK5Eigen8internal15unary_evaluatorINS_9TransposeINS_5ArrayIiLin1ELi1ELi0ELin1ELi1EEEEENS0_10IndexBasedEiE5coeffEll, symObjAddr: 0x6C54, symBinAddr: 0x10000A8B8, symSize: 0x34 }
  - { offsetInCU: 0x4BB19, offset: 0x4BB19, size: 0x8, addend: 0x0, symName: __ZNK5Eigen8internal9evaluatorINS_15PlainObjectBaseINS_5ArrayIiLin1ELi1ELi0ELin1ELi1EEEEEE5coeffEll, symObjAddr: 0x6C88, symBinAddr: 0x10000A8EC, symSize: 0x5C }
  - { offsetInCU: 0x4BB5B, offset: 0x4BB5B, size: 0x8, addend: 0x0, symName: __ZNK5Eigen8internal30plainobjectbase_evaluator_dataIiLi0EE11outerStrideEv, symObjAddr: 0x6CE4, symBinAddr: 0x10000A948, symSize: 0x14 }
  - { offsetInCU: 0x4BB81, offset: 0x4BB81, size: 0x8, addend: 0x0, symName: __ZN5Eigen8internal9evaluatorINS_5ArrayIiLin1ELin1ELi0ELin1ELin1EEEED2Ev, symObjAddr: 0x6CF8, symBinAddr: 0x10000A95C, symSize: 0x2C }
  - { offsetInCU: 0x4BBAE, offset: 0x4BBAE, size: 0x8, addend: 0x0, symName: __ZN5Eigen8internal9evaluatorINS_15PlainObjectBaseINS_5ArrayIiLin1ELin1ELi0ELin1ELin1EEEEEED2Ev, symObjAddr: 0x6D24, symBinAddr: 0x10000A988, symSize: 0x2C }
  - { offsetInCU: 0x4BBDA, offset: 0x4BBDA, size: 0x8, addend: 0x0, symName: __ZN5Eigen8internal9evaluatorINS_9ReplicateINS_9TransposeINS_5ArrayIiLin1ELi1ELi0ELin1ELi1EEEEELin1ELin1EEEED2Ev, symObjAddr: 0x6D50, symBinAddr: 0x10000A9B4, symSize: 0x2C }
  - { offsetInCU: 0x4BC06, offset: 0x4BC06, size: 0x8, addend: 0x0, symName: __ZN5Eigen8internal15unary_evaluatorINS_9ReplicateINS_9TransposeINS_5ArrayIiLin1ELi1ELi0ELin1ELi1EEEEELin1ELin1EEENS0_10IndexBasedEiED2Ev, symObjAddr: 0x6D7C, symBinAddr: 0x10000A9E0, symSize: 0x38 }
  - { offsetInCU: 0x4BC32, offset: 0x4BC32, size: 0x8, addend: 0x0, symName: __ZN5Eigen5BlockINS_5ArrayIiLin1ELin1ELi0ELin1ELin1EEELin1ELin1ELb0EEC1ERS2_llll, symObjAddr: 0x6DCC, symBinAddr: 0x10000AA30, symSize: 0x54 }
  - { offsetInCU: 0x4BCA2, offset: 0x4BCA2, size: 0x8, addend: 0x0, symName: __ZN5Eigen5BlockINS_5ArrayIiLin1ELin1ELi0ELin1ELin1EEELin1ELin1ELb0EEC2ERS2_llll, symObjAddr: 0x6E20, symBinAddr: 0x10000AA84, symSize: 0x154 }
  - { offsetInCU: 0x4BD12, offset: 0x4BD12, size: 0x8, addend: 0x0, symName: __ZN5Eigen9BlockImplINS_5ArrayIiLin1ELin1ELi0ELin1ELin1EEELin1ELin1ELb0ENS_5DenseEEC2ERS2_llll, symObjAddr: 0x6F74, symBinAddr: 0x10000ABD8, symSize: 0x54 }
  - { offsetInCU: 0x4BD82, offset: 0x4BD82, size: 0x8, addend: 0x0, symName: __ZN5Eigen8internal15BlockImpl_denseINS_5ArrayIiLin1ELin1ELi0ELin1ELin1EEELin1ELin1ELb0ELb1EEC2ERS3_llll, symObjAddr: 0x6FC8, symBinAddr: 0x10000AC2C, symSize: 0xC4 }
  - { offsetInCU: 0x4BDF7, offset: 0x4BDF7, size: 0x8, addend: 0x0, symName: __ZNK5Eigen5ArrayIiLin1ELin1ELi0ELin1ELin1EE11innerStrideEv, symObjAddr: 0x708C, symBinAddr: 0x10000ACF0, symSize: 0x14 }
  - { offsetInCU: 0x4BE1D, offset: 0x4BE1D, size: 0x8, addend: 0x0, symName: __ZN5Eigen7MapBaseINS_5BlockINS_5ArrayIiLin1ELin1ELi0ELin1ELin1EEELin1ELin1ELb0EEELi1EEC2EPill, symObjAddr: 0x70A0, symBinAddr: 0x10000AD04, symSize: 0x44 }
  - { offsetInCU: 0x4BE74, offset: 0x4BE74, size: 0x8, addend: 0x0, symName: __ZN5Eigen8internal15BlockImpl_denseINS_5ArrayIiLin1ELin1ELi0ELin1ELin1EEELin1ELin1ELb0ELb1EE4initEv, symObjAddr: 0x70E4, symBinAddr: 0x10000AD48, symSize: 0x34 }
  - { offsetInCU: 0x4BE9A, offset: 0x4BE9A, size: 0x8, addend: 0x0, symName: __ZN5Eigen7MapBaseINS_5BlockINS_5ArrayIiLin1ELin1ELi0ELin1ELin1EEELin1ELin1ELb0EEELi0EEC2EPill, symObjAddr: 0x7118, symBinAddr: 0x10000AD7C, symSize: 0x110 }
  - { offsetInCU: 0x4BEEE, offset: 0x4BEEE, size: 0x8, addend: 0x0, symName: __ZN5Eigen9ArrayBaseINS_5BlockINS_5ArrayIiLin1ELin1ELi0ELin1ELin1EEELin1ELin1ELb0EEEEC2Ev, symObjAddr: 0x7228, symBinAddr: 0x10000AE8C, symSize: 0x2C }
  - { offsetInCU: 0x4BF18, offset: 0x4BF18, size: 0x8, addend: 0x0, symName: __ZNK5Eigen7MapBaseINS_5BlockINS_5ArrayIiLin1ELin1ELi0ELin1ELin1EEELin1ELin1ELb0EEELi0EE11checkSanityIS4_EEvNS_8internal9enable_ifIXeqsr8internal6traitsIT_EE9AlignmentLi0EEPvE4typeE, symObjAddr: 0x7254, symBinAddr: 0x10000AEB8, symSize: 0x14 }
  - { offsetInCU: 0x4BF52, offset: 0x4BF52, size: 0x8, addend: 0x0, symName: __ZN5Eigen9DenseBaseINS_5BlockINS_5ArrayIiLin1ELin1ELi0ELin1ELin1EEELin1ELin1ELb0EEEEC2Ev, symObjAddr: 0x7268, symBinAddr: 0x10000AECC, symSize: 0x14 }
  - { offsetInCU: 0x4BF7C, offset: 0x4BF7C, size: 0x8, addend: 0x0, symName: __ZN5Eigen9BlockImplINS_5ArrayIiLin1ELin1ELi0ELin1ELin1EEELin1ELin1ELb0ENS_5DenseEEaSIS2_EERS4_RKNS_9DenseBaseIT_EE, symObjAddr: 0x727C, symBinAddr: 0x10000AEE0, symSize: 0x40 }
  - { offsetInCU: 0x4BFB9, offset: 0x4BFB9, size: 0x8, addend: 0x0, symName: __ZN5Eigen8internal15BlockImpl_denseINS_5ArrayIiLin1ELin1ELi0ELin1ELin1EEELin1ELin1ELb0ELb1EEaSIS3_EERS4_RKNS_9DenseBaseIT_EE, symObjAddr: 0x72BC, symBinAddr: 0x10000AF20, symSize: 0x40 }
  - { offsetInCU: 0x4BFF7, offset: 0x4BFF7, size: 0x8, addend: 0x0, symName: __ZN5Eigen9DenseBaseINS_5BlockINS_5ArrayIiLin1ELin1ELi0ELin1ELin1EEELin1ELin1ELb0EEEEaSIS3_EERS4_RKNS0_IT_EE, symObjAddr: 0x72FC, symBinAddr: 0x10000AF60, symSize: 0x4C }
  - { offsetInCU: 0x4C037, offset: 0x4C037, size: 0x8, addend: 0x0, symName: __ZN5Eigen9EigenBaseINS_5BlockINS_5ArrayIiLin1ELin1ELi0ELin1ELin1EEELin1ELin1ELb0EEEE7derivedEv, symObjAddr: 0x7398, symBinAddr: 0x10000AFFC, symSize: 0x14 }
  - { offsetInCU: 0x4C05D, offset: 0x4C05D, size: 0x8, addend: 0x0, symName: __ZN5Eigen8internal10AssignmentINS_5BlockINS_5ArrayIiLin1ELin1ELi0ELin1ELin1EEELin1ELin1ELb0EEES4_NS0_9assign_opIiiEENS0_11Dense2DenseEvE3runERS5_RKS4_RKS7_, symObjAddr: 0x7420, symBinAddr: 0x10000B084, symSize: 0x40 }
  - { offsetInCU: 0x4C09F, offset: 0x4C09F, size: 0x8, addend: 0x0, symName: __ZNK5Eigen7MapBaseINS_5BlockINS_5ArrayIiLin1ELin1ELi0ELin1ELin1EEELin1ELin1ELb0EEELi0EE4rowsEv, symObjAddr: 0x75A0, symBinAddr: 0x10000B204, symSize: 0x28 }
  - { offsetInCU: 0x4C0C5, offset: 0x4C0C5, size: 0x8, addend: 0x0, symName: __ZNK5Eigen7MapBaseINS_5BlockINS_5ArrayIiLin1ELin1ELi0ELin1ELin1EEELin1ELin1ELb0EEELi0EE4colsEv, symObjAddr: 0x75C8, symBinAddr: 0x10000B22C, symSize: 0x28 }
  - { offsetInCU: 0x4C0EB, offset: 0x4C0EB, size: 0x8, addend: 0x0, symName: __ZN5Eigen8internal27checkTransposeAliasing_implINS_5BlockINS_5ArrayIiLin1ELin1ELi0ELin1ELin1EEELin1ELin1ELb0EEES4_Lb0EE3runERKS5_RKS4_, symObjAddr: 0x75F0, symBinAddr: 0x10000B254, symSize: 0x14 }
  - { offsetInCU: 0x4C116, offset: 0x4C116, size: 0x8, addend: 0x0, symName: __ZN5Eigen8internal9evaluatorINS_5BlockINS_5ArrayIiLin1ELin1ELi0ELin1ELin1EEELin1ELin1ELb0EEEEC1ERKS5_, symObjAddr: 0x76FC, symBinAddr: 0x10000B360, symSize: 0x34 }
  - { offsetInCU: 0x4C14F, offset: 0x4C14F, size: 0x8, addend: 0x0, symName: __ZNK5Eigen9EigenBaseINS_5BlockINS_5ArrayIiLin1ELin1ELi0ELin1ELin1EEELin1ELin1ELb0EEEE18const_cast_derivedEv, symObjAddr: 0x7730, symBinAddr: 0x10000B394, symSize: 0x14 }
  - { offsetInCU: 0x4C175, offset: 0x4C175, size: 0x8, addend: 0x0, symName: __ZN5Eigen8internal31generic_dense_assignment_kernelINS0_9evaluatorINS_5BlockINS_5ArrayIiLin1ELin1ELi0ELin1ELin1EEELin1ELin1ELb0EEEEENS2_IS5_EENS0_9assign_opIiiEELi0EEC1ERS7_RKS8_RKSA_RS6_, symObjAddr: 0x7744, symBinAddr: 0x10000B3A8, symSize: 0x4C }
  - { offsetInCU: 0x4C1E5, offset: 0x4C1E5, size: 0x8, addend: 0x0, symName: __ZN5Eigen8internal9evaluatorINS_5BlockINS_5ArrayIiLin1ELin1ELi0ELin1ELin1EEELin1ELin1ELb0EEEED1Ev, symObjAddr: 0x79A4, symBinAddr: 0x10000B608, symSize: 0x2C }
  - { offsetInCU: 0x4C212, offset: 0x4C212, size: 0x8, addend: 0x0, symName: __ZN5Eigen9DenseBaseINS_5BlockINS_5ArrayIiLin1ELin1ELi0ELin1ELin1EEELin1ELin1ELb0EEEE6resizeEll, symObjAddr: 0x79D0, symBinAddr: 0x10000B634, symSize: 0xBC }
  - { offsetInCU: 0x4C256, offset: 0x4C256, size: 0x8, addend: 0x0, symName: __ZNK5Eigen9EigenBaseINS_5BlockINS_5ArrayIiLin1ELin1ELi0ELin1ELin1EEELin1ELin1ELb0EEEE4rowsEv, symObjAddr: 0x7A8C, symBinAddr: 0x10000B6F0, symSize: 0x38 }
  - { offsetInCU: 0x4C27C, offset: 0x4C27C, size: 0x8, addend: 0x0, symName: __ZNK5Eigen9EigenBaseINS_5BlockINS_5ArrayIiLin1ELin1ELi0ELin1ELin1EEELin1ELin1ELb0EEEE4colsEv, symObjAddr: 0x7AC4, symBinAddr: 0x10000B728, symSize: 0x28 }
  - { offsetInCU: 0x4C2A2, offset: 0x4C2A2, size: 0x8, addend: 0x0, symName: __ZNK5Eigen9EigenBaseINS_5BlockINS_5ArrayIiLin1ELin1ELi0ELin1ELin1EEELin1ELin1ELb0EEEE7derivedEv, symObjAddr: 0x7AEC, symBinAddr: 0x10000B750, symSize: 0x14 }
  - { offsetInCU: 0x4C2C8, offset: 0x4C2C8, size: 0x8, addend: 0x0, symName: __ZN5Eigen8internal9evaluatorINS_5BlockINS_5ArrayIiLin1ELin1ELi0ELin1ELin1EEELin1ELin1ELb0EEEEC2ERKS5_, symObjAddr: 0x7B00, symBinAddr: 0x10000B764, symSize: 0x34 }
  - { offsetInCU: 0x4C301, offset: 0x4C301, size: 0x8, addend: 0x0, symName: __ZN5Eigen8internal15block_evaluatorINS_5ArrayIiLin1ELin1ELi0ELin1ELin1EEELin1ELin1ELb0ELb1EEC2ERKNS_5BlockIS3_Lin1ELin1ELb0EEE, symObjAddr: 0x7B34, symBinAddr: 0x10000B798, symSize: 0xDC }
  - { offsetInCU: 0x4C33A, offset: 0x4C33A, size: 0x8, addend: 0x0, symName: __ZN5Eigen8internal17mapbase_evaluatorINS_5BlockINS_5ArrayIiLin1ELin1ELi0ELin1ELin1EEELin1ELin1ELb0EEES4_EC2ERKS5_, symObjAddr: 0x7C10, symBinAddr: 0x10000B874, symSize: 0xB0 }
  - { offsetInCU: 0x4C373, offset: 0x4C373, size: 0x8, addend: 0x0, symName: __ZNK5Eigen7MapBaseINS_5BlockINS_5ArrayIiLin1ELin1ELi0ELin1ELin1EEELin1ELin1ELb0EEELi1EE4dataEv, symObjAddr: 0x7CC0, symBinAddr: 0x10000B924, symSize: 0x18 }
  - { offsetInCU: 0x4C399, offset: 0x4C399, size: 0x8, addend: 0x0, symName: __ZN5Eigen8internal17mapbase_evaluatorINS_5BlockINS_5ArrayIiLin1ELin1ELi0ELin1ELin1EEELin1ELin1ELb0EEES4_ED2Ev, symObjAddr: 0x7CD8, symBinAddr: 0x10000B93C, symSize: 0x2C }
  - { offsetInCU: 0x4C3C6, offset: 0x4C3C6, size: 0x8, addend: 0x0, symName: __ZN5Eigen8internal14evaluator_baseINS_5BlockINS_5ArrayIiLin1ELin1ELi0ELin1ELin1EEELin1ELin1ELb0EEEEC2Ev, symObjAddr: 0x7D04, symBinAddr: 0x10000B968, symSize: 0x14 }
  - { offsetInCU: 0x4C3F0, offset: 0x4C3F0, size: 0x8, addend: 0x0, symName: __ZNK5Eigen8internal15BlockImpl_denseINS_5ArrayIiLin1ELin1ELi0ELin1ELin1EEELin1ELin1ELb0ELb1EE11innerStrideEv, symObjAddr: 0x7D18, symBinAddr: 0x10000B97C, symSize: 0x28 }
  - { offsetInCU: 0x4C416, offset: 0x4C416, size: 0x8, addend: 0x0, symName: __ZNK5Eigen8internal15BlockImpl_denseINS_5ArrayIiLin1ELin1ELi0ELin1ELin1EEELin1ELin1ELb0ELb1EE11outerStrideEv, symObjAddr: 0x7D40, symBinAddr: 0x10000B9A4, symSize: 0x28 }
  - { offsetInCU: 0x4C43C, offset: 0x4C43C, size: 0x8, addend: 0x0, symName: __ZN5Eigen8internal14evaluator_baseINS_5BlockINS_5ArrayIiLin1ELin1ELi0ELin1ELin1EEELin1ELin1ELb0EEEED2Ev, symObjAddr: 0x7D68, symBinAddr: 0x10000B9CC, symSize: 0x14 }
  - { offsetInCU: 0x4C466, offset: 0x4C466, size: 0x8, addend: 0x0, symName: __ZN5Eigen8internal31generic_dense_assignment_kernelINS0_9evaluatorINS_5BlockINS_5ArrayIiLin1ELin1ELi0ELin1ELin1EEELin1ELin1ELb0EEEEENS2_IS5_EENS0_9assign_opIiiEELi0EEC2ERS7_RKS8_RKSA_RS6_, symObjAddr: 0x7D7C, symBinAddr: 0x10000B9E0, symSize: 0x44 }
  - { offsetInCU: 0x4C4CC, offset: 0x4C4CC, size: 0x8, addend: 0x0, symName: __ZNK5Eigen8internal31generic_dense_assignment_kernelINS0_9evaluatorINS_5BlockINS_5ArrayIiLin1ELin1ELi0ELin1ELin1EEELin1ELin1ELb0EEEEENS2_IS5_EENS0_9assign_opIiiEELi0EE10dstDataPtrEv, symObjAddr: 0x7DC0, symBinAddr: 0x10000BA24, symSize: 0x28 }
  - { offsetInCU: 0x4C4F2, offset: 0x4C4F2, size: 0x8, addend: 0x0, symName: __ZN5Eigen8internal21dense_assignment_loopINS0_31generic_dense_assignment_kernelINS0_9evaluatorINS_5BlockINS_5ArrayIiLin1ELin1ELi0ELin1ELin1EEELin1ELin1ELb0EEEEENS3_IS6_EENS0_9assign_opIiiEELi0EEELi0ELi0EE3runERSC_, symObjAddr: 0x7DE8, symBinAddr: 0x10000BA4C, symSize: 0xAC }
  - { offsetInCU: 0x4C550, offset: 0x4C550, size: 0x8, addend: 0x0, symName: __ZNK5Eigen8internal31generic_dense_assignment_kernelINS0_9evaluatorINS_5BlockINS_5ArrayIiLin1ELin1ELi0ELin1ELin1EEELin1ELin1ELb0EEEEENS2_IS5_EENS0_9assign_opIiiEELi0EE9innerSizeEv, symObjAddr: 0x7E94, symBinAddr: 0x10000BAF8, symSize: 0x38 }
  - { offsetInCU: 0x4C576, offset: 0x4C576, size: 0x8, addend: 0x0, symName: __ZNK5Eigen8internal31generic_dense_assignment_kernelINS0_9evaluatorINS_5BlockINS_5ArrayIiLin1ELin1ELi0ELin1ELin1EEELin1ELin1ELb0EEEEENS2_IS5_EENS0_9assign_opIiiEELi0EE9outerSizeEv, symObjAddr: 0x7ECC, symBinAddr: 0x10000BB30, symSize: 0x38 }
  - { offsetInCU: 0x4C59C, offset: 0x4C59C, size: 0x8, addend: 0x0, symName: __ZNK5Eigen8internal31generic_dense_assignment_kernelINS0_9evaluatorINS_5BlockINS_5ArrayIiLin1ELin1ELi0ELin1ELin1EEELin1ELin1ELb0EEEEENS2_IS5_EENS0_9assign_opIiiEELi0EE11outerStrideEv, symObjAddr: 0x7F04, symBinAddr: 0x10000BB68, symSize: 0x28 }
  - { offsetInCU: 0x4C5C2, offset: 0x4C5C2, size: 0x8, addend: 0x0, symName: __ZN5Eigen8internal31generic_dense_assignment_kernelINS0_9evaluatorINS_5BlockINS_5ArrayIiLin1ELin1ELi0ELin1ELin1EEELin1ELin1ELb0EEEEENS2_IS5_EENS0_9assign_opIiiEELi0EE23assignCoeffByOuterInnerEll, symObjAddr: 0x7FD0, symBinAddr: 0x10000BC34, symSize: 0x60 }
  - { offsetInCU: 0x4C624, offset: 0x4C624, size: 0x8, addend: 0x0, symName: __ZN5Eigen8internal31generic_dense_assignment_kernelINS0_9evaluatorINS_5BlockINS_5ArrayIiLin1ELin1ELi0ELin1ELin1EEELin1ELin1ELb0EEEEENS2_IS5_EENS0_9assign_opIiiEELi0EE24assignPacketByOuterInnerILi16ELi0E17__simd128_int32_tEEvll, symObjAddr: 0x8030, symBinAddr: 0x10000BC94, symSize: 0x60 }
  - { offsetInCU: 0x4C6A3, offset: 0x4C6A3, size: 0x8, addend: 0x0, symName: __ZN5Eigen7MapBaseINS_5BlockINS_5ArrayIiLin1ELin1ELi0ELin1ELin1EEELin1ELin1ELb0EEELi1EE4dataEv, symObjAddr: 0x8090, symBinAddr: 0x10000BCF4, symSize: 0x18 }
  - { offsetInCU: 0x4C6C9, offset: 0x4C6C9, size: 0x8, addend: 0x0, symName: __ZNK5Eigen9DenseBaseINS_5BlockINS_5ArrayIiLin1ELin1ELi0ELin1ELin1EEELin1ELin1ELb0EEEE9innerSizeEv, symObjAddr: 0x80A8, symBinAddr: 0x10000BD0C, symSize: 0x24 }
  - { offsetInCU: 0x4C6EF, offset: 0x4C6EF, size: 0x8, addend: 0x0, symName: __ZNK5Eigen9DenseBaseINS_5BlockINS_5ArrayIiLin1ELin1ELi0ELin1ELin1EEELin1ELin1ELb0EEEE9outerSizeEv, symObjAddr: 0x80CC, symBinAddr: 0x10000BD30, symSize: 0x24 }
  - { offsetInCU: 0x4C715, offset: 0x4C715, size: 0x8, addend: 0x0, symName: __ZN5Eigen8internal31generic_dense_assignment_kernelINS0_9evaluatorINS_5BlockINS_5ArrayIiLin1ELin1ELi0ELin1ELin1EEELin1ELin1ELb0EEEEENS2_IS5_EENS0_9assign_opIiiEELi0EE20rowIndexByOuterInnerEll, symObjAddr: 0x80F0, symBinAddr: 0x10000BD54, symSize: 0x18 }
  - { offsetInCU: 0x4C748, offset: 0x4C748, size: 0x8, addend: 0x0, symName: __ZN5Eigen8internal31generic_dense_assignment_kernelINS0_9evaluatorINS_5BlockINS_5ArrayIiLin1ELin1ELi0ELin1ELin1EEELin1ELin1ELb0EEEEENS2_IS5_EENS0_9assign_opIiiEELi0EE20colIndexByOuterInnerEll, symObjAddr: 0x8108, symBinAddr: 0x10000BD6C, symSize: 0x18 }
  - { offsetInCU: 0x4C77B, offset: 0x4C77B, size: 0x8, addend: 0x0, symName: __ZN5Eigen8internal31generic_dense_assignment_kernelINS0_9evaluatorINS_5BlockINS_5ArrayIiLin1ELin1ELi0ELin1ELin1EEELin1ELin1ELb0EEEEENS2_IS5_EENS0_9assign_opIiiEELi0EE11assignCoeffEll, symObjAddr: 0x8120, symBinAddr: 0x10000BD84, symSize: 0x6C }
  - { offsetInCU: 0x4C7BF, offset: 0x4C7BF, size: 0x8, addend: 0x0, symName: __ZN5Eigen8internal17mapbase_evaluatorINS_5BlockINS_5ArrayIiLin1ELin1ELi0ELin1ELin1EEELin1ELin1ELb0EEES4_E8coeffRefEll, symObjAddr: 0x818C, symBinAddr: 0x10000BDF0, symSize: 0x78 }
  - { offsetInCU: 0x4C803, offset: 0x4C803, size: 0x8, addend: 0x0, symName: __ZNK5Eigen8internal9evaluatorINS_15PlainObjectBaseINS_5ArrayIiLin1ELin1ELi0ELin1ELin1EEEEEE5coeffEll, symObjAddr: 0x8204, symBinAddr: 0x10000BE68, symSize: 0x5C }
  - { offsetInCU: 0x4C845, offset: 0x4C845, size: 0x8, addend: 0x0, symName: __ZNK5Eigen8internal17mapbase_evaluatorINS_5BlockINS_5ArrayIiLin1ELin1ELi0ELin1ELin1EEELin1ELin1ELb0EEES4_E9colStrideEv, symObjAddr: 0x8260, symBinAddr: 0x10000BEC4, symSize: 0x28 }
  - { offsetInCU: 0x4C86B, offset: 0x4C86B, size: 0x8, addend: 0x0, symName: __ZNK5Eigen8internal17mapbase_evaluatorINS_5BlockINS_5ArrayIiLin1ELin1ELi0ELin1ELin1EEELin1ELin1ELb0EEES4_E9rowStrideEv, symObjAddr: 0x8288, symBinAddr: 0x10000BEEC, symSize: 0x20 }
  - { offsetInCU: 0x4C891, offset: 0x4C891, size: 0x8, addend: 0x0, symName: __ZN5Eigen8internal31generic_dense_assignment_kernelINS0_9evaluatorINS_5BlockINS_5ArrayIiLin1ELin1ELi0ELin1ELin1EEELin1ELin1ELb0EEEEENS2_IS5_EENS0_9assign_opIiiEELi0EE12assignPacketILi16ELi0E17__simd128_int32_tEEvll, symObjAddr: 0x82A8, symBinAddr: 0x10000BF0C, symSize: 0x70 }
  - { offsetInCU: 0x4C8F2, offset: 0x4C8F2, size: 0x8, addend: 0x0, symName: __ZNK5Eigen8internal9assign_opIiiE12assignPacketILi16E17__simd128_int32_tEEvPiRKT0_, symObjAddr: 0x8318, symBinAddr: 0x10000BF7C, symSize: 0x40 }
  - { offsetInCU: 0x4C96D, offset: 0x4C96D, size: 0x8, addend: 0x0, symName: __ZNK5Eigen8internal9evaluatorINS_15PlainObjectBaseINS_5ArrayIiLin1ELin1ELi0ELin1ELin1EEEEEE6packetILi0E17__simd128_int32_tEET0_ll, symObjAddr: 0x8358, symBinAddr: 0x10000BFBC, symSize: 0x60 }
  - { offsetInCU: 0x4C9EA, offset: 0x4C9EA, size: 0x8, addend: 0x0, symName: __ZNKSt3__16__lessIvvEclB8ue170006IllEEbRKT_RKT0_, symObjAddr: 0x848C, symBinAddr: 0x10000C0F0, symSize: 0x34 }
  - { offsetInCU: 0x4CA3E, offset: 0x4CA3E, size: 0x8, addend: 0x0, symName: __ZN5Eigen8internal9evaluatorINS_5BlockINS_5ArrayIiLin1ELin1ELi0ELin1ELin1EEELin1ELin1ELb0EEEED2Ev, symObjAddr: 0x84C0, symBinAddr: 0x10000C124, symSize: 0x2C }
  - { offsetInCU: 0x4CA6B, offset: 0x4CA6B, size: 0x8, addend: 0x0, symName: __ZN5Eigen8internal15block_evaluatorINS_5ArrayIiLin1ELin1ELi0ELin1ELin1EEELin1ELin1ELb0ELb1EED2Ev, symObjAddr: 0x84EC, symBinAddr: 0x10000C150, symSize: 0x2C }
  - { offsetInCU: 0x4CA98, offset: 0x4CA98, size: 0x8, addend: 0x0, symName: __ZN5Eigen5ArrayIiLin1ELi1ELi0ELin1ELi1EEC2ERKS1_, symObjAddr: 0x8518, symBinAddr: 0x10000C17C, symSize: 0x34 }
  - { offsetInCU: 0x4CAD1, offset: 0x4CAD1, size: 0x8, addend: 0x0, symName: __ZN5Eigen15PlainObjectBaseINS_5ArrayIiLin1ELi1ELi0ELin1ELi1EEEEC2ERKS3_, symObjAddr: 0x854C, symBinAddr: 0x10000C1B0, symSize: 0x3C }
  - { offsetInCU: 0x4CB0A, offset: 0x4CB0A, size: 0x8, addend: 0x0, symName: __ZN5Eigen12DenseStorageIiLin1ELin1ELi1ELi0EEC1ERKS1_, symObjAddr: 0x8588, symBinAddr: 0x10000C1EC, symSize: 0x34 }
  - { offsetInCU: 0x4CB43, offset: 0x4CB43, size: 0x8, addend: 0x0, symName: __ZN5Eigen12DenseStorageIiLin1ELin1ELi1ELi0EEC2ERKS1_, symObjAddr: 0x85BC, symBinAddr: 0x10000C220, symSize: 0x78 }
  - { offsetInCU: 0x4CB7C, offset: 0x4CB7C, size: 0x8, addend: 0x0, symName: __ZN5Eigen8internal17smart_copy_helperIiLb1EE3runEPKiS4_Pi, symObjAddr: 0x8668, symBinAddr: 0x10000C2CC, symSize: 0x60 }
  - { offsetInCU: 0x4CBD5, offset: 0x4CBD5, size: 0x8, addend: 0x0, symName: __ZN5Eigen8internal14scalar_cast_opIifEC1Ev, symObjAddr: 0x86C8, symBinAddr: 0x10000C32C, symSize: 0x2C }
  - { offsetInCU: 0x4CBFF, offset: 0x4CBFF, size: 0x8, addend: 0x0, symName: __ZN5Eigen12CwiseUnaryOpINS_8internal14scalar_cast_opIifEEKNS_5ArrayIiLin1ELi1ELi0ELin1ELi1EEEEC1ERS6_RKS3_, symObjAddr: 0x86F4, symBinAddr: 0x10000C358, symSize: 0x3C }
  - { offsetInCU: 0x4CC45, offset: 0x4CC45, size: 0x8, addend: 0x0, symName: __ZN5Eigen8internal14scalar_cast_opIifEC2Ev, symObjAddr: 0x8730, symBinAddr: 0x10000C394, symSize: 0x14 }
  - { offsetInCU: 0x4CC6F, offset: 0x4CC6F, size: 0x8, addend: 0x0, symName: __ZN5Eigen12CwiseUnaryOpINS_8internal14scalar_cast_opIifEEKNS_5ArrayIiLin1ELi1ELi0ELin1ELi1EEEEC2ERS6_RKS3_, symObjAddr: 0x8744, symBinAddr: 0x10000C3A8, symSize: 0x4C }
  - { offsetInCU: 0x4CCBA, offset: 0x4CCBA, size: 0x8, addend: 0x0, symName: __ZN5Eigen16CwiseUnaryOpImplINS_8internal14scalar_cast_opIifEEKNS_5ArrayIiLin1ELi1ELi0ELin1ELi1EEENS_5DenseEEC2Ev, symObjAddr: 0x8790, symBinAddr: 0x10000C3F4, symSize: 0x2C }
  - { offsetInCU: 0x4CCE6, offset: 0x4CCE6, size: 0x8, addend: 0x0, symName: __ZN5Eigen8internal14scalar_cast_opIifEC1ERKS2_, symObjAddr: 0x87BC, symBinAddr: 0x10000C420, symSize: 0x34 }
  - { offsetInCU: 0x4CD1B, offset: 0x4CD1B, size: 0x8, addend: 0x0, symName: __ZN5Eigen9ArrayBaseINS_12CwiseUnaryOpINS_8internal14scalar_cast_opIifEEKNS_5ArrayIiLin1ELi1ELi0ELin1ELi1EEEEEEC2Ev, symObjAddr: 0x87F0, symBinAddr: 0x10000C454, symSize: 0x2C }
  - { offsetInCU: 0x4CD45, offset: 0x4CD45, size: 0x8, addend: 0x0, symName: __ZN5Eigen9DenseBaseINS_12CwiseUnaryOpINS_8internal14scalar_cast_opIifEEKNS_5ArrayIiLin1ELi1ELi0ELin1ELi1EEEEEEC2Ev, symObjAddr: 0x881C, symBinAddr: 0x10000C480, symSize: 0x14 }
  - { offsetInCU: 0x4CD6F, offset: 0x4CD6F, size: 0x8, addend: 0x0, symName: __ZN5Eigen8internal14scalar_cast_opIifEC2ERKS2_, symObjAddr: 0x8830, symBinAddr: 0x10000C494, symSize: 0x18 }
  - { offsetInCU: 0x4CDA4, offset: 0x4CDA4, size: 0x8, addend: 0x0, symName: __ZNK5Eigen9EigenBaseINS_12CwiseUnaryOpINS_8internal14scalar_cast_opIifEEKNS_5ArrayIiLin1ELi1ELi0ELin1ELi1EEEEEE7derivedEv, symObjAddr: 0x8848, symBinAddr: 0x10000C4AC, symSize: 0x14 }
  - { offsetInCU: 0x4CDCA, offset: 0x4CDCA, size: 0x8, addend: 0x0, symName: __ZNK5Eigen12CwiseUnaryOpINS_8internal14scalar_cast_opIifEEKNS_5ArrayIiLin1ELi1ELi0ELin1ELi1EEEE4rowsEv, symObjAddr: 0x885C, symBinAddr: 0x10000C4C0, symSize: 0x28 }
  - { offsetInCU: 0x4CDF0, offset: 0x4CDF0, size: 0x8, addend: 0x0, symName: __ZNK5Eigen12CwiseUnaryOpINS_8internal14scalar_cast_opIifEEKNS_5ArrayIiLin1ELi1ELi0ELin1ELi1EEEE4colsEv, symObjAddr: 0x8884, symBinAddr: 0x10000C4E8, symSize: 0x28 }
  - { offsetInCU: 0x4CE16, offset: 0x4CE16, size: 0x8, addend: 0x0, symName: __ZN5Eigen8internal18scalar_constant_opIfEC1ERKf, symObjAddr: 0x88AC, symBinAddr: 0x10000C510, symSize: 0x34 }
  - { offsetInCU: 0x4CE4E, offset: 0x4CE4E, size: 0x8, addend: 0x0, symName: __ZN5Eigen14CwiseNullaryOpINS_8internal18scalar_constant_opIfEEKNS_5ArrayIfLin1ELi1ELi0ELin1ELi1EEEEC1EllRKS3_, symObjAddr: 0x88E0, symBinAddr: 0x10000C544, symSize: 0x44 }
  - { offsetInCU: 0x4CEA2, offset: 0x4CEA2, size: 0x8, addend: 0x0, symName: __ZN5Eigen8internal17scalar_product_opIffEC1Ev, symObjAddr: 0x8924, symBinAddr: 0x10000C588, symSize: 0x2C }
  - { offsetInCU: 0x4CECC, offset: 0x4CECC, size: 0x8, addend: 0x0, symName: __ZN5Eigen13CwiseBinaryOpINS_8internal17scalar_product_opIffEEKNS_12CwiseUnaryOpINS1_14scalar_cast_opIifEEKNS_5ArrayIiLin1ELi1ELi0ELin1ELi1EEEEEKNS_14CwiseNullaryOpINS1_18scalar_constant_opIfEEKNS7_IfLin1ELi1ELi0ELin1ELi1EEEEEEC1ERSB_RSI_RKS3_, symObjAddr: 0x8950, symBinAddr: 0x10000C5B4, symSize: 0x44 }
  - { offsetInCU: 0x4CF20, offset: 0x4CF20, size: 0x8, addend: 0x0, symName: __ZN5Eigen8internal18scalar_constant_opIfEC2ERKf, symObjAddr: 0x8994, symBinAddr: 0x10000C5F8, symSize: 0x24 }
  - { offsetInCU: 0x4CF58, offset: 0x4CF58, size: 0x8, addend: 0x0, symName: __ZN5Eigen14CwiseNullaryOpINS_8internal18scalar_constant_opIfEEKNS_5ArrayIfLin1ELi1ELi0ELin1ELi1EEEEC2EllRKS3_, symObjAddr: 0x89B8, symBinAddr: 0x10000C61C, symSize: 0xE8 }
  - { offsetInCU: 0x4CFAC, offset: 0x4CFAC, size: 0x8, addend: 0x0, symName: __ZN5Eigen9ArrayBaseINS_14CwiseNullaryOpINS_8internal18scalar_constant_opIfEEKNS_5ArrayIfLin1ELi1ELi0ELin1ELi1EEEEEEC2Ev, symObjAddr: 0x8AA0, symBinAddr: 0x10000C704, symSize: 0x2C }
  - { offsetInCU: 0x4CFD6, offset: 0x4CFD6, size: 0x8, addend: 0x0, symName: __ZN5Eigen8internal18scalar_constant_opIfEC1ERKS2_, symObjAddr: 0x8ACC, symBinAddr: 0x10000C730, symSize: 0x34 }
  - { offsetInCU: 0x4D00E, offset: 0x4D00E, size: 0x8, addend: 0x0, symName: __ZN5Eigen9DenseBaseINS_14CwiseNullaryOpINS_8internal18scalar_constant_opIfEEKNS_5ArrayIfLin1ELi1ELi0ELin1ELi1EEEEEEC2Ev, symObjAddr: 0x8B00, symBinAddr: 0x10000C764, symSize: 0x14 }
  - { offsetInCU: 0x4D038, offset: 0x4D038, size: 0x8, addend: 0x0, symName: __ZN5Eigen8internal18scalar_constant_opIfEC2ERKS2_, symObjAddr: 0x8B14, symBinAddr: 0x10000C778, symSize: 0x24 }
  - { offsetInCU: 0x4D070, offset: 0x4D070, size: 0x8, addend: 0x0, symName: __ZN5Eigen8internal17scalar_product_opIffEC2Ev, symObjAddr: 0x8B38, symBinAddr: 0x10000C79C, symSize: 0x14 }
  - { offsetInCU: 0x4D09A, offset: 0x4D09A, size: 0x8, addend: 0x0, symName: __ZN5Eigen13CwiseBinaryOpINS_8internal17scalar_product_opIffEEKNS_12CwiseUnaryOpINS1_14scalar_cast_opIifEEKNS_5ArrayIiLin1ELi1ELi0ELin1ELi1EEEEEKNS_14CwiseNullaryOpINS1_18scalar_constant_opIfEEKNS7_IfLin1ELi1ELi0ELin1ELi1EEEEEEC2ERSB_RSI_RKS3_, symObjAddr: 0x8B4C, symBinAddr: 0x10000C7B0, symSize: 0xFC }
  - { offsetInCU: 0x4D0F3, offset: 0x4D0F3, size: 0x8, addend: 0x0, symName: __ZN5Eigen17CwiseBinaryOpImplINS_8internal17scalar_product_opIffEEKNS_12CwiseUnaryOpINS1_14scalar_cast_opIifEEKNS_5ArrayIiLin1ELi1ELi0ELin1ELi1EEEEEKNS_14CwiseNullaryOpINS1_18scalar_constant_opIfEEKNS7_IfLin1ELi1ELi0ELin1ELi1EEEEENS_5DenseEEC2Ev, symObjAddr: 0x8C48, symBinAddr: 0x10000C8AC, symSize: 0x2C }
  - { offsetInCU: 0x4D11F, offset: 0x4D11F, size: 0x8, addend: 0x0, symName: __ZN5Eigen12CwiseUnaryOpINS_8internal14scalar_cast_opIifEEKNS_5ArrayIiLin1ELi1ELi0ELin1ELi1EEEEC1ERKS7_, symObjAddr: 0x8C74, symBinAddr: 0x10000C8D8, symSize: 0x34 }
  - { offsetInCU: 0x4D154, offset: 0x4D154, size: 0x8, addend: 0x0, symName: __ZN5Eigen14CwiseNullaryOpINS_8internal18scalar_constant_opIfEEKNS_5ArrayIfLin1ELi1ELi0ELin1ELi1EEEEC1ERKS7_, symObjAddr: 0x8CA8, symBinAddr: 0x10000C90C, symSize: 0x34 }
  - { offsetInCU: 0x4D189, offset: 0x4D189, size: 0x8, addend: 0x0, symName: __ZN5Eigen8internal17scalar_product_opIffEC1ERKS2_, symObjAddr: 0x8CDC, symBinAddr: 0x10000C940, symSize: 0x34 }
  - { offsetInCU: 0x4D1BE, offset: 0x4D1BE, size: 0x8, addend: 0x0, symName: __ZNK5Eigen14CwiseNullaryOpINS_8internal18scalar_constant_opIfEEKNS_5ArrayIfLin1ELi1ELi0ELin1ELi1EEEE4rowsEv, symObjAddr: 0x8D10, symBinAddr: 0x10000C974, symSize: 0x24 }
  - { offsetInCU: 0x4D1E4, offset: 0x4D1E4, size: 0x8, addend: 0x0, symName: __ZNK5Eigen14CwiseNullaryOpINS_8internal18scalar_constant_opIfEEKNS_5ArrayIfLin1ELi1ELi0ELin1ELi1EEEE4colsEv, symObjAddr: 0x8D34, symBinAddr: 0x10000C998, symSize: 0x20 }
  - { offsetInCU: 0x4D20A, offset: 0x4D20A, size: 0x8, addend: 0x0, symName: __ZN5Eigen9ArrayBaseINS_13CwiseBinaryOpINS_8internal17scalar_product_opIffEEKNS_12CwiseUnaryOpINS2_14scalar_cast_opIifEEKNS_5ArrayIiLin1ELi1ELi0ELin1ELi1EEEEEKNS_14CwiseNullaryOpINS2_18scalar_constant_opIfEEKNS8_IfLin1ELi1ELi0ELin1ELi1EEEEEEEEC2Ev, symObjAddr: 0x8D54, symBinAddr: 0x10000C9B8, symSize: 0x2C }
  - { offsetInCU: 0x4D234, offset: 0x4D234, size: 0x8, addend: 0x0, symName: __ZN5Eigen9DenseBaseINS_13CwiseBinaryOpINS_8internal17scalar_product_opIffEEKNS_12CwiseUnaryOpINS2_14scalar_cast_opIifEEKNS_5ArrayIiLin1ELi1ELi0ELin1ELi1EEEEEKNS_14CwiseNullaryOpINS2_18scalar_constant_opIfEEKNS8_IfLin1ELi1ELi0ELin1ELi1EEEEEEEEC2Ev, symObjAddr: 0x8D80, symBinAddr: 0x10000C9E4, symSize: 0x14 }
  - { offsetInCU: 0x4D25E, offset: 0x4D25E, size: 0x8, addend: 0x0, symName: __ZN5Eigen12CwiseUnaryOpINS_8internal14scalar_cast_opIifEEKNS_5ArrayIiLin1ELi1ELi0ELin1ELi1EEEEC2ERKS7_, symObjAddr: 0x8D94, symBinAddr: 0x10000C9F8, symSize: 0x48 }
  - { offsetInCU: 0x4D293, offset: 0x4D293, size: 0x8, addend: 0x0, symName: __ZN5Eigen14CwiseNullaryOpINS_8internal18scalar_constant_opIfEEKNS_5ArrayIfLin1ELi1ELi0ELin1ELi1EEEEC2ERKS7_, symObjAddr: 0x8DDC, symBinAddr: 0x10000CA40, symSize: 0x50 }
  - { offsetInCU: 0x4D2C8, offset: 0x4D2C8, size: 0x8, addend: 0x0, symName: __ZN5Eigen8internal17scalar_product_opIffEC2ERKS2_, symObjAddr: 0x8E2C, symBinAddr: 0x10000CA90, symSize: 0x18 }
  - { offsetInCU: 0x4D2FD, offset: 0x4D2FD, size: 0x8, addend: 0x0, symName: __ZNK5Eigen9EigenBaseINS_13CwiseBinaryOpINS_8internal17scalar_product_opIffEEKNS_12CwiseUnaryOpINS2_14scalar_cast_opIifEEKNS_5ArrayIiLin1ELi1ELi0ELin1ELi1EEEEEKNS_14CwiseNullaryOpINS2_18scalar_constant_opIfEEKNS8_IfLin1ELi1ELi0ELin1ELi1EEEEEEEE7derivedEv, symObjAddr: 0x8E44, symBinAddr: 0x10000CAA8, symSize: 0x14 }
  - { offsetInCU: 0x4D323, offset: 0x4D323, size: 0x8, addend: 0x0, symName: __ZNK5Eigen13CwiseBinaryOpINS_8internal17scalar_product_opIffEEKNS_12CwiseUnaryOpINS1_14scalar_cast_opIifEEKNS_5ArrayIiLin1ELi1ELi0ELin1ELi1EEEEEKNS_14CwiseNullaryOpINS1_18scalar_constant_opIfEEKNS7_IfLin1ELi1ELi0ELin1ELi1EEEEEE4rowsEv, symObjAddr: 0x8E58, symBinAddr: 0x10000CABC, symSize: 0x28 }
  - { offsetInCU: 0x4D349, offset: 0x4D349, size: 0x8, addend: 0x0, symName: __ZNK5Eigen13CwiseBinaryOpINS_8internal17scalar_product_opIffEEKNS_12CwiseUnaryOpINS1_14scalar_cast_opIifEEKNS_5ArrayIiLin1ELi1ELi0ELin1ELi1EEEEEKNS_14CwiseNullaryOpINS1_18scalar_constant_opIfEEKNS7_IfLin1ELi1ELi0ELin1ELi1EEEEEE4colsEv, symObjAddr: 0x8E80, symBinAddr: 0x10000CAE4, symSize: 0x28 }
  - { offsetInCU: 0x4D36F, offset: 0x4D36F, size: 0x8, addend: 0x0, symName: __ZN5Eigen8internal18scalar_quotient_opIffEC1Ev, symObjAddr: 0x8EA8, symBinAddr: 0x10000CB0C, symSize: 0x2C }
  - { offsetInCU: 0x4D399, offset: 0x4D399, size: 0x8, addend: 0x0, symName: __ZN5Eigen13CwiseBinaryOpINS_8internal18scalar_quotient_opIffEEKNS0_INS1_17scalar_product_opIffEEKNS_12CwiseUnaryOpINS1_14scalar_cast_opIifEEKNS_5ArrayIiLin1ELi1ELi0ELin1ELi1EEEEEKNS_14CwiseNullaryOpINS1_18scalar_constant_opIfEEKNS9_IfLin1ELi1ELi0ELin1ELi1EEEEEEESK_EC1ERSM_RSK_RKS3_, symObjAddr: 0x8ED4, symBinAddr: 0x10000CB38, symSize: 0x44 }
  - { offsetInCU: 0x4D3ED, offset: 0x4D3ED, size: 0x8, addend: 0x0, symName: __ZN5Eigen8internal18scalar_quotient_opIffEC2Ev, symObjAddr: 0x8F18, symBinAddr: 0x10000CB7C, symSize: 0x14 }
  - { offsetInCU: 0x4D417, offset: 0x4D417, size: 0x8, addend: 0x0, symName: __ZN5Eigen13CwiseBinaryOpINS_8internal18scalar_quotient_opIffEEKNS0_INS1_17scalar_product_opIffEEKNS_12CwiseUnaryOpINS1_14scalar_cast_opIifEEKNS_5ArrayIiLin1ELi1ELi0ELin1ELi1EEEEEKNS_14CwiseNullaryOpINS1_18scalar_constant_opIfEEKNS9_IfLin1ELi1ELi0ELin1ELi1EEEEEEESK_EC2ERSM_RSK_RKS3_, symObjAddr: 0x8F2C, symBinAddr: 0x10000CB90, symSize: 0xFC }
  - { offsetInCU: 0x4D470, offset: 0x4D470, size: 0x8, addend: 0x0, symName: __ZN5Eigen17CwiseBinaryOpImplINS_8internal18scalar_quotient_opIffEEKNS_13CwiseBinaryOpINS1_17scalar_product_opIffEEKNS_12CwiseUnaryOpINS1_14scalar_cast_opIifEEKNS_5ArrayIiLin1ELi1ELi0ELin1ELi1EEEEEKNS_14CwiseNullaryOpINS1_18scalar_constant_opIfEEKNSA_IfLin1ELi1ELi0ELin1ELi1EEEEEEESL_NS_5DenseEEC2Ev, symObjAddr: 0x9028, symBinAddr: 0x10000CC8C, symSize: 0x2C }
  - { offsetInCU: 0x4D49C, offset: 0x4D49C, size: 0x8, addend: 0x0, symName: __ZN5Eigen13CwiseBinaryOpINS_8internal17scalar_product_opIffEEKNS_12CwiseUnaryOpINS1_14scalar_cast_opIifEEKNS_5ArrayIiLin1ELi1ELi0ELin1ELi1EEEEEKNS_14CwiseNullaryOpINS1_18scalar_constant_opIfEEKNS7_IfLin1ELi1ELi0ELin1ELi1EEEEEEC1ERKSJ_, symObjAddr: 0x9054, symBinAddr: 0x10000CCB8, symSize: 0x34 }
  - { offsetInCU: 0x4D4D1, offset: 0x4D4D1, size: 0x8, addend: 0x0, symName: __ZN5Eigen8internal18scalar_quotient_opIffEC1ERKS2_, symObjAddr: 0x9088, symBinAddr: 0x10000CCEC, symSize: 0x34 }
  - { offsetInCU: 0x4D506, offset: 0x4D506, size: 0x8, addend: 0x0, symName: __ZN5Eigen9ArrayBaseINS_13CwiseBinaryOpINS_8internal18scalar_quotient_opIffEEKNS1_INS2_17scalar_product_opIffEEKNS_12CwiseUnaryOpINS2_14scalar_cast_opIifEEKNS_5ArrayIiLin1ELi1ELi0ELin1ELi1EEEEEKNS_14CwiseNullaryOpINS2_18scalar_constant_opIfEEKNSA_IfLin1ELi1ELi0ELin1ELi1EEEEEEESL_EEEC2Ev, symObjAddr: 0x90BC, symBinAddr: 0x10000CD20, symSize: 0x2C }
  - { offsetInCU: 0x4D530, offset: 0x4D530, size: 0x8, addend: 0x0, symName: __ZN5Eigen9DenseBaseINS_13CwiseBinaryOpINS_8internal18scalar_quotient_opIffEEKNS1_INS2_17scalar_product_opIffEEKNS_12CwiseUnaryOpINS2_14scalar_cast_opIifEEKNS_5ArrayIiLin1ELi1ELi0ELin1ELi1EEEEEKNS_14CwiseNullaryOpINS2_18scalar_constant_opIfEEKNSA_IfLin1ELi1ELi0ELin1ELi1EEEEEEESL_EEEC2Ev, symObjAddr: 0x90E8, symBinAddr: 0x10000CD4C, symSize: 0x14 }
  - { offsetInCU: 0x4D55A, offset: 0x4D55A, size: 0x8, addend: 0x0, symName: __ZN5Eigen13CwiseBinaryOpINS_8internal17scalar_product_opIffEEKNS_12CwiseUnaryOpINS1_14scalar_cast_opIifEEKNS_5ArrayIiLin1ELi1ELi0ELin1ELi1EEEEEKNS_14CwiseNullaryOpINS1_18scalar_constant_opIfEEKNS7_IfLin1ELi1ELi0ELin1ELi1EEEEEEC2ERKSJ_, symObjAddr: 0x90FC, symBinAddr: 0x10000CD60, symSize: 0x64 }
  - { offsetInCU: 0x4D58F, offset: 0x4D58F, size: 0x8, addend: 0x0, symName: __ZN5Eigen8internal18scalar_quotient_opIffEC2ERKS2_, symObjAddr: 0x9160, symBinAddr: 0x10000CDC4, symSize: 0x18 }
  - { offsetInCU: 0x4D5C4, offset: 0x4D5C4, size: 0x8, addend: 0x0, symName: __ZN5Eigen5ArrayIfLin1ELi1ELi0ELin1ELi1EEC2INS_13CwiseBinaryOpINS_8internal18scalar_quotient_opIffEEKNS3_INS4_17scalar_product_opIffEEKNS_12CwiseUnaryOpINS4_14scalar_cast_opIifEEKNS0_IiLin1ELi1ELi0ELin1ELi1EEEEEKNS_14CwiseNullaryOpINS4_18scalar_constant_opIfEEKS1_EEEESL_EEEERKNS_9EigenBaseIT_EENS4_9enable_ifIXsr8internal14is_convertibleINSQ_6ScalarEfEE5valueENS1_11PrivateTypeEE4typeE, symObjAddr: 0x9178, symBinAddr: 0x10000CDDC, symSize: 0x40 }
  - { offsetInCU: 0x4D611, offset: 0x4D611, size: 0x8, addend: 0x0, symName: __ZNK5Eigen9EigenBaseINS_13CwiseBinaryOpINS_8internal18scalar_quotient_opIffEEKNS1_INS2_17scalar_product_opIffEEKNS_12CwiseUnaryOpINS2_14scalar_cast_opIifEEKNS_5ArrayIiLin1ELi1ELi0ELin1ELi1EEEEEKNS_14CwiseNullaryOpINS2_18scalar_constant_opIfEEKNSA_IfLin1ELi1ELi0ELin1ELi1EEEEEEESL_EEE7derivedEv, symObjAddr: 0x91B8, symBinAddr: 0x10000CE1C, symSize: 0x14 }
  - { offsetInCU: 0x4D637, offset: 0x4D637, size: 0x8, addend: 0x0, symName: __ZN5Eigen15PlainObjectBaseINS_5ArrayIfLin1ELi1ELi0ELin1ELi1EEEEC2INS_13CwiseBinaryOpINS_8internal18scalar_quotient_opIffEEKNS5_INS6_17scalar_product_opIffEEKNS_12CwiseUnaryOpINS6_14scalar_cast_opIifEEKNS1_IiLin1ELi1ELi0ELin1ELi1EEEEEKNS_14CwiseNullaryOpINS6_18scalar_constant_opIfEEKS2_EEEESN_EEEERKNS_9DenseBaseIT_EE, symObjAddr: 0x91CC, symBinAddr: 0x10000CE30, symSize: 0x84 }
  - { offsetInCU: 0x4D679, offset: 0x4D679, size: 0x8, addend: 0x0, symName: __ZN5Eigen9ArrayBaseINS_5ArrayIfLin1ELi1ELi0ELin1ELi1EEEEC2Ev, symObjAddr: 0x9250, symBinAddr: 0x10000CEB4, symSize: 0x2C }
  - { offsetInCU: 0x4D6A3, offset: 0x4D6A3, size: 0x8, addend: 0x0, symName: __ZN5Eigen12DenseStorageIfLin1ELin1ELi1ELi0EEC1Ev, symObjAddr: 0x927C, symBinAddr: 0x10000CEE0, symSize: 0x2C }
  - { offsetInCU: 0x4D6CD, offset: 0x4D6CD, size: 0x8, addend: 0x0, symName: __ZN5Eigen15PlainObjectBaseINS_5ArrayIfLin1ELi1ELi0ELin1ELi1EEEE22_check_template_paramsEv, symObjAddr: 0x92A8, symBinAddr: 0x10000CF0C, symSize: 0x4 }
  - { offsetInCU: 0x4D6E1, offset: 0x4D6E1, size: 0x8, addend: 0x0, symName: __ZN5Eigen15PlainObjectBaseINS_5ArrayIfLin1ELi1ELi0ELin1ELi1EEEE10resizeLikeINS_13CwiseBinaryOpINS_8internal18scalar_quotient_opIffEEKNS5_INS6_17scalar_product_opIffEEKNS_12CwiseUnaryOpINS6_14scalar_cast_opIifEEKNS1_IiLin1ELi1ELi0ELin1ELi1EEEEEKNS_14CwiseNullaryOpINS6_18scalar_constant_opIfEEKS2_EEEESN_EEEEvRKNS_9EigenBaseIT_EE, symObjAddr: 0x92AC, symBinAddr: 0x10000CF10, symSize: 0x170 }
  - { offsetInCU: 0x4D775, offset: 0x4D775, size: 0x8, addend: 0x0, symName: __ZN5Eigen15PlainObjectBaseINS_5ArrayIfLin1ELi1ELi0ELin1ELi1EEEE12_set_noaliasINS_13CwiseBinaryOpINS_8internal18scalar_quotient_opIffEEKNS5_INS6_17scalar_product_opIffEEKNS_12CwiseUnaryOpINS6_14scalar_cast_opIifEEKNS1_IiLin1ELi1ELi0ELin1ELi1EEEEEKNS_14CwiseNullaryOpINS6_18scalar_constant_opIfEEKS2_EEEESN_EEEERS2_RKNS_9DenseBaseIT_EE, symObjAddr: 0x941C, symBinAddr: 0x10000D080, symSize: 0x60 }
  - { offsetInCU: 0x4D7B3, offset: 0x4D7B3, size: 0x8, addend: 0x0, symName: __ZN5Eigen9DenseBaseINS_5ArrayIfLin1ELi1ELi0ELin1ELi1EEEEC2Ev, symObjAddr: 0x947C, symBinAddr: 0x10000D0E0, symSize: 0x14 }
  - { offsetInCU: 0x4D7DD, offset: 0x4D7DD, size: 0x8, addend: 0x0, symName: __ZN5Eigen12DenseStorageIfLin1ELin1ELi1ELi0EEC2Ev, symObjAddr: 0x9490, symBinAddr: 0x10000D0F4, symSize: 0x1C }
  - { offsetInCU: 0x4D807, offset: 0x4D807, size: 0x8, addend: 0x0, symName: __ZNK5Eigen13CwiseBinaryOpINS_8internal18scalar_quotient_opIffEEKNS0_INS1_17scalar_product_opIffEEKNS_12CwiseUnaryOpINS1_14scalar_cast_opIifEEKNS_5ArrayIiLin1ELi1ELi0ELin1ELi1EEEEEKNS_14CwiseNullaryOpINS1_18scalar_constant_opIfEEKNS9_IfLin1ELi1ELi0ELin1ELi1EEEEEEESK_E4rowsEv, symObjAddr: 0x94AC, symBinAddr: 0x10000D110, symSize: 0x28 }
  - { offsetInCU: 0x4D82D, offset: 0x4D82D, size: 0x8, addend: 0x0, symName: __ZNK5Eigen13CwiseBinaryOpINS_8internal18scalar_quotient_opIffEEKNS0_INS1_17scalar_product_opIffEEKNS_12CwiseUnaryOpINS1_14scalar_cast_opIifEEKNS_5ArrayIiLin1ELi1ELi0ELin1ELi1EEEEEKNS_14CwiseNullaryOpINS1_18scalar_constant_opIfEEKNS9_IfLin1ELi1ELi0ELin1ELi1EEEEEEESK_E4colsEv, symObjAddr: 0x94D4, symBinAddr: 0x10000D138, symSize: 0x28 }
  - { offsetInCU: 0x4D853, offset: 0x4D853, size: 0x8, addend: 0x0, symName: __ZN5Eigen15PlainObjectBaseINS_5ArrayIfLin1ELi1ELi0ELin1ELi1EEEE6resizeEll, symObjAddr: 0x94FC, symBinAddr: 0x10000D160, symSize: 0x168 }
  - { offsetInCU: 0x4D8CF, offset: 0x4D8CF, size: 0x8, addend: 0x0, symName: __ZN5Eigen12DenseStorageIfLin1ELin1ELi1ELi0EE6resizeElll, symObjAddr: 0x9664, symBinAddr: 0x10000D2C8, symSize: 0xA4 }
  - { offsetInCU: 0x4D91E, offset: 0x4D91E, size: 0x8, addend: 0x0, symName: __ZN5Eigen9EigenBaseINS_5ArrayIfLin1ELi1ELi0ELin1ELi1EEEE7derivedEv, symObjAddr: 0x97C8, symBinAddr: 0x10000D42C, symSize: 0x14 }
  - { offsetInCU: 0x4D95D, offset: 0x4D95D, size: 0x8, addend: 0x0, symName: __ZN5Eigen8internal9assign_opIffEC1Ev, symObjAddr: 0x97DC, symBinAddr: 0x10000D440, symSize: 0x2C }
  - { offsetInCU: 0x4D987, offset: 0x4D987, size: 0x8, addend: 0x0, symName: __ZN5Eigen8internal10AssignmentINS_5ArrayIfLin1ELi1ELi0ELin1ELi1EEENS_13CwiseBinaryOpINS0_18scalar_quotient_opIffEEKNS4_INS0_17scalar_product_opIffEEKNS_12CwiseUnaryOpINS0_14scalar_cast_opIifEEKNS2_IiLin1ELi1ELi0ELin1ELi1EEEEEKNS_14CwiseNullaryOpINS0_18scalar_constant_opIfEEKS3_EEEESL_EENS0_9assign_opIffEENS0_11Dense2DenseEvE3runERS3_RKSO_RKSQ_, symObjAddr: 0x9808, symBinAddr: 0x10000D46C, symSize: 0x40 }
  - { offsetInCU: 0x4DAC8, offset: 0x4DAC8, size: 0x8, addend: 0x0, symName: __ZN5Eigen8internal9evaluatorINS_13CwiseBinaryOpINS0_18scalar_quotient_opIffEEKNS2_INS0_17scalar_product_opIffEEKNS_12CwiseUnaryOpINS0_14scalar_cast_opIifEEKNS_5ArrayIiLin1ELi1ELi0ELin1ELi1EEEEEKNS_14CwiseNullaryOpINS0_18scalar_constant_opIfEEKNSA_IfLin1ELi1ELi0ELin1ELi1EEEEEEESL_EEEC1ERKSO_, symObjAddr: 0x993C, symBinAddr: 0x10000D5A0, symSize: 0x34 }
  - { offsetInCU: 0x4DB10, offset: 0x4DB10, size: 0x8, addend: 0x0, symName: __ZN5Eigen8internal9evaluatorINS_5ArrayIfLin1ELi1ELi0ELin1ELi1EEEEC1ERKS3_, symObjAddr: 0x9A68, symBinAddr: 0x10000D6CC, symSize: 0x34 }
  - { offsetInCU: 0x4DB49, offset: 0x4DB49, size: 0x8, addend: 0x0, symName: __ZNK5Eigen9EigenBaseINS_5ArrayIfLin1ELi1ELi0ELin1ELi1EEEE18const_cast_derivedEv, symObjAddr: 0x9A9C, symBinAddr: 0x10000D700, symSize: 0x14 }
  - { offsetInCU: 0x4DB9C, offset: 0x4DB9C, size: 0x8, addend: 0x0, symName: __ZN5Eigen8internal31generic_dense_assignment_kernelINS0_9evaluatorINS_5ArrayIfLin1ELi1ELi0ELin1ELi1EEEEENS2_INS_13CwiseBinaryOpINS0_18scalar_quotient_opIffEEKNS6_INS0_17scalar_product_opIffEEKNS_12CwiseUnaryOpINS0_14scalar_cast_opIifEEKNS3_IiLin1ELi1ELi0ELin1ELi1EEEEEKNS_14CwiseNullaryOpINS0_18scalar_constant_opIfEEKS4_EEEESN_EEEENS0_9assign_opIffEELi0EEC1ERS5_RKSR_RKST_RS4_, symObjAddr: 0x9AB0, symBinAddr: 0x10000D714, symSize: 0x4C }
  - { offsetInCU: 0x4DC07, offset: 0x4DC07, size: 0x8, addend: 0x0, symName: __ZN5Eigen8internal21dense_assignment_loopINS0_31generic_dense_assignment_kernelINS0_9evaluatorINS_5ArrayIfLin1ELi1ELi0ELin1ELi1EEEEENS3_INS_13CwiseBinaryOpINS0_18scalar_quotient_opIffEEKNS7_INS0_17scalar_product_opIffEEKNS_12CwiseUnaryOpINS0_14scalar_cast_opIifEEKNS4_IiLin1ELi1ELi0ELin1ELi1EEEEEKNS_14CwiseNullaryOpINS0_18scalar_constant_opIfEEKS5_EEEESO_EEEENS0_9assign_opIffEELi0EEELi1ELi0EE3runERSV_, symObjAddr: 0x9AFC, symBinAddr: 0x10000D760, symSize: 0x68 }
  - { offsetInCU: 0x4DC57, offset: 0x4DC57, size: 0x8, addend: 0x0, symName: __ZN5Eigen8internal9evaluatorINS_5ArrayIfLin1ELi1ELi0ELin1ELi1EEEED1Ev, symObjAddr: 0x9B64, symBinAddr: 0x10000D7C8, symSize: 0x2C }
  - { offsetInCU: 0x4DC84, offset: 0x4DC84, size: 0x8, addend: 0x0, symName: __ZN5Eigen8internal9evaluatorINS_13CwiseBinaryOpINS0_18scalar_quotient_opIffEEKNS2_INS0_17scalar_product_opIffEEKNS_12CwiseUnaryOpINS0_14scalar_cast_opIifEEKNS_5ArrayIiLin1ELi1ELi0ELin1ELi1EEEEEKNS_14CwiseNullaryOpINS0_18scalar_constant_opIfEEKNSA_IfLin1ELi1ELi0ELin1ELi1EEEEEEESL_EEED1Ev, symObjAddr: 0x9B90, symBinAddr: 0x10000D7F4, symSize: 0x2C }
  - { offsetInCU: 0x4DCB1, offset: 0x4DCB1, size: 0x8, addend: 0x0, symName: __ZN5Eigen8internal9evaluatorINS_13CwiseBinaryOpINS0_18scalar_quotient_opIffEEKNS2_INS0_17scalar_product_opIffEEKNS_12CwiseUnaryOpINS0_14scalar_cast_opIifEEKNS_5ArrayIiLin1ELi1ELi0ELin1ELi1EEEEEKNS_14CwiseNullaryOpINS0_18scalar_constant_opIfEEKNSA_IfLin1ELi1ELi0ELin1ELi1EEEEEEESL_EEEC2ERKSO_, symObjAddr: 0x9BBC, symBinAddr: 0x10000D820, symSize: 0x34 }
  - { offsetInCU: 0x4DCEA, offset: 0x4DCEA, size: 0x8, addend: 0x0, symName: __ZN5Eigen8internal16binary_evaluatorINS_13CwiseBinaryOpINS0_18scalar_quotient_opIffEEKNS2_INS0_17scalar_product_opIffEEKNS_12CwiseUnaryOpINS0_14scalar_cast_opIifEEKNS_5ArrayIiLin1ELi1ELi0ELin1ELi1EEEEEKNS_14CwiseNullaryOpINS0_18scalar_constant_opIfEEKNSA_IfLin1ELi1ELi0ELin1ELi1EEEEEEESL_EENS0_10IndexBasedESP_ffEC2ERKSO_, symObjAddr: 0x9BF0, symBinAddr: 0x10000D854, symSize: 0x64 }
  - { offsetInCU: 0x4DD23, offset: 0x4DD23, size: 0x8, addend: 0x0, symName: __ZN5Eigen8internal14evaluator_baseINS_13CwiseBinaryOpINS0_18scalar_quotient_opIffEEKNS2_INS0_17scalar_product_opIffEEKNS_12CwiseUnaryOpINS0_14scalar_cast_opIifEEKNS_5ArrayIiLin1ELi1ELi0ELin1ELi1EEEEEKNS_14CwiseNullaryOpINS0_18scalar_constant_opIfEEKNSA_IfLin1ELi1ELi0ELin1ELi1EEEEEEESL_EEEC2Ev, symObjAddr: 0x9C54, symBinAddr: 0x10000D8B8, symSize: 0x14 }
  - { offsetInCU: 0x4DD4D, offset: 0x4DD4D, size: 0x8, addend: 0x0, symName: __ZN5Eigen8internal16binary_evaluatorINS_13CwiseBinaryOpINS0_18scalar_quotient_opIffEEKNS2_INS0_17scalar_product_opIffEEKNS_12CwiseUnaryOpINS0_14scalar_cast_opIifEEKNS_5ArrayIiLin1ELi1ELi0ELin1ELi1EEEEEKNS_14CwiseNullaryOpINS0_18scalar_constant_opIfEEKNSA_IfLin1ELi1ELi0ELin1ELi1EEEEEEESL_EENS0_10IndexBasedESP_ffE4DataC1ERKSO_, symObjAddr: 0x9C68, symBinAddr: 0x10000D8CC, symSize: 0x34 }
  - { offsetInCU: 0x4DD86, offset: 0x4DD86, size: 0x8, addend: 0x0, symName: __ZN5Eigen8internal14evaluator_baseINS_13CwiseBinaryOpINS0_18scalar_quotient_opIffEEKNS2_INS0_17scalar_product_opIffEEKNS_12CwiseUnaryOpINS0_14scalar_cast_opIifEEKNS_5ArrayIiLin1ELi1ELi0ELin1ELi1EEEEEKNS_14CwiseNullaryOpINS0_18scalar_constant_opIfEEKNSA_IfLin1ELi1ELi0ELin1ELi1EEEEEEESL_EEED2Ev, symObjAddr: 0x9C9C, symBinAddr: 0x10000D900, symSize: 0x14 }
  - { offsetInCU: 0x4DDB0, offset: 0x4DDB0, size: 0x8, addend: 0x0, symName: __ZN5Eigen8internal16binary_evaluatorINS_13CwiseBinaryOpINS0_18scalar_quotient_opIffEEKNS2_INS0_17scalar_product_opIffEEKNS_12CwiseUnaryOpINS0_14scalar_cast_opIifEEKNS_5ArrayIiLin1ELi1ELi0ELin1ELi1EEEEEKNS_14CwiseNullaryOpINS0_18scalar_constant_opIfEEKNSA_IfLin1ELi1ELi0ELin1ELi1EEEEEEESL_EENS0_10IndexBasedESP_ffE4DataC2ERKSO_, symObjAddr: 0x9CB0, symBinAddr: 0x10000D914, symSize: 0xA8 }
  - { offsetInCU: 0x4DDE9, offset: 0x4DDE9, size: 0x8, addend: 0x0, symName: __ZNK5Eigen13CwiseBinaryOpINS_8internal18scalar_quotient_opIffEEKNS0_INS1_17scalar_product_opIffEEKNS_12CwiseUnaryOpINS1_14scalar_cast_opIifEEKNS_5ArrayIiLin1ELi1ELi0ELin1ELi1EEEEEKNS_14CwiseNullaryOpINS1_18scalar_constant_opIfEEKNS9_IfLin1ELi1ELi0ELin1ELi1EEEEEEESK_E7functorEv, symObjAddr: 0x9D58, symBinAddr: 0x10000D9BC, symSize: 0x18 }
  - { offsetInCU: 0x4DE0F, offset: 0x4DE0F, size: 0x8, addend: 0x0, symName: __ZNK5Eigen13CwiseBinaryOpINS_8internal18scalar_quotient_opIffEEKNS0_INS1_17scalar_product_opIffEEKNS_12CwiseUnaryOpINS1_14scalar_cast_opIifEEKNS_5ArrayIiLin1ELi1ELi0ELin1ELi1EEEEEKNS_14CwiseNullaryOpINS1_18scalar_constant_opIfEEKNS9_IfLin1ELi1ELi0ELin1ELi1EEEEEEESK_E3lhsEv, symObjAddr: 0x9D70, symBinAddr: 0x10000D9D4, symSize: 0x18 }
  - { offsetInCU: 0x4DE35, offset: 0x4DE35, size: 0x8, addend: 0x0, symName: __ZN5Eigen8internal9evaluatorIKNS_13CwiseBinaryOpINS0_17scalar_product_opIffEEKNS_12CwiseUnaryOpINS0_14scalar_cast_opIifEEKNS_5ArrayIiLin1ELi1ELi0ELin1ELi1EEEEEKNS_14CwiseNullaryOpINS0_18scalar_constant_opIfEEKNS8_IfLin1ELi1ELi0ELin1ELi1EEEEEEEEC1ERSL_, symObjAddr: 0x9D88, symBinAddr: 0x10000D9EC, symSize: 0x34 }
  - { offsetInCU: 0x4DE6D, offset: 0x4DE6D, size: 0x8, addend: 0x0, symName: __ZNK5Eigen13CwiseBinaryOpINS_8internal18scalar_quotient_opIffEEKNS0_INS1_17scalar_product_opIffEEKNS_12CwiseUnaryOpINS1_14scalar_cast_opIifEEKNS_5ArrayIiLin1ELi1ELi0ELin1ELi1EEEEEKNS_14CwiseNullaryOpINS1_18scalar_constant_opIfEEKNS9_IfLin1ELi1ELi0ELin1ELi1EEEEEEESK_E3rhsEv, symObjAddr: 0x9DBC, symBinAddr: 0x10000DA20, symSize: 0x18 }
  - { offsetInCU: 0x4DE93, offset: 0x4DE93, size: 0x8, addend: 0x0, symName: __ZN5Eigen8internal9evaluatorIKNS_14CwiseNullaryOpINS0_18scalar_constant_opIfEEKNS_5ArrayIfLin1ELi1ELi0ELin1ELi1EEEEEEC1ERS9_, symObjAddr: 0x9DD4, symBinAddr: 0x10000DA38, symSize: 0x34 }
  - { offsetInCU: 0x4DECB, offset: 0x4DECB, size: 0x8, addend: 0x0, symName: __ZN5Eigen8internal9evaluatorIKNS_13CwiseBinaryOpINS0_17scalar_product_opIffEEKNS_12CwiseUnaryOpINS0_14scalar_cast_opIifEEKNS_5ArrayIiLin1ELi1ELi0ELin1ELi1EEEEEKNS_14CwiseNullaryOpINS0_18scalar_constant_opIfEEKNS8_IfLin1ELi1ELi0ELin1ELi1EEEEEEEED1Ev, symObjAddr: 0x9E08, symBinAddr: 0x10000DA6C, symSize: 0x2C }
  - { offsetInCU: 0x4DEF7, offset: 0x4DEF7, size: 0x8, addend: 0x0, symName: __ZN5Eigen8internal9evaluatorIKNS_13CwiseBinaryOpINS0_17scalar_product_opIffEEKNS_12CwiseUnaryOpINS0_14scalar_cast_opIifEEKNS_5ArrayIiLin1ELi1ELi0ELin1ELi1EEEEEKNS_14CwiseNullaryOpINS0_18scalar_constant_opIfEEKNS8_IfLin1ELi1ELi0ELin1ELi1EEEEEEEEC2ERSL_, symObjAddr: 0x9E34, symBinAddr: 0x10000DA98, symSize: 0x34 }
  - { offsetInCU: 0x4DF2F, offset: 0x4DF2F, size: 0x8, addend: 0x0, symName: __ZN5Eigen8internal9evaluatorINS_13CwiseBinaryOpINS0_17scalar_product_opIffEEKNS_12CwiseUnaryOpINS0_14scalar_cast_opIifEEKNS_5ArrayIiLin1ELi1ELi0ELin1ELi1EEEEEKNS_14CwiseNullaryOpINS0_18scalar_constant_opIfEEKNS8_IfLin1ELi1ELi0ELin1ELi1EEEEEEEEC2ERKSK_, symObjAddr: 0x9E68, symBinAddr: 0x10000DACC, symSize: 0x34 }
  - { offsetInCU: 0x4DF68, offset: 0x4DF68, size: 0x8, addend: 0x0, symName: __ZN5Eigen8internal16binary_evaluatorINS_13CwiseBinaryOpINS0_17scalar_product_opIffEEKNS_12CwiseUnaryOpINS0_14scalar_cast_opIifEEKNS_5ArrayIiLin1ELi1ELi0ELin1ELi1EEEEEKNS_14CwiseNullaryOpINS0_18scalar_constant_opIfEEKNS8_IfLin1ELi1ELi0ELin1ELi1EEEEEEENS0_10IndexBasedESL_ffEC2ERKSK_, symObjAddr: 0x9E9C, symBinAddr: 0x10000DB00, symSize: 0x64 }
  - { offsetInCU: 0x4DFA1, offset: 0x4DFA1, size: 0x8, addend: 0x0, symName: __ZN5Eigen8internal14evaluator_baseINS_13CwiseBinaryOpINS0_17scalar_product_opIffEEKNS_12CwiseUnaryOpINS0_14scalar_cast_opIifEEKNS_5ArrayIiLin1ELi1ELi0ELin1ELi1EEEEEKNS_14CwiseNullaryOpINS0_18scalar_constant_opIfEEKNS8_IfLin1ELi1ELi0ELin1ELi1EEEEEEEEC2Ev, symObjAddr: 0x9F00, symBinAddr: 0x10000DB64, symSize: 0x14 }
  - { offsetInCU: 0x4DFCB, offset: 0x4DFCB, size: 0x8, addend: 0x0, symName: __ZN5Eigen8internal16binary_evaluatorINS_13CwiseBinaryOpINS0_17scalar_product_opIffEEKNS_12CwiseUnaryOpINS0_14scalar_cast_opIifEEKNS_5ArrayIiLin1ELi1ELi0ELin1ELi1EEEEEKNS_14CwiseNullaryOpINS0_18scalar_constant_opIfEEKNS8_IfLin1ELi1ELi0ELin1ELi1EEEEEEENS0_10IndexBasedESL_ffE4DataC1ERKSK_, symObjAddr: 0x9F14, symBinAddr: 0x10000DB78, symSize: 0x34 }
  - { offsetInCU: 0x4E004, offset: 0x4E004, size: 0x8, addend: 0x0, symName: __ZN5Eigen8internal14evaluator_baseINS_13CwiseBinaryOpINS0_17scalar_product_opIffEEKNS_12CwiseUnaryOpINS0_14scalar_cast_opIifEEKNS_5ArrayIiLin1ELi1ELi0ELin1ELi1EEEEEKNS_14CwiseNullaryOpINS0_18scalar_constant_opIfEEKNS8_IfLin1ELi1ELi0ELin1ELi1EEEEEEEED2Ev, symObjAddr: 0x9F48, symBinAddr: 0x10000DBAC, symSize: 0x14 }
  - { offsetInCU: 0x4E02E, offset: 0x4E02E, size: 0x8, addend: 0x0, symName: __ZN5Eigen8internal16binary_evaluatorINS_13CwiseBinaryOpINS0_17scalar_product_opIffEEKNS_12CwiseUnaryOpINS0_14scalar_cast_opIifEEKNS_5ArrayIiLin1ELi1ELi0ELin1ELi1EEEEEKNS_14CwiseNullaryOpINS0_18scalar_constant_opIfEEKNS8_IfLin1ELi1ELi0ELin1ELi1EEEEEEENS0_10IndexBasedESL_ffE4DataC2ERKSK_, symObjAddr: 0x9F5C, symBinAddr: 0x10000DBC0, symSize: 0xA8 }
  - { offsetInCU: 0x4E067, offset: 0x4E067, size: 0x8, addend: 0x0, symName: __ZNK5Eigen13CwiseBinaryOpINS_8internal17scalar_product_opIffEEKNS_12CwiseUnaryOpINS1_14scalar_cast_opIifEEKNS_5ArrayIiLin1ELi1ELi0ELin1ELi1EEEEEKNS_14CwiseNullaryOpINS1_18scalar_constant_opIfEEKNS7_IfLin1ELi1ELi0ELin1ELi1EEEEEE7functorEv, symObjAddr: 0xA004, symBinAddr: 0x10000DC68, symSize: 0x18 }
  - { offsetInCU: 0x4E08D, offset: 0x4E08D, size: 0x8, addend: 0x0, symName: __ZNK5Eigen13CwiseBinaryOpINS_8internal17scalar_product_opIffEEKNS_12CwiseUnaryOpINS1_14scalar_cast_opIifEEKNS_5ArrayIiLin1ELi1ELi0ELin1ELi1EEEEEKNS_14CwiseNullaryOpINS1_18scalar_constant_opIfEEKNS7_IfLin1ELi1ELi0ELin1ELi1EEEEEE3lhsEv, symObjAddr: 0xA01C, symBinAddr: 0x10000DC80, symSize: 0x18 }
  - { offsetInCU: 0x4E0B3, offset: 0x4E0B3, size: 0x8, addend: 0x0, symName: __ZN5Eigen8internal9evaluatorIKNS_12CwiseUnaryOpINS0_14scalar_cast_opIifEEKNS_5ArrayIiLin1ELi1ELi0ELin1ELi1EEEEEEC1ERS9_, symObjAddr: 0xA034, symBinAddr: 0x10000DC98, symSize: 0x34 }
  - { offsetInCU: 0x4E0EB, offset: 0x4E0EB, size: 0x8, addend: 0x0, symName: __ZNK5Eigen13CwiseBinaryOpINS_8internal17scalar_product_opIffEEKNS_12CwiseUnaryOpINS1_14scalar_cast_opIifEEKNS_5ArrayIiLin1ELi1ELi0ELin1ELi1EEEEEKNS_14CwiseNullaryOpINS1_18scalar_constant_opIfEEKNS7_IfLin1ELi1ELi0ELin1ELi1EEEEEE3rhsEv, symObjAddr: 0xA068, symBinAddr: 0x10000DCCC, symSize: 0x18 }
  - { offsetInCU: 0x4E111, offset: 0x4E111, size: 0x8, addend: 0x0, symName: __ZN5Eigen8internal9evaluatorIKNS_12CwiseUnaryOpINS0_14scalar_cast_opIifEEKNS_5ArrayIiLin1ELi1ELi0ELin1ELi1EEEEEED1Ev, symObjAddr: 0xA080, symBinAddr: 0x10000DCE4, symSize: 0x2C }
  - { offsetInCU: 0x4E13D, offset: 0x4E13D, size: 0x8, addend: 0x0, symName: __ZN5Eigen8internal9evaluatorIKNS_12CwiseUnaryOpINS0_14scalar_cast_opIifEEKNS_5ArrayIiLin1ELi1ELi0ELin1ELi1EEEEEEC2ERS9_, symObjAddr: 0xA0AC, symBinAddr: 0x10000DD10, symSize: 0x34 }
  - { offsetInCU: 0x4E175, offset: 0x4E175, size: 0x8, addend: 0x0, symName: __ZN5Eigen8internal9evaluatorINS_12CwiseUnaryOpINS0_14scalar_cast_opIifEEKNS_5ArrayIiLin1ELi1ELi0ELin1ELi1EEEEEEC2ERKS8_, symObjAddr: 0xA0E0, symBinAddr: 0x10000DD44, symSize: 0x34 }
  - { offsetInCU: 0x4E1AD, offset: 0x4E1AD, size: 0x8, addend: 0x0, symName: __ZN5Eigen8internal15unary_evaluatorINS_12CwiseUnaryOpINS0_14scalar_cast_opIifEEKNS_5ArrayIiLin1ELi1ELi0ELin1ELi1EEEEENS0_10IndexBasedEfEC2ERKS8_, symObjAddr: 0xA114, symBinAddr: 0x10000DD78, symSize: 0x64 }
  - { offsetInCU: 0x4E1E6, offset: 0x4E1E6, size: 0x8, addend: 0x0, symName: __ZN5Eigen8internal14evaluator_baseINS_12CwiseUnaryOpINS0_14scalar_cast_opIifEEKNS_5ArrayIiLin1ELi1ELi0ELin1ELi1EEEEEEC2Ev, symObjAddr: 0xA178, symBinAddr: 0x10000DDDC, symSize: 0x14 }
  - { offsetInCU: 0x4E210, offset: 0x4E210, size: 0x8, addend: 0x0, symName: __ZN5Eigen8internal15unary_evaluatorINS_12CwiseUnaryOpINS0_14scalar_cast_opIifEEKNS_5ArrayIiLin1ELi1ELi0ELin1ELi1EEEEENS0_10IndexBasedEfE4DataC1ERKS8_, symObjAddr: 0xA18C, symBinAddr: 0x10000DDF0, symSize: 0x34 }
  - { offsetInCU: 0x4E249, offset: 0x4E249, size: 0x8, addend: 0x0, symName: __ZN5Eigen8internal14evaluator_baseINS_12CwiseUnaryOpINS0_14scalar_cast_opIifEEKNS_5ArrayIiLin1ELi1ELi0ELin1ELi1EEEEEED2Ev, symObjAddr: 0xA1C0, symBinAddr: 0x10000DE24, symSize: 0x14 }
  - { offsetInCU: 0x4E273, offset: 0x4E273, size: 0x8, addend: 0x0, symName: __ZN5Eigen8internal15unary_evaluatorINS_12CwiseUnaryOpINS0_14scalar_cast_opIifEEKNS_5ArrayIiLin1ELi1ELi0ELin1ELi1EEEEENS0_10IndexBasedEfE4DataC2ERKS8_, symObjAddr: 0xA1D4, symBinAddr: 0x10000DE38, symSize: 0x58 }
  - { offsetInCU: 0x4E2AC, offset: 0x4E2AC, size: 0x8, addend: 0x0, symName: __ZNK5Eigen12CwiseUnaryOpINS_8internal14scalar_cast_opIifEEKNS_5ArrayIiLin1ELi1ELi0ELin1ELi1EEEE7functorEv, symObjAddr: 0xA22C, symBinAddr: 0x10000DE90, symSize: 0x18 }
  - { offsetInCU: 0x4E2D2, offset: 0x4E2D2, size: 0x8, addend: 0x0, symName: __ZNK5Eigen12CwiseUnaryOpINS_8internal14scalar_cast_opIifEEKNS_5ArrayIiLin1ELi1ELi0ELin1ELi1EEEE16nestedExpressionEv, symObjAddr: 0xA244, symBinAddr: 0x10000DEA8, symSize: 0x18 }
  - { offsetInCU: 0x4E2F8, offset: 0x4E2F8, size: 0x8, addend: 0x0, symName: __ZN5Eigen8internal9evaluatorIKNS_5ArrayIiLin1ELi1ELi0ELin1ELi1EEEEC1ERS4_, symObjAddr: 0xA25C, symBinAddr: 0x10000DEC0, symSize: 0x34 }
  - { offsetInCU: 0x4E330, offset: 0x4E330, size: 0x8, addend: 0x0, symName: __ZN5Eigen8internal9evaluatorIKNS_5ArrayIiLin1ELi1ELi0ELin1ELi1EEEEC2ERS4_, symObjAddr: 0xA290, symBinAddr: 0x10000DEF4, symSize: 0x34 }
  - { offsetInCU: 0x4E368, offset: 0x4E368, size: 0x8, addend: 0x0, symName: __ZN5Eigen8internal9evaluatorIKNS_12CwiseUnaryOpINS0_14scalar_cast_opIifEEKNS_5ArrayIiLin1ELi1ELi0ELin1ELi1EEEEEED2Ev, symObjAddr: 0xA2C4, symBinAddr: 0x10000DF28, symSize: 0x2C }
  - { offsetInCU: 0x4E394, offset: 0x4E394, size: 0x8, addend: 0x0, symName: __ZN5Eigen8internal9evaluatorINS_12CwiseUnaryOpINS0_14scalar_cast_opIifEEKNS_5ArrayIiLin1ELi1ELi0ELin1ELi1EEEEEED2Ev, symObjAddr: 0xA2F0, symBinAddr: 0x10000DF54, symSize: 0x2C }
  - { offsetInCU: 0x4E3C0, offset: 0x4E3C0, size: 0x8, addend: 0x0, symName: __ZN5Eigen8internal15unary_evaluatorINS_12CwiseUnaryOpINS0_14scalar_cast_opIifEEKNS_5ArrayIiLin1ELi1ELi0ELin1ELi1EEEEENS0_10IndexBasedEfED2Ev, symObjAddr: 0xA31C, symBinAddr: 0x10000DF80, symSize: 0x34 }
  - { offsetInCU: 0x4E3EC, offset: 0x4E3EC, size: 0x8, addend: 0x0, symName: __ZN5Eigen8internal15unary_evaluatorINS_12CwiseUnaryOpINS0_14scalar_cast_opIifEEKNS_5ArrayIiLin1ELi1ELi0ELin1ELi1EEEEENS0_10IndexBasedEfE4DataD1Ev, symObjAddr: 0xA350, symBinAddr: 0x10000DFB4, symSize: 0x2C }
  - { offsetInCU: 0x4E419, offset: 0x4E419, size: 0x8, addend: 0x0, symName: __ZN5Eigen8internal15unary_evaluatorINS_12CwiseUnaryOpINS0_14scalar_cast_opIifEEKNS_5ArrayIiLin1ELi1ELi0ELin1ELi1EEEEENS0_10IndexBasedEfE4DataD2Ev, symObjAddr: 0xA37C, symBinAddr: 0x10000DFE0, symSize: 0x30 }
  - { offsetInCU: 0x4E446, offset: 0x4E446, size: 0x8, addend: 0x0, symName: __ZN5Eigen8internal9evaluatorIKNS_5ArrayIiLin1ELi1ELi0ELin1ELi1EEEED1Ev, symObjAddr: 0xA3AC, symBinAddr: 0x10000E010, symSize: 0x2C }
  - { offsetInCU: 0x4E472, offset: 0x4E472, size: 0x8, addend: 0x0, symName: __ZN5Eigen8internal9evaluatorIKNS_5ArrayIiLin1ELi1ELi0ELin1ELi1EEEED2Ev, symObjAddr: 0xA3D8, symBinAddr: 0x10000E03C, symSize: 0x2C }
  - { offsetInCU: 0x4E49E, offset: 0x4E49E, size: 0x8, addend: 0x0, symName: __ZN5Eigen8internal9evaluatorIKNS_14CwiseNullaryOpINS0_18scalar_constant_opIfEEKNS_5ArrayIfLin1ELi1ELi0ELin1ELi1EEEEEEC2ERS9_, symObjAddr: 0xA404, symBinAddr: 0x10000E068, symSize: 0x34 }
  - { offsetInCU: 0x4E4D6, offset: 0x4E4D6, size: 0x8, addend: 0x0, symName: __ZN5Eigen8internal9evaluatorINS_14CwiseNullaryOpINS0_18scalar_constant_opIfEEKNS_5ArrayIfLin1ELi1ELi0ELin1ELi1EEEEEEC2ERKS8_, symObjAddr: 0xA438, symBinAddr: 0x10000E09C, symSize: 0x74 }
  - { offsetInCU: 0x4E50F, offset: 0x4E50F, size: 0x8, addend: 0x0, symName: __ZN5Eigen8internal14evaluator_baseINS_14CwiseNullaryOpINS0_18scalar_constant_opIfEEKNS_5ArrayIfLin1ELi1ELi0ELin1ELi1EEEEEEC2Ev, symObjAddr: 0xA4AC, symBinAddr: 0x10000E110, symSize: 0x14 }
  - { offsetInCU: 0x4E539, offset: 0x4E539, size: 0x8, addend: 0x0, symName: __ZNK5Eigen14CwiseNullaryOpINS_8internal18scalar_constant_opIfEEKNS_5ArrayIfLin1ELi1ELi0ELin1ELi1EEEE7functorEv, symObjAddr: 0xA4C0, symBinAddr: 0x10000E124, symSize: 0x18 }
  - { offsetInCU: 0x4E55F, offset: 0x4E55F, size: 0x8, addend: 0x0, symName: __ZN5Eigen8internal14evaluator_baseINS_14CwiseNullaryOpINS0_18scalar_constant_opIfEEKNS_5ArrayIfLin1ELi1ELi0ELin1ELi1EEEEEED2Ev, symObjAddr: 0xA4D8, symBinAddr: 0x10000E13C, symSize: 0x14 }
  - { offsetInCU: 0x4E589, offset: 0x4E589, size: 0x8, addend: 0x0, symName: __ZN5Eigen8internal9evaluatorIKNS_13CwiseBinaryOpINS0_17scalar_product_opIffEEKNS_12CwiseUnaryOpINS0_14scalar_cast_opIifEEKNS_5ArrayIiLin1ELi1ELi0ELin1ELi1EEEEEKNS_14CwiseNullaryOpINS0_18scalar_constant_opIfEEKNS8_IfLin1ELi1ELi0ELin1ELi1EEEEEEEED2Ev, symObjAddr: 0xA4EC, symBinAddr: 0x10000E150, symSize: 0x2C }
  - { offsetInCU: 0x4E5B5, offset: 0x4E5B5, size: 0x8, addend: 0x0, symName: __ZN5Eigen8internal9evaluatorINS_13CwiseBinaryOpINS0_17scalar_product_opIffEEKNS_12CwiseUnaryOpINS0_14scalar_cast_opIifEEKNS_5ArrayIiLin1ELi1ELi0ELin1ELi1EEEEEKNS_14CwiseNullaryOpINS0_18scalar_constant_opIfEEKNS8_IfLin1ELi1ELi0ELin1ELi1EEEEEEEED2Ev, symObjAddr: 0xA518, symBinAddr: 0x10000E17C, symSize: 0x2C }
  - { offsetInCU: 0x4E5E2, offset: 0x4E5E2, size: 0x8, addend: 0x0, symName: __ZN5Eigen8internal16binary_evaluatorINS_13CwiseBinaryOpINS0_17scalar_product_opIffEEKNS_12CwiseUnaryOpINS0_14scalar_cast_opIifEEKNS_5ArrayIiLin1ELi1ELi0ELin1ELi1EEEEEKNS_14CwiseNullaryOpINS0_18scalar_constant_opIfEEKNS8_IfLin1ELi1ELi0ELin1ELi1EEEEEEENS0_10IndexBasedESL_ffED2Ev, symObjAddr: 0xA544, symBinAddr: 0x10000E1A8, symSize: 0x34 }
  - { offsetInCU: 0x4E60E, offset: 0x4E60E, size: 0x8, addend: 0x0, symName: __ZN5Eigen8internal16binary_evaluatorINS_13CwiseBinaryOpINS0_17scalar_product_opIffEEKNS_12CwiseUnaryOpINS0_14scalar_cast_opIifEEKNS_5ArrayIiLin1ELi1ELi0ELin1ELi1EEEEEKNS_14CwiseNullaryOpINS0_18scalar_constant_opIfEEKNS8_IfLin1ELi1ELi0ELin1ELi1EEEEEEENS0_10IndexBasedESL_ffE4DataD1Ev, symObjAddr: 0xA578, symBinAddr: 0x10000E1DC, symSize: 0x2C }
  - { offsetInCU: 0x4E63B, offset: 0x4E63B, size: 0x8, addend: 0x0, symName: __ZN5Eigen8internal16binary_evaluatorINS_13CwiseBinaryOpINS0_17scalar_product_opIffEEKNS_12CwiseUnaryOpINS0_14scalar_cast_opIifEEKNS_5ArrayIiLin1ELi1ELi0ELin1ELi1EEEEEKNS_14CwiseNullaryOpINS0_18scalar_constant_opIfEEKNS8_IfLin1ELi1ELi0ELin1ELi1EEEEEEENS0_10IndexBasedESL_ffE4DataD2Ev, symObjAddr: 0xA5A4, symBinAddr: 0x10000E208, symSize: 0x3C }
  - { offsetInCU: 0x4E668, offset: 0x4E668, size: 0x8, addend: 0x0, symName: __ZN5Eigen8internal9evaluatorIKNS_14CwiseNullaryOpINS0_18scalar_constant_opIfEEKNS_5ArrayIfLin1ELi1ELi0ELin1ELi1EEEEEED1Ev, symObjAddr: 0xA5E0, symBinAddr: 0x10000E244, symSize: 0x2C }
  - { offsetInCU: 0x4E694, offset: 0x4E694, size: 0x8, addend: 0x0, symName: __ZN5Eigen8internal9evaluatorIKNS_14CwiseNullaryOpINS0_18scalar_constant_opIfEEKNS_5ArrayIfLin1ELi1ELi0ELin1ELi1EEEEEED2Ev, symObjAddr: 0xA60C, symBinAddr: 0x10000E270, symSize: 0x2C }
  - { offsetInCU: 0x4E6C0, offset: 0x4E6C0, size: 0x8, addend: 0x0, symName: __ZN5Eigen8internal9evaluatorINS_14CwiseNullaryOpINS0_18scalar_constant_opIfEEKNS_5ArrayIfLin1ELi1ELi0ELin1ELi1EEEEEED2Ev, symObjAddr: 0xA638, symBinAddr: 0x10000E29C, symSize: 0x2C }
  - { offsetInCU: 0x4E6EC, offset: 0x4E6EC, size: 0x8, addend: 0x0, symName: __ZNK5Eigen15PlainObjectBaseINS_5ArrayIfLin1ELi1ELi0ELin1ELi1EEEE4rowsEv, symObjAddr: 0xA664, symBinAddr: 0x10000E2C8, symSize: 0x24 }
  - { offsetInCU: 0x4E712, offset: 0x4E712, size: 0x8, addend: 0x0, symName: __ZNK5Eigen15PlainObjectBaseINS_5ArrayIfLin1ELi1ELi0ELin1ELi1EEEE4colsEv, symObjAddr: 0xA688, symBinAddr: 0x10000E2EC, symSize: 0x30 }
  - { offsetInCU: 0x4E738, offset: 0x4E738, size: 0x8, addend: 0x0, symName: __ZNK5Eigen12DenseStorageIfLin1ELin1ELi1ELi0EE4rowsEv, symObjAddr: 0xA6B8, symBinAddr: 0x10000E31C, symSize: 0x18 }
  - { offsetInCU: 0x4E75E, offset: 0x4E75E, size: 0x8, addend: 0x0, symName: __ZN5Eigen12DenseStorageIfLin1ELin1ELi1ELi0EE4colsEv, symObjAddr: 0xA6D0, symBinAddr: 0x10000E334, symSize: 0x8 }
  - { offsetInCU: 0x4E772, offset: 0x4E772, size: 0x8, addend: 0x0, symName: __ZN5Eigen8internal9evaluatorINS_5ArrayIfLin1ELi1ELi0ELin1ELi1EEEEC2ERKS3_, symObjAddr: 0xA6D8, symBinAddr: 0x10000E33C, symSize: 0x34 }
  - { offsetInCU: 0x4E7AB, offset: 0x4E7AB, size: 0x8, addend: 0x0, symName: __ZN5Eigen8internal9evaluatorINS_15PlainObjectBaseINS_5ArrayIfLin1ELi1ELi0ELin1ELi1EEEEEEC2ERKS5_, symObjAddr: 0xA70C, symBinAddr: 0x10000E370, symSize: 0x78 }
  - { offsetInCU: 0x4E7E3, offset: 0x4E7E3, size: 0x8, addend: 0x0, symName: __ZN5Eigen8internal14evaluator_baseINS_5ArrayIfLin1ELi1ELi0ELin1ELi1EEEEC2Ev, symObjAddr: 0xA784, symBinAddr: 0x10000E3E8, symSize: 0x14 }
  - { offsetInCU: 0x4E80D, offset: 0x4E80D, size: 0x8, addend: 0x0, symName: __ZNK5Eigen15PlainObjectBaseINS_5ArrayIfLin1ELi1ELi0ELin1ELi1EEEE4dataEv, symObjAddr: 0xA798, symBinAddr: 0x10000E3FC, symSize: 0x24 }
  - { offsetInCU: 0x4E833, offset: 0x4E833, size: 0x8, addend: 0x0, symName: __ZN5Eigen8internal30plainobjectbase_evaluator_dataIfLi0EEC1EPKfl, symObjAddr: 0xA7BC, symBinAddr: 0x10000E420, symSize: 0x3C }
  - { offsetInCU: 0x4E879, offset: 0x4E879, size: 0x8, addend: 0x0, symName: __ZN5Eigen8internal14evaluator_baseINS_5ArrayIfLin1ELi1ELi0ELin1ELi1EEEED2Ev, symObjAddr: 0xA7F8, symBinAddr: 0x10000E45C, symSize: 0x14 }
  - { offsetInCU: 0x4E8A3, offset: 0x4E8A3, size: 0x8, addend: 0x0, symName: __ZNK5Eigen12DenseStorageIfLin1ELin1ELi1ELi0EE4dataEv, symObjAddr: 0xA80C, symBinAddr: 0x10000E470, symSize: 0x18 }
  - { offsetInCU: 0x4E8C9, offset: 0x4E8C9, size: 0x8, addend: 0x0, symName: __ZN5Eigen8internal30plainobjectbase_evaluator_dataIfLi0EEC2EPKfl, symObjAddr: 0xA824, symBinAddr: 0x10000E488, symSize: 0x40 }
  - { offsetInCU: 0x4E90F, offset: 0x4E90F, size: 0x8, addend: 0x0, symName: __ZN5Eigen8internal31generic_dense_assignment_kernelINS0_9evaluatorINS_5ArrayIfLin1ELi1ELi0ELin1ELi1EEEEENS2_INS_13CwiseBinaryOpINS0_18scalar_quotient_opIffEEKNS6_INS0_17scalar_product_opIffEEKNS_12CwiseUnaryOpINS0_14scalar_cast_opIifEEKNS3_IiLin1ELi1ELi0ELin1ELi1EEEEEKNS_14CwiseNullaryOpINS0_18scalar_constant_opIfEEKS4_EEEESN_EEEENS0_9assign_opIffEELi0EEC2ERS5_RKSR_RKST_RS4_, symObjAddr: 0xA864, symBinAddr: 0x10000E4C8, symSize: 0x44 }
  - { offsetInCU: 0x4E975, offset: 0x4E975, size: 0x8, addend: 0x0, symName: __ZNK5Eigen8internal31generic_dense_assignment_kernelINS0_9evaluatorINS_5ArrayIfLin1ELi1ELi0ELin1ELi1EEEEENS2_INS_13CwiseBinaryOpINS0_18scalar_quotient_opIffEEKNS6_INS0_17scalar_product_opIffEEKNS_12CwiseUnaryOpINS0_14scalar_cast_opIifEEKNS3_IiLin1ELi1ELi0ELin1ELi1EEEEEKNS_14CwiseNullaryOpINS0_18scalar_constant_opIfEEKS4_EEEESN_EEEENS0_9assign_opIffEELi0EE4sizeEv, symObjAddr: 0xA8A8, symBinAddr: 0x10000E50C, symSize: 0x28 }
  - { offsetInCU: 0x4E99B, offset: 0x4E99B, size: 0x8, addend: 0x0, symName: __ZN5Eigen8internal31generic_dense_assignment_kernelINS0_9evaluatorINS_5ArrayIfLin1ELi1ELi0ELin1ELi1EEEEENS2_INS_13CwiseBinaryOpINS0_18scalar_quotient_opIffEEKNS6_INS0_17scalar_product_opIffEEKNS_12CwiseUnaryOpINS0_14scalar_cast_opIifEEKNS3_IiLin1ELi1ELi0ELin1ELi1EEEEEKNS_14CwiseNullaryOpINS0_18scalar_constant_opIfEEKS4_EEEESN_EEEENS0_9assign_opIffEELi0EE11assignCoeffEl, symObjAddr: 0xA8D0, symBinAddr: 0x10000E534, symSize: 0x64 }
  - { offsetInCU: 0x4E9D0, offset: 0x4E9D0, size: 0x8, addend: 0x0, symName: __ZNK5Eigen9EigenBaseINS_5ArrayIfLin1ELi1ELi0ELin1ELi1EEEE4sizeEv, symObjAddr: 0xA934, symBinAddr: 0x10000E598, symSize: 0x44 }
  - { offsetInCU: 0x4E9F6, offset: 0x4E9F6, size: 0x8, addend: 0x0, symName: __ZNK5Eigen9EigenBaseINS_5ArrayIfLin1ELi1ELi0ELin1ELi1EEEE4rowsEv, symObjAddr: 0xA978, symBinAddr: 0x10000E5DC, symSize: 0x38 }
  - { offsetInCU: 0x4EA1C, offset: 0x4EA1C, size: 0x8, addend: 0x0, symName: __ZNK5Eigen9EigenBaseINS_5ArrayIfLin1ELi1ELi0ELin1ELi1EEEE4colsEv, symObjAddr: 0xA9B0, symBinAddr: 0x10000E614, symSize: 0x28 }
  - { offsetInCU: 0x4EA42, offset: 0x4EA42, size: 0x8, addend: 0x0, symName: __ZNK5Eigen9EigenBaseINS_5ArrayIfLin1ELi1ELi0ELin1ELi1EEEE7derivedEv, symObjAddr: 0xA9D8, symBinAddr: 0x10000E63C, symSize: 0x14 }
  - { offsetInCU: 0x4EA68, offset: 0x4EA68, size: 0x8, addend: 0x0, symName: __ZNK5Eigen8internal9assign_opIffE11assignCoeffERfRKf, symObjAddr: 0xA9EC, symBinAddr: 0x10000E650, symSize: 0x28 }
  - { offsetInCU: 0x4EAAA, offset: 0x4EAAA, size: 0x8, addend: 0x0, symName: __ZN5Eigen8internal9evaluatorINS_15PlainObjectBaseINS_5ArrayIfLin1ELi1ELi0ELin1ELi1EEEEEE8coeffRefEl, symObjAddr: 0xAA14, symBinAddr: 0x10000E678, symSize: 0x24 }
  - { offsetInCU: 0x4EADE, offset: 0x4EADE, size: 0x8, addend: 0x0, symName: __ZNK5Eigen8internal16binary_evaluatorINS_13CwiseBinaryOpINS0_18scalar_quotient_opIffEEKNS2_INS0_17scalar_product_opIffEEKNS_12CwiseUnaryOpINS0_14scalar_cast_opIifEEKNS_5ArrayIiLin1ELi1ELi0ELin1ELi1EEEEEKNS_14CwiseNullaryOpINS0_18scalar_constant_opIfEEKNSA_IfLin1ELi1ELi0ELin1ELi1EEEEEEESL_EENS0_10IndexBasedESP_ffE5coeffEl, symObjAddr: 0xAA38, symBinAddr: 0x10000E69C, symSize: 0x70 }
  - { offsetInCU: 0x4EB13, offset: 0x4EB13, size: 0x8, addend: 0x0, symName: __ZNK5Eigen8internal16binary_evaluatorINS_13CwiseBinaryOpINS0_18scalar_quotient_opIffEEKNS2_INS0_17scalar_product_opIffEEKNS_12CwiseUnaryOpINS0_14scalar_cast_opIifEEKNS_5ArrayIiLin1ELi1ELi0ELin1ELi1EEEEEKNS_14CwiseNullaryOpINS0_18scalar_constant_opIfEEKNSA_IfLin1ELi1ELi0ELin1ELi1EEEEEEESL_EENS0_10IndexBasedESP_ffE4Data4funcEv, symObjAddr: 0xAAA8, symBinAddr: 0x10000E70C, symSize: 0x14 }
  - { offsetInCU: 0x4EB39, offset: 0x4EB39, size: 0x8, addend: 0x0, symName: __ZNK5Eigen8internal18scalar_quotient_opIffEclERKfS4_, symObjAddr: 0xAABC, symBinAddr: 0x10000E720, symSize: 0x2C }
  - { offsetInCU: 0x4EB7D, offset: 0x4EB7D, size: 0x8, addend: 0x0, symName: __ZNK5Eigen8internal16binary_evaluatorINS_13CwiseBinaryOpINS0_17scalar_product_opIffEEKNS_12CwiseUnaryOpINS0_14scalar_cast_opIifEEKNS_5ArrayIiLin1ELi1ELi0ELin1ELi1EEEEEKNS_14CwiseNullaryOpINS0_18scalar_constant_opIfEEKNS8_IfLin1ELi1ELi0ELin1ELi1EEEEEEENS0_10IndexBasedESL_ffE5coeffEl, symObjAddr: 0xAAE8, symBinAddr: 0x10000E74C, symSize: 0x70 }
  - { offsetInCU: 0x4EBBC, offset: 0x4EBBC, size: 0x8, addend: 0x0, symName: __ZNK5Eigen8internal9evaluatorINS_14CwiseNullaryOpINS0_18scalar_constant_opIfEEKNS_5ArrayIfLin1ELi1ELi0ELin1ELi1EEEEEE5coeffIlEEfT_, symObjAddr: 0xAB58, symBinAddr: 0x10000E7BC, symSize: 0x38 }
  - { offsetInCU: 0x4EBFA, offset: 0x4EBFA, size: 0x8, addend: 0x0, symName: __ZNK5Eigen8internal16binary_evaluatorINS_13CwiseBinaryOpINS0_17scalar_product_opIffEEKNS_12CwiseUnaryOpINS0_14scalar_cast_opIifEEKNS_5ArrayIiLin1ELi1ELi0ELin1ELi1EEEEEKNS_14CwiseNullaryOpINS0_18scalar_constant_opIfEEKNS8_IfLin1ELi1ELi0ELin1ELi1EEEEEEENS0_10IndexBasedESL_ffE4Data4funcEv, symObjAddr: 0xAB90, symBinAddr: 0x10000E7F4, symSize: 0x14 }
  - { offsetInCU: 0x4EC20, offset: 0x4EC20, size: 0x8, addend: 0x0, symName: __ZNK5Eigen8internal17scalar_product_opIffEclERKfS4_, symObjAddr: 0xABA4, symBinAddr: 0x10000E808, symSize: 0x2C }
  - { offsetInCU: 0x4EC62, offset: 0x4EC62, size: 0x8, addend: 0x0, symName: __ZNK5Eigen8internal15unary_evaluatorINS_12CwiseUnaryOpINS0_14scalar_cast_opIifEEKNS_5ArrayIiLin1ELi1ELi0ELin1ELi1EEEEENS0_10IndexBasedEfE5coeffEl, symObjAddr: 0xABD0, symBinAddr: 0x10000E834, symSize: 0x4C }
  - { offsetInCU: 0x4EC97, offset: 0x4EC97, size: 0x8, addend: 0x0, symName: __ZNK5Eigen8internal15unary_evaluatorINS_12CwiseUnaryOpINS0_14scalar_cast_opIifEEKNS_5ArrayIiLin1ELi1ELi0ELin1ELi1EEEEENS0_10IndexBasedEfE4Data4funcEv, symObjAddr: 0xAC1C, symBinAddr: 0x10000E880, symSize: 0x14 }
  - { offsetInCU: 0x4ECBD, offset: 0x4ECBD, size: 0x8, addend: 0x0, symName: __ZNK5Eigen8internal14scalar_cast_opIifEclERKi, symObjAddr: 0xAC30, symBinAddr: 0x10000E894, symSize: 0x28 }
  - { offsetInCU: 0x4ECF1, offset: 0x4ECF1, size: 0x8, addend: 0x0, symName: __ZN5Eigen8internal9cast_implIifvE3runERKi, symObjAddr: 0xAC7C, symBinAddr: 0x10000E8E0, symSize: 0x1C }
  - { offsetInCU: 0x4ED1A, offset: 0x4ED1A, size: 0x8, addend: 0x0, symName: __ZNK5Eigen8internal15nullary_wrapperIfNS0_18scalar_constant_opIfEELb1ELb0ELb0EEclIlEEfRKS3_T_S8_, symObjAddr: 0xAC98, symBinAddr: 0x10000E8FC, symSize: 0x30 }
  - { offsetInCU: 0x4ED6E, offset: 0x4ED6E, size: 0x8, addend: 0x0, symName: __ZNK5Eigen8internal18scalar_constant_opIfEclEv, symObjAddr: 0xACC8, symBinAddr: 0x10000E92C, symSize: 0x18 }
  - { offsetInCU: 0x4ED94, offset: 0x4ED94, size: 0x8, addend: 0x0, symName: __ZN5Eigen8internal9evaluatorINS_5ArrayIfLin1ELi1ELi0ELin1ELi1EEEED2Ev, symObjAddr: 0xACE0, symBinAddr: 0x10000E944, symSize: 0x2C }
  - { offsetInCU: 0x4EDC1, offset: 0x4EDC1, size: 0x8, addend: 0x0, symName: __ZN5Eigen8internal9evaluatorINS_15PlainObjectBaseINS_5ArrayIfLin1ELi1ELi0ELin1ELi1EEEEEED2Ev, symObjAddr: 0xAD0C, symBinAddr: 0x10000E970, symSize: 0x2C }
  - { offsetInCU: 0x4EDED, offset: 0x4EDED, size: 0x8, addend: 0x0, symName: __ZN5Eigen8internal9evaluatorINS_13CwiseBinaryOpINS0_18scalar_quotient_opIffEEKNS2_INS0_17scalar_product_opIffEEKNS_12CwiseUnaryOpINS0_14scalar_cast_opIifEEKNS_5ArrayIiLin1ELi1ELi0ELin1ELi1EEEEEKNS_14CwiseNullaryOpINS0_18scalar_constant_opIfEEKNSA_IfLin1ELi1ELi0ELin1ELi1EEEEEEESL_EEED2Ev, symObjAddr: 0xAD38, symBinAddr: 0x10000E99C, symSize: 0x2C }
  - { offsetInCU: 0x4EE1A, offset: 0x4EE1A, size: 0x8, addend: 0x0, symName: __ZN5Eigen8internal16binary_evaluatorINS_13CwiseBinaryOpINS0_18scalar_quotient_opIffEEKNS2_INS0_17scalar_product_opIffEEKNS_12CwiseUnaryOpINS0_14scalar_cast_opIifEEKNS_5ArrayIiLin1ELi1ELi0ELin1ELi1EEEEEKNS_14CwiseNullaryOpINS0_18scalar_constant_opIfEEKNSA_IfLin1ELi1ELi0ELin1ELi1EEEEEEESL_EENS0_10IndexBasedESP_ffED2Ev, symObjAddr: 0xAD64, symBinAddr: 0x10000E9C8, symSize: 0x34 }
  - { offsetInCU: 0x4EE46, offset: 0x4EE46, size: 0x8, addend: 0x0, symName: __ZN5Eigen8internal16binary_evaluatorINS_13CwiseBinaryOpINS0_18scalar_quotient_opIffEEKNS2_INS0_17scalar_product_opIffEEKNS_12CwiseUnaryOpINS0_14scalar_cast_opIifEEKNS_5ArrayIiLin1ELi1ELi0ELin1ELi1EEEEEKNS_14CwiseNullaryOpINS0_18scalar_constant_opIfEEKNSA_IfLin1ELi1ELi0ELin1ELi1EEEEEEESL_EENS0_10IndexBasedESP_ffE4DataD1Ev, symObjAddr: 0xAD98, symBinAddr: 0x10000E9FC, symSize: 0x2C }
  - { offsetInCU: 0x4EE73, offset: 0x4EE73, size: 0x8, addend: 0x0, symName: __ZN5Eigen8internal16binary_evaluatorINS_13CwiseBinaryOpINS0_18scalar_quotient_opIffEEKNS2_INS0_17scalar_product_opIffEEKNS_12CwiseUnaryOpINS0_14scalar_cast_opIifEEKNS_5ArrayIiLin1ELi1ELi0ELin1ELi1EEEEEKNS_14CwiseNullaryOpINS0_18scalar_constant_opIfEEKNSA_IfLin1ELi1ELi0ELin1ELi1EEEEEEESL_EENS0_10IndexBasedESP_ffE4DataD2Ev, symObjAddr: 0xADC4, symBinAddr: 0x10000EA28, symSize: 0x3C }
  - { offsetInCU: 0x4EEA0, offset: 0x4EEA0, size: 0x8, addend: 0x0, symName: __ZN5Eigen8internal9assign_opIffEC2Ev, symObjAddr: 0xAE00, symBinAddr: 0x10000EA64, symSize: 0x14 }
  - { offsetInCU: 0x4EECA, offset: 0x4EECA, size: 0x8, addend: 0x0, symName: __ZN5Eigen8internal14scalar_cast_opIfiEC1Ev, symObjAddr: 0xAE14, symBinAddr: 0x10000EA78, symSize: 0x2C }
  - { offsetInCU: 0x4EEF4, offset: 0x4EEF4, size: 0x8, addend: 0x0, symName: __ZN5Eigen12CwiseUnaryOpINS_8internal14scalar_cast_opIfiEEKNS_5ArrayIfLin1ELi1ELi0ELin1ELi1EEEEC1ERS6_RKS3_, symObjAddr: 0xAE40, symBinAddr: 0x10000EAA4, symSize: 0x3C }
  - { offsetInCU: 0x4EF3A, offset: 0x4EF3A, size: 0x8, addend: 0x0, symName: __ZN5Eigen8internal14scalar_cast_opIfiEC2Ev, symObjAddr: 0xAE7C, symBinAddr: 0x10000EAE0, symSize: 0x14 }
  - { offsetInCU: 0x4EF64, offset: 0x4EF64, size: 0x8, addend: 0x0, symName: __ZN5Eigen12CwiseUnaryOpINS_8internal14scalar_cast_opIfiEEKNS_5ArrayIfLin1ELi1ELi0ELin1ELi1EEEEC2ERS6_RKS3_, symObjAddr: 0xAE90, symBinAddr: 0x10000EAF4, symSize: 0x4C }
  - { offsetInCU: 0x4EFAF, offset: 0x4EFAF, size: 0x8, addend: 0x0, symName: __ZN5Eigen16CwiseUnaryOpImplINS_8internal14scalar_cast_opIfiEEKNS_5ArrayIfLin1ELi1ELi0ELin1ELi1EEENS_5DenseEEC2Ev, symObjAddr: 0xAEDC, symBinAddr: 0x10000EB40, symSize: 0x2C }
  - { offsetInCU: 0x4EFDB, offset: 0x4EFDB, size: 0x8, addend: 0x0, symName: __ZN5Eigen8internal14scalar_cast_opIfiEC1ERKS2_, symObjAddr: 0xAF08, symBinAddr: 0x10000EB6C, symSize: 0x34 }
  - { offsetInCU: 0x4F010, offset: 0x4F010, size: 0x8, addend: 0x0, symName: __ZN5Eigen9ArrayBaseINS_12CwiseUnaryOpINS_8internal14scalar_cast_opIfiEEKNS_5ArrayIfLin1ELi1ELi0ELin1ELi1EEEEEEC2Ev, symObjAddr: 0xAF3C, symBinAddr: 0x10000EBA0, symSize: 0x2C }
  - { offsetInCU: 0x4F03A, offset: 0x4F03A, size: 0x8, addend: 0x0, symName: __ZN5Eigen9DenseBaseINS_12CwiseUnaryOpINS_8internal14scalar_cast_opIfiEEKNS_5ArrayIfLin1ELi1ELi0ELin1ELi1EEEEEEC2Ev, symObjAddr: 0xAF68, symBinAddr: 0x10000EBCC, symSize: 0x14 }
  - { offsetInCU: 0x4F064, offset: 0x4F064, size: 0x8, addend: 0x0, symName: __ZN5Eigen8internal14scalar_cast_opIfiEC2ERKS2_, symObjAddr: 0xAF7C, symBinAddr: 0x10000EBE0, symSize: 0x18 }
  - { offsetInCU: 0x4F099, offset: 0x4F099, size: 0x8, addend: 0x0, symName: __ZN5Eigen5ArrayIiLin1ELi1ELi0ELin1ELi1EEC2INS_12CwiseUnaryOpINS_8internal14scalar_cast_opIfiEEKNS0_IfLin1ELi1ELi0ELin1ELi1EEEEEEERKNS_9EigenBaseIT_EENS4_9enable_ifIXsr8internal14is_convertibleINSB_6ScalarEiEE5valueENS1_11PrivateTypeEE4typeE, symObjAddr: 0xAF94, symBinAddr: 0x10000EBF8, symSize: 0x40 }
  - { offsetInCU: 0x4F0E6, offset: 0x4F0E6, size: 0x8, addend: 0x0, symName: __ZNK5Eigen9EigenBaseINS_12CwiseUnaryOpINS_8internal14scalar_cast_opIfiEEKNS_5ArrayIfLin1ELi1ELi0ELin1ELi1EEEEEE7derivedEv, symObjAddr: 0xAFD4, symBinAddr: 0x10000EC38, symSize: 0x14 }
  - { offsetInCU: 0x4F10C, offset: 0x4F10C, size: 0x8, addend: 0x0, symName: __ZN5Eigen15PlainObjectBaseINS_5ArrayIiLin1ELi1ELi0ELin1ELi1EEEEC2INS_12CwiseUnaryOpINS_8internal14scalar_cast_opIfiEEKNS1_IfLin1ELi1ELi0ELin1ELi1EEEEEEERKNS_9DenseBaseIT_EE, symObjAddr: 0xAFE8, symBinAddr: 0x10000EC4C, symSize: 0x80 }
  - { offsetInCU: 0x4F14E, offset: 0x4F14E, size: 0x8, addend: 0x0, symName: __ZN5Eigen15PlainObjectBaseINS_5ArrayIiLin1ELi1ELi0ELin1ELi1EEEE10resizeLikeINS_12CwiseUnaryOpINS_8internal14scalar_cast_opIfiEEKNS1_IfLin1ELi1ELi0ELin1ELi1EEEEEEEvRKNS_9EigenBaseIT_EE, symObjAddr: 0xB068, symBinAddr: 0x10000ECCC, symSize: 0x170 }
  - { offsetInCU: 0x4F1E2, offset: 0x4F1E2, size: 0x8, addend: 0x0, symName: __ZN5Eigen15PlainObjectBaseINS_5ArrayIiLin1ELi1ELi0ELin1ELi1EEEE12_set_noaliasINS_12CwiseUnaryOpINS_8internal14scalar_cast_opIfiEEKNS1_IfLin1ELi1ELi0ELin1ELi1EEEEEEERS2_RKNS_9DenseBaseIT_EE, symObjAddr: 0xB1D8, symBinAddr: 0x10000EE3C, symSize: 0x60 }
  - { offsetInCU: 0x4F220, offset: 0x4F220, size: 0x8, addend: 0x0, symName: __ZNK5Eigen12CwiseUnaryOpINS_8internal14scalar_cast_opIfiEEKNS_5ArrayIfLin1ELi1ELi0ELin1ELi1EEEE4rowsEv, symObjAddr: 0xB238, symBinAddr: 0x10000EE9C, symSize: 0x28 }
  - { offsetInCU: 0x4F246, offset: 0x4F246, size: 0x8, addend: 0x0, symName: __ZNK5Eigen12CwiseUnaryOpINS_8internal14scalar_cast_opIfiEEKNS_5ArrayIfLin1ELi1ELi0ELin1ELi1EEEE4colsEv, symObjAddr: 0xB260, symBinAddr: 0x10000EEC4, symSize: 0x28 }
  - { offsetInCU: 0x4F26C, offset: 0x4F26C, size: 0x8, addend: 0x0, symName: __ZN5Eigen8internal10AssignmentINS_5ArrayIiLin1ELi1ELi0ELin1ELi1EEENS_12CwiseUnaryOpINS0_14scalar_cast_opIfiEEKNS2_IfLin1ELi1ELi0ELin1ELi1EEEEENS0_9assign_opIiiEENS0_11Dense2DenseEvE3runERS3_RKS9_RKSB_, symObjAddr: 0xB2C4, symBinAddr: 0x10000EF28, symSize: 0x40 }
  - { offsetInCU: 0x4F2EF, offset: 0x4F2EF, size: 0x8, addend: 0x0, symName: __ZN5Eigen8internal9evaluatorINS_12CwiseUnaryOpINS0_14scalar_cast_opIfiEEKNS_5ArrayIfLin1ELi1ELi0ELin1ELi1EEEEEEC1ERKS8_, symObjAddr: 0xB3F0, symBinAddr: 0x10000F054, symSize: 0x34 }
  - { offsetInCU: 0x4F354, offset: 0x4F354, size: 0x8, addend: 0x0, symName: __ZN5Eigen8internal31generic_dense_assignment_kernelINS0_9evaluatorINS_5ArrayIiLin1ELi1ELi0ELin1ELi1EEEEENS2_INS_12CwiseUnaryOpINS0_14scalar_cast_opIfiEEKNS3_IfLin1ELi1ELi0ELin1ELi1EEEEEEENS0_9assign_opIiiEELi0EEC1ERS5_RKSC_RKSE_RS4_, symObjAddr: 0xB51C, symBinAddr: 0x10000F180, symSize: 0x4C }
  - { offsetInCU: 0x4F3BF, offset: 0x4F3BF, size: 0x8, addend: 0x0, symName: __ZN5Eigen8internal21dense_assignment_loopINS0_31generic_dense_assignment_kernelINS0_9evaluatorINS_5ArrayIiLin1ELi1ELi0ELin1ELi1EEEEENS3_INS_12CwiseUnaryOpINS0_14scalar_cast_opIfiEEKNS4_IfLin1ELi1ELi0ELin1ELi1EEEEEEENS0_9assign_opIiiEELi0EEELi1ELi0EE3runERSG_, symObjAddr: 0xB568, symBinAddr: 0x10000F1CC, symSize: 0x68 }
  - { offsetInCU: 0x4F40F, offset: 0x4F40F, size: 0x8, addend: 0x0, symName: __ZN5Eigen8internal9evaluatorINS_12CwiseUnaryOpINS0_14scalar_cast_opIfiEEKNS_5ArrayIfLin1ELi1ELi0ELin1ELi1EEEEEED1Ev, symObjAddr: 0xB5D0, symBinAddr: 0x10000F234, symSize: 0x2C }
  - { offsetInCU: 0x4F43B, offset: 0x4F43B, size: 0x8, addend: 0x0, symName: __ZN5Eigen8internal9evaluatorINS_12CwiseUnaryOpINS0_14scalar_cast_opIfiEEKNS_5ArrayIfLin1ELi1ELi0ELin1ELi1EEEEEEC2ERKS8_, symObjAddr: 0xB5FC, symBinAddr: 0x10000F260, symSize: 0x34 }
  - { offsetInCU: 0x4F473, offset: 0x4F473, size: 0x8, addend: 0x0, symName: __ZN5Eigen8internal15unary_evaluatorINS_12CwiseUnaryOpINS0_14scalar_cast_opIfiEEKNS_5ArrayIfLin1ELi1ELi0ELin1ELi1EEEEENS0_10IndexBasedEiEC2ERKS8_, symObjAddr: 0xB630, symBinAddr: 0x10000F294, symSize: 0x64 }
  - { offsetInCU: 0x4F4AC, offset: 0x4F4AC, size: 0x8, addend: 0x0, symName: __ZN5Eigen8internal14evaluator_baseINS_12CwiseUnaryOpINS0_14scalar_cast_opIfiEEKNS_5ArrayIfLin1ELi1ELi0ELin1ELi1EEEEEEC2Ev, symObjAddr: 0xB694, symBinAddr: 0x10000F2F8, symSize: 0x14 }
  - { offsetInCU: 0x4F4D6, offset: 0x4F4D6, size: 0x8, addend: 0x0, symName: __ZN5Eigen8internal15unary_evaluatorINS_12CwiseUnaryOpINS0_14scalar_cast_opIfiEEKNS_5ArrayIfLin1ELi1ELi0ELin1ELi1EEEEENS0_10IndexBasedEiE4DataC1ERKS8_, symObjAddr: 0xB6A8, symBinAddr: 0x10000F30C, symSize: 0x34 }
  - { offsetInCU: 0x4F50F, offset: 0x4F50F, size: 0x8, addend: 0x0, symName: __ZN5Eigen8internal14evaluator_baseINS_12CwiseUnaryOpINS0_14scalar_cast_opIfiEEKNS_5ArrayIfLin1ELi1ELi0ELin1ELi1EEEEEED2Ev, symObjAddr: 0xB6DC, symBinAddr: 0x10000F340, symSize: 0x14 }
  - { offsetInCU: 0x4F539, offset: 0x4F539, size: 0x8, addend: 0x0, symName: __ZN5Eigen8internal15unary_evaluatorINS_12CwiseUnaryOpINS0_14scalar_cast_opIfiEEKNS_5ArrayIfLin1ELi1ELi0ELin1ELi1EEEEENS0_10IndexBasedEiE4DataC2ERKS8_, symObjAddr: 0xB6F0, symBinAddr: 0x10000F354, symSize: 0x58 }
  - { offsetInCU: 0x4F572, offset: 0x4F572, size: 0x8, addend: 0x0, symName: __ZNK5Eigen12CwiseUnaryOpINS_8internal14scalar_cast_opIfiEEKNS_5ArrayIfLin1ELi1ELi0ELin1ELi1EEEE7functorEv, symObjAddr: 0xB748, symBinAddr: 0x10000F3AC, symSize: 0x18 }
  - { offsetInCU: 0x4F598, offset: 0x4F598, size: 0x8, addend: 0x0, symName: __ZNK5Eigen12CwiseUnaryOpINS_8internal14scalar_cast_opIfiEEKNS_5ArrayIfLin1ELi1ELi0ELin1ELi1EEEE16nestedExpressionEv, symObjAddr: 0xB760, symBinAddr: 0x10000F3C4, symSize: 0x18 }
  - { offsetInCU: 0x4F5BE, offset: 0x4F5BE, size: 0x8, addend: 0x0, symName: __ZN5Eigen8internal9evaluatorIKNS_5ArrayIfLin1ELi1ELi0ELin1ELi1EEEEC1ERS4_, symObjAddr: 0xB778, symBinAddr: 0x10000F3DC, symSize: 0x34 }
  - { offsetInCU: 0x4F5F6, offset: 0x4F5F6, size: 0x8, addend: 0x0, symName: __ZN5Eigen8internal9evaluatorIKNS_5ArrayIfLin1ELi1ELi0ELin1ELi1EEEEC2ERS4_, symObjAddr: 0xB7AC, symBinAddr: 0x10000F410, symSize: 0x34 }
  - { offsetInCU: 0x4F62E, offset: 0x4F62E, size: 0x8, addend: 0x0, symName: __ZN5Eigen8internal31generic_dense_assignment_kernelINS0_9evaluatorINS_5ArrayIiLin1ELi1ELi0ELin1ELi1EEEEENS2_INS_12CwiseUnaryOpINS0_14scalar_cast_opIfiEEKNS3_IfLin1ELi1ELi0ELin1ELi1EEEEEEENS0_9assign_opIiiEELi0EEC2ERS5_RKSC_RKSE_RS4_, symObjAddr: 0xB7E0, symBinAddr: 0x10000F444, symSize: 0x44 }
  - { offsetInCU: 0x4F694, offset: 0x4F694, size: 0x8, addend: 0x0, symName: __ZNK5Eigen8internal31generic_dense_assignment_kernelINS0_9evaluatorINS_5ArrayIiLin1ELi1ELi0ELin1ELi1EEEEENS2_INS_12CwiseUnaryOpINS0_14scalar_cast_opIfiEEKNS3_IfLin1ELi1ELi0ELin1ELi1EEEEEEENS0_9assign_opIiiEELi0EE4sizeEv, symObjAddr: 0xB824, symBinAddr: 0x10000F488, symSize: 0x28 }
  - { offsetInCU: 0x4F6BA, offset: 0x4F6BA, size: 0x8, addend: 0x0, symName: __ZN5Eigen8internal31generic_dense_assignment_kernelINS0_9evaluatorINS_5ArrayIiLin1ELi1ELi0ELin1ELi1EEEEENS2_INS_12CwiseUnaryOpINS0_14scalar_cast_opIfiEEKNS3_IfLin1ELi1ELi0ELin1ELi1EEEEEEENS0_9assign_opIiiEELi0EE11assignCoeffEl, symObjAddr: 0xB84C, symBinAddr: 0x10000F4B0, symSize: 0x68 }
  - { offsetInCU: 0x4F6EF, offset: 0x4F6EF, size: 0x8, addend: 0x0, symName: __ZNK5Eigen8internal15unary_evaluatorINS_12CwiseUnaryOpINS0_14scalar_cast_opIfiEEKNS_5ArrayIfLin1ELi1ELi0ELin1ELi1EEEEENS0_10IndexBasedEiE5coeffEl, symObjAddr: 0xB8B4, symBinAddr: 0x10000F518, symSize: 0x4C }
  - { offsetInCU: 0x4F724, offset: 0x4F724, size: 0x8, addend: 0x0, symName: __ZNK5Eigen8internal15unary_evaluatorINS_12CwiseUnaryOpINS0_14scalar_cast_opIfiEEKNS_5ArrayIfLin1ELi1ELi0ELin1ELi1EEEEENS0_10IndexBasedEiE4Data4funcEv, symObjAddr: 0xB900, symBinAddr: 0x10000F564, symSize: 0x14 }
  - { offsetInCU: 0x4F74A, offset: 0x4F74A, size: 0x8, addend: 0x0, symName: __ZNK5Eigen8internal14scalar_cast_opIfiEclERKf, symObjAddr: 0xB914, symBinAddr: 0x10000F578, symSize: 0x28 }
  - { offsetInCU: 0x4F77E, offset: 0x4F77E, size: 0x8, addend: 0x0, symName: __ZNK5Eigen8internal9evaluatorINS_15PlainObjectBaseINS_5ArrayIfLin1ELi1ELi0ELin1ELi1EEEEEE5coeffEl, symObjAddr: 0xB93C, symBinAddr: 0x10000F5A0, symSize: 0x24 }
  - { offsetInCU: 0x4F7B2, offset: 0x4F7B2, size: 0x8, addend: 0x0, symName: __ZN5Eigen8internal9cast_implIfivE3runERKf, symObjAddr: 0xB984, symBinAddr: 0x10000F5E8, symSize: 0x1C }
  - { offsetInCU: 0x4F7D6, offset: 0x4F7D6, size: 0x8, addend: 0x0, symName: __ZN5Eigen8internal9evaluatorINS_12CwiseUnaryOpINS0_14scalar_cast_opIfiEEKNS_5ArrayIfLin1ELi1ELi0ELin1ELi1EEEEEED2Ev, symObjAddr: 0xB9A0, symBinAddr: 0x10000F604, symSize: 0x2C }
  - { offsetInCU: 0x4F802, offset: 0x4F802, size: 0x8, addend: 0x0, symName: __ZN5Eigen8internal15unary_evaluatorINS_12CwiseUnaryOpINS0_14scalar_cast_opIfiEEKNS_5ArrayIfLin1ELi1ELi0ELin1ELi1EEEEENS0_10IndexBasedEiED2Ev, symObjAddr: 0xB9CC, symBinAddr: 0x10000F630, symSize: 0x34 }
  - { offsetInCU: 0x4F82E, offset: 0x4F82E, size: 0x8, addend: 0x0, symName: __ZN5Eigen8internal15unary_evaluatorINS_12CwiseUnaryOpINS0_14scalar_cast_opIfiEEKNS_5ArrayIfLin1ELi1ELi0ELin1ELi1EEEEENS0_10IndexBasedEiE4DataD1Ev, symObjAddr: 0xBA00, symBinAddr: 0x10000F664, symSize: 0x2C }
  - { offsetInCU: 0x4F85B, offset: 0x4F85B, size: 0x8, addend: 0x0, symName: __ZN5Eigen8internal15unary_evaluatorINS_12CwiseUnaryOpINS0_14scalar_cast_opIfiEEKNS_5ArrayIfLin1ELi1ELi0ELin1ELi1EEEEENS0_10IndexBasedEiE4DataD2Ev, symObjAddr: 0xBA2C, symBinAddr: 0x10000F690, symSize: 0x30 }
  - { offsetInCU: 0x4F888, offset: 0x4F888, size: 0x8, addend: 0x0, symName: __ZN5Eigen8internal9evaluatorIKNS_5ArrayIfLin1ELi1ELi0ELin1ELi1EEEED1Ev, symObjAddr: 0xBA5C, symBinAddr: 0x10000F6C0, symSize: 0x2C }
  - { offsetInCU: 0x4F8B4, offset: 0x4F8B4, size: 0x8, addend: 0x0, symName: __ZN5Eigen8internal9evaluatorIKNS_5ArrayIfLin1ELi1ELi0ELin1ELi1EEEED2Ev, symObjAddr: 0xBA88, symBinAddr: 0x10000F6EC, symSize: 0x2C }
  - { offsetInCU: 0x4F8E0, offset: 0x4F8E0, size: 0x8, addend: 0x0, symName: __ZNSt3__16vectorIN5Eigen5ArrayIiLin1ELin1ELi0ELin1ELin1EEENS_9allocatorIS3_EEE9__end_capB8ue170006Ev, symObjAddr: 0xBAB4, symBinAddr: 0x10000F718, symSize: 0x28 }
  - { offsetInCU: 0x4F906, offset: 0x4F906, size: 0x8, addend: 0x0, symName: __ZNSt3__16vectorIN5Eigen5ArrayIiLin1ELin1ELi0ELin1ELin1EEENS_9allocatorIS3_EEE22__construct_one_at_endB8ue170006IJRKS3_EEEvDpOT_, symObjAddr: 0xBADC, symBinAddr: 0x10000F740, symSize: 0x90 }
  - { offsetInCU: 0x4F957, offset: 0x4F957, size: 0x8, addend: 0x0, symName: __ZNSt3__16vectorIN5Eigen5ArrayIiLin1ELin1ELi0ELin1ELin1EEENS_9allocatorIS3_EEE21__push_back_slow_pathIRKS3_EEvOT_, symObjAddr: 0xBB6C, symBinAddr: 0x10000F7D0, symSize: 0xD8 }
  - { offsetInCU: 0x4F9B5, offset: 0x4F9B5, size: 0x8, addend: 0x0, symName: __ZNSt3__117__compressed_pairIPN5Eigen5ArrayIiLin1ELin1ELi0ELin1ELin1EEENS_9allocatorIS3_EEE5firstB8ue170006Ev, symObjAddr: 0xBC44, symBinAddr: 0x10000F8A8, symSize: 0x24 }
  - { offsetInCU: 0x4F9DB, offset: 0x4F9DB, size: 0x8, addend: 0x0, symName: __ZNSt3__122__compressed_pair_elemIPN5Eigen5ArrayIiLin1ELin1ELi0ELin1ELin1EEELi0ELb0EE5__getB8ue170006Ev, symObjAddr: 0xBC68, symBinAddr: 0x10000F8CC, symSize: 0x14 }
  - { offsetInCU: 0x4FA1A, offset: 0x4FA1A, size: 0x8, addend: 0x0, symName: __ZNSt3__16vectorIN5Eigen5ArrayIiLin1ELin1ELi0ELin1ELin1EEENS_9allocatorIS3_EEE21_ConstructTransactionC1B8ue170006ERS6_m, symObjAddr: 0xBC7C, symBinAddr: 0x10000F8E0, symSize: 0x3C }
  - { offsetInCU: 0x4FA62, offset: 0x4FA62, size: 0x8, addend: 0x0, symName: __ZNSt3__116allocator_traitsINS_9allocatorIN5Eigen5ArrayIiLin1ELin1ELi0ELin1ELin1EEEEEE9constructB8ue170006IS4_JRKS4_EvEEvRS5_PT_DpOT0_, symObjAddr: 0xBCB8, symBinAddr: 0x10000F91C, symSize: 0x34 }
  - { offsetInCU: 0x4FABC, offset: 0x4FABC, size: 0x8, addend: 0x0, symName: __ZNSt3__16vectorIN5Eigen5ArrayIiLin1ELin1ELi0ELin1ELin1EEENS_9allocatorIS3_EEE7__allocB8ue170006Ev, symObjAddr: 0xBCEC, symBinAddr: 0x10000F950, symSize: 0x28 }
  - { offsetInCU: 0x4FAE2, offset: 0x4FAE2, size: 0x8, addend: 0x0, symName: __ZNSt3__16vectorIN5Eigen5ArrayIiLin1ELin1ELi0ELin1ELin1EEENS_9allocatorIS3_EEE21_ConstructTransactionD1B8ue170006Ev, symObjAddr: 0xBD28, symBinAddr: 0x10000F98C, symSize: 0x2C }
  - { offsetInCU: 0x4FB0C, offset: 0x4FB0C, size: 0x8, addend: 0x0, symName: __ZNSt3__16vectorIN5Eigen5ArrayIiLin1ELin1ELi0ELin1ELin1EEENS_9allocatorIS3_EEE21_ConstructTransactionC2B8ue170006ERS6_m, symObjAddr: 0xBD54, symBinAddr: 0x10000F9B8, symSize: 0x4C }
  - { offsetInCU: 0x4FB54, offset: 0x4FB54, size: 0x8, addend: 0x0, symName: __ZNSt3__19allocatorIN5Eigen5ArrayIiLin1ELin1ELi0ELin1ELin1EEEE9constructB8ue170006IS3_JRKS3_EEEvPT_DpOT0_, symObjAddr: 0xBDA0, symBinAddr: 0x10000FA04, symSize: 0x30 }
  - { offsetInCU: 0x4FBAC, offset: 0x4FBAC, size: 0x8, addend: 0x0, symName: __ZN5Eigen5ArrayIiLin1ELin1ELi0ELin1ELin1EEC1ERKS1_, symObjAddr: 0xBDD0, symBinAddr: 0x10000FA34, symSize: 0x34 }
  - { offsetInCU: 0x4FBE5, offset: 0x4FBE5, size: 0x8, addend: 0x0, symName: __ZN5Eigen5ArrayIiLin1ELin1ELi0ELin1ELin1EEC2ERKS1_, symObjAddr: 0xBE04, symBinAddr: 0x10000FA68, symSize: 0x34 }
  - { offsetInCU: 0x4FC1E, offset: 0x4FC1E, size: 0x8, addend: 0x0, symName: __ZN5Eigen15PlainObjectBaseINS_5ArrayIiLin1ELin1ELi0ELin1ELin1EEEEC2ERKS3_, symObjAddr: 0xBE38, symBinAddr: 0x10000FA9C, symSize: 0x3C }
  - { offsetInCU: 0x4FC57, offset: 0x4FC57, size: 0x8, addend: 0x0, symName: __ZN5Eigen12DenseStorageIiLin1ELin1ELin1ELi0EEC1ERKS1_, symObjAddr: 0xBE74, symBinAddr: 0x10000FAD8, symSize: 0x34 }
  - { offsetInCU: 0x4FC90, offset: 0x4FC90, size: 0x8, addend: 0x0, symName: __ZN5Eigen12DenseStorageIiLin1ELin1ELin1ELi0EEC2ERKS1_, symObjAddr: 0xBEA8, symBinAddr: 0x10000FB0C, symSize: 0x94 }
  - { offsetInCU: 0x4FCC9, offset: 0x4FCC9, size: 0x8, addend: 0x0, symName: __ZNSt3__117__compressed_pairIPN5Eigen5ArrayIiLin1ELin1ELi0ELin1ELin1EEENS_9allocatorIS3_EEE6secondB8ue170006Ev, symObjAddr: 0xBF3C, symBinAddr: 0x10000FBA0, symSize: 0x24 }
  - { offsetInCU: 0x4FCEF, offset: 0x4FCEF, size: 0x8, addend: 0x0, symName: __ZNSt3__122__compressed_pair_elemINS_9allocatorIN5Eigen5ArrayIiLin1ELin1ELi0ELin1ELin1EEEEELi1ELb1EE5__getB8ue170006Ev, symObjAddr: 0xBF60, symBinAddr: 0x10000FBC4, symSize: 0x14 }
  - { offsetInCU: 0x4FD15, offset: 0x4FD15, size: 0x8, addend: 0x0, symName: __ZNSt3__16vectorIN5Eigen5ArrayIiLin1ELin1ELi0ELin1ELin1EEENS_9allocatorIS3_EEE21_ConstructTransactionD2B8ue170006Ev, symObjAddr: 0xBF74, symBinAddr: 0x10000FBD8, symSize: 0x20 }
  - { offsetInCU: 0x4FD3F, offset: 0x4FD3F, size: 0x8, addend: 0x0, symName: __ZNKSt3__16vectorIN5Eigen5ArrayIiLin1ELin1ELi0ELin1ELin1EEENS_9allocatorIS3_EEE11__recommendB8ue170006Em, symObjAddr: 0xBF94, symBinAddr: 0x10000FBF8, symSize: 0xB4 }
  - { offsetInCU: 0x4FD94, offset: 0x4FD94, size: 0x8, addend: 0x0, symName: __ZNSt3__114__split_bufferIN5Eigen5ArrayIiLin1ELin1ELi0ELin1ELin1EEERNS_9allocatorIS3_EEEC1EmmS6_, symObjAddr: 0xC048, symBinAddr: 0x10000FCAC, symSize: 0x44 }
  - { offsetInCU: 0x4FDEA, offset: 0x4FDEA, size: 0x8, addend: 0x0, symName: __ZNSt3__114__split_bufferIN5Eigen5ArrayIiLin1ELin1ELi0ELin1ELin1EEERNS_9allocatorIS3_EEED1Ev, symObjAddr: 0xC19C, symBinAddr: 0x10000FE00, symSize: 0x2C }
  - { offsetInCU: 0x4FE16, offset: 0x4FE16, size: 0x8, addend: 0x0, symName: __ZNKSt3__16vectorIN5Eigen5ArrayIiLin1ELin1ELi0ELin1ELin1EEENS_9allocatorIS3_EEE8max_sizeEv, symObjAddr: 0xC1C8, symBinAddr: 0x10000FE2C, symSize: 0x60 }
  - { offsetInCU: 0x4FE3E, offset: 0x4FE3E, size: 0x8, addend: 0x0, symName: __ZNKSt3__16vectorIN5Eigen5ArrayIiLin1ELin1ELi0ELin1ELin1EEENS_9allocatorIS3_EEE20__throw_length_errorB8ue170006Ev, symObjAddr: 0xC228, symBinAddr: 0x10000FE8C, symSize: 0x1C }
  - { offsetInCU: 0x4FE64, offset: 0x4FE64, size: 0x8, addend: 0x0, symName: __ZNKSt3__16vectorIN5Eigen5ArrayIiLin1ELin1ELi0ELin1ELin1EEENS_9allocatorIS3_EEE8capacityB8ue170006Ev, symObjAddr: 0xC244, symBinAddr: 0x10000FEA8, symSize: 0x40 }
  - { offsetInCU: 0x4FE94, offset: 0x4FE94, size: 0x8, addend: 0x0, symName: __ZNSt3__116allocator_traitsINS_9allocatorIN5Eigen5ArrayIiLin1ELin1ELi0ELin1ELin1EEEEEE8max_sizeB8ue170006IS5_vEEmRKS5_, symObjAddr: 0xC2DC, symBinAddr: 0x10000FF40, symSize: 0x24 }
  - { offsetInCU: 0x4FEC3, offset: 0x4FEC3, size: 0x8, addend: 0x0, symName: __ZNKSt3__16vectorIN5Eigen5ArrayIiLin1ELin1ELi0ELin1ELin1EEENS_9allocatorIS3_EEE7__allocB8ue170006Ev, symObjAddr: 0xC300, symBinAddr: 0x10000FF64, symSize: 0x28 }
  - { offsetInCU: 0x4FEE9, offset: 0x4FEE9, size: 0x8, addend: 0x0, symName: __ZNSt3__114numeric_limitsIlE3maxB8ue170006Ev, symObjAddr: 0xC328, symBinAddr: 0x10000FF8C, symSize: 0x14 }
  - { offsetInCU: 0x4FF07, offset: 0x4FF07, size: 0x8, addend: 0x0, symName: __ZNKSt3__16__lessIvvEclB8ue170006ImmEEbRKT_RKT0_, symObjAddr: 0xC390, symBinAddr: 0x10000FFF4, symSize: 0x34 }
  - { offsetInCU: 0x4FF5B, offset: 0x4FF5B, size: 0x8, addend: 0x0, symName: __ZNKSt3__19allocatorIN5Eigen5ArrayIiLin1ELin1ELi0ELin1ELin1EEEE8max_sizeB8ue170006Ev, symObjAddr: 0xC3C4, symBinAddr: 0x100010028, symSize: 0x18 }
  - { offsetInCU: 0x4FF81, offset: 0x4FF81, size: 0x8, addend: 0x0, symName: __ZNKSt3__117__compressed_pairIPN5Eigen5ArrayIiLin1ELin1ELi0ELin1ELin1EEENS_9allocatorIS3_EEE6secondB8ue170006Ev, symObjAddr: 0xC3DC, symBinAddr: 0x100010040, symSize: 0x24 }
  - { offsetInCU: 0x4FFA7, offset: 0x4FFA7, size: 0x8, addend: 0x0, symName: __ZNKSt3__122__compressed_pair_elemINS_9allocatorIN5Eigen5ArrayIiLin1ELin1ELi0ELin1ELin1EEEEELi1ELb1EE5__getB8ue170006Ev, symObjAddr: 0xC400, symBinAddr: 0x100010064, symSize: 0x14 }
  - { offsetInCU: 0x4FFCD, offset: 0x4FFCD, size: 0x8, addend: 0x0, symName: __ZNSt3__123__libcpp_numeric_limitsIlLb1EE3maxB8ue170006Ev, symObjAddr: 0xC414, symBinAddr: 0x100010078, symSize: 0x8 }
  - { offsetInCU: 0x4FFE1, offset: 0x4FFE1, size: 0x8, addend: 0x0, symName: __ZNSt12length_errorC1B8ue170006EPKc, symObjAddr: 0xC480, symBinAddr: 0x1000100E4, symSize: 0x34 }
  - { offsetInCU: 0x50019, offset: 0x50019, size: 0x8, addend: 0x0, symName: __ZNSt12length_errorC2B8ue170006EPKc, symObjAddr: 0xC4B4, symBinAddr: 0x100010118, symSize: 0x4C }
  - { offsetInCU: 0x50051, offset: 0x50051, size: 0x8, addend: 0x0, symName: __ZNKSt3__16vectorIN5Eigen5ArrayIiLin1ELin1ELi0ELin1ELin1EEENS_9allocatorIS3_EEE9__end_capB8ue170006Ev, symObjAddr: 0xC500, symBinAddr: 0x100010164, symSize: 0x28 }
  - { offsetInCU: 0x50077, offset: 0x50077, size: 0x8, addend: 0x0, symName: __ZNKSt3__117__compressed_pairIPN5Eigen5ArrayIiLin1ELin1ELi0ELin1ELin1EEENS_9allocatorIS3_EEE5firstB8ue170006Ev, symObjAddr: 0xC528, symBinAddr: 0x10001018C, symSize: 0x24 }
  - { offsetInCU: 0x5009D, offset: 0x5009D, size: 0x8, addend: 0x0, symName: __ZNKSt3__122__compressed_pair_elemIPN5Eigen5ArrayIiLin1ELin1ELi0ELin1ELin1EEELi0ELb0EE5__getB8ue170006Ev, symObjAddr: 0xC54C, symBinAddr: 0x1000101B0, symSize: 0x14 }
  - { offsetInCU: 0x500C3, offset: 0x500C3, size: 0x8, addend: 0x0, symName: __ZNSt3__114__split_bufferIN5Eigen5ArrayIiLin1ELin1ELi0ELin1ELin1EEERNS_9allocatorIS3_EEEC2EmmS6_, symObjAddr: 0xC5B4, symBinAddr: 0x100010218, symSize: 0xE0 }
  - { offsetInCU: 0x5013C, offset: 0x5013C, size: 0x8, addend: 0x0, symName: __ZNSt3__117__compressed_pairIPN5Eigen5ArrayIiLin1ELin1ELi0ELin1ELin1EEERNS_9allocatorIS3_EEEC1B8ue170006IDnS7_EEOT_OT0_, symObjAddr: 0xC694, symBinAddr: 0x1000102F8, symSize: 0x3C }
  - { offsetInCU: 0x50194, offset: 0x50194, size: 0x8, addend: 0x0, symName: __ZNSt3__114__split_bufferIN5Eigen5ArrayIiLin1ELin1ELi0ELin1ELin1EEERNS_9allocatorIS3_EEE7__allocB8ue170006Ev, symObjAddr: 0xC710, symBinAddr: 0x100010374, symSize: 0x28 }
  - { offsetInCU: 0x501BA, offset: 0x501BA, size: 0x8, addend: 0x0, symName: __ZNSt3__114__split_bufferIN5Eigen5ArrayIiLin1ELin1ELi0ELin1ELin1EEERNS_9allocatorIS3_EEE9__end_capB8ue170006Ev, symObjAddr: 0xC738, symBinAddr: 0x10001039C, symSize: 0x28 }
  - { offsetInCU: 0x501E0, offset: 0x501E0, size: 0x8, addend: 0x0, symName: __ZNSt3__117__compressed_pairIPN5Eigen5ArrayIiLin1ELin1ELi0ELin1ELin1EEERNS_9allocatorIS3_EEEC2B8ue170006IDnS7_EEOT_OT0_, symObjAddr: 0xC760, symBinAddr: 0x1000103C4, symSize: 0x48 }
  - { offsetInCU: 0x50238, offset: 0x50238, size: 0x8, addend: 0x0, symName: __ZNSt3__122__compressed_pair_elemIPN5Eigen5ArrayIiLin1ELin1ELi0ELin1ELin1EEELi0ELb0EEC2B8ue170006IDnvEEOT_, symObjAddr: 0xC7A8, symBinAddr: 0x10001040C, symSize: 0x1C }
  - { offsetInCU: 0x5027B, offset: 0x5027B, size: 0x8, addend: 0x0, symName: __ZNSt3__122__compressed_pair_elemIRNS_9allocatorIN5Eigen5ArrayIiLin1ELin1ELi0ELin1ELin1EEEEELi1ELb0EEC2B8ue170006IS6_vEEOT_, symObjAddr: 0xC7C4, symBinAddr: 0x100010428, symSize: 0x20 }
  - { offsetInCU: 0x502BE, offset: 0x502BE, size: 0x8, addend: 0x0, symName: __ZNSt3__19allocatorIN5Eigen5ArrayIiLin1ELin1ELi0ELin1ELin1EEEE8allocateB8ue170006Em, symObjAddr: 0xC7E4, symBinAddr: 0x100010448, symSize: 0x5C }
  - { offsetInCU: 0x502F2, offset: 0x502F2, size: 0x8, addend: 0x0, symName: __ZNSt3__117__compressed_pairIPN5Eigen5ArrayIiLin1ELin1ELi0ELin1ELin1EEERNS_9allocatorIS3_EEE6secondB8ue170006Ev, symObjAddr: 0xC8C0, symBinAddr: 0x100010524, symSize: 0x28 }
  - { offsetInCU: 0x50318, offset: 0x50318, size: 0x8, addend: 0x0, symName: __ZNSt3__122__compressed_pair_elemIRNS_9allocatorIN5Eigen5ArrayIiLin1ELin1ELi0ELin1ELin1EEEEELi1ELb0EE5__getB8ue170006Ev, symObjAddr: 0xC8E8, symBinAddr: 0x10001054C, symSize: 0x18 }
  - { offsetInCU: 0x5033E, offset: 0x5033E, size: 0x8, addend: 0x0, symName: __ZNSt3__117__compressed_pairIPN5Eigen5ArrayIiLin1ELin1ELi0ELin1ELin1EEERNS_9allocatorIS3_EEE5firstB8ue170006Ev, symObjAddr: 0xC900, symBinAddr: 0x100010564, symSize: 0x24 }
  - { offsetInCU: 0x50364, offset: 0x50364, size: 0x8, addend: 0x0, symName: __ZNKSt3__16vectorIN5Eigen5ArrayIiLin1ELin1ELi0ELin1ELin1EEENS_9allocatorIS3_EEE17__annotate_deleteB8ue170006Ev, symObjAddr: 0xC924, symBinAddr: 0x100010588, symSize: 0xD4 }
  - { offsetInCU: 0x5038A, offset: 0x5038A, size: 0x8, addend: 0x0, symName: __ZNSt3__116reverse_iteratorIPN5Eigen5ArrayIiLin1ELin1ELi0ELin1ELin1EEEEC1B8ue170006ES4_, symObjAddr: 0xCB24, symBinAddr: 0x100010788, symSize: 0x34 }
  - { offsetInCU: 0x503C2, offset: 0x503C2, size: 0x8, addend: 0x0, symName: __ZNKSt3__116reverse_iteratorIPN5Eigen5ArrayIiLin1ELin1ELi0ELin1ELin1EEEE4baseB8ue170006Ev, symObjAddr: 0xCB58, symBinAddr: 0x1000107BC, symSize: 0x18 }
  - { offsetInCU: 0x503E8, offset: 0x503E8, size: 0x8, addend: 0x0, symName: __ZNKSt3__16vectorIN5Eigen5ArrayIiLin1ELin1ELi0ELin1ELin1EEENS_9allocatorIS3_EEE14__annotate_newB8ue170006Em, symObjAddr: 0xCBAC, symBinAddr: 0x100010810, symSize: 0xC8 }
  - { offsetInCU: 0x5041D, offset: 0x5041D, size: 0x8, addend: 0x0, symName: __ZNKSt3__16vectorIN5Eigen5ArrayIiLin1ELin1ELi0ELin1ELin1EEENS_9allocatorIS3_EEE31__annotate_contiguous_containerB8ue170006EPKvS8_S8_S8_, symObjAddr: 0xCC74, symBinAddr: 0x1000108D8, symSize: 0x20 }
  - { offsetInCU: 0x5046F, offset: 0x5046F, size: 0x8, addend: 0x0, symName: __ZNKSt3__16vectorIN5Eigen5ArrayIiLin1ELin1ELi0ELin1ELin1EEENS_9allocatorIS3_EEE4dataB8ue170006Ev, symObjAddr: 0xCC94, symBinAddr: 0x1000108F8, symSize: 0x28 }
  - { offsetInCU: 0x50495, offset: 0x50495, size: 0x8, addend: 0x0, symName: __ZNSt3__129_AllocatorDestroyRangeReverseINS_9allocatorIN5Eigen5ArrayIiLin1ELin1ELi0ELin1ELin1EEEEENS_16reverse_iteratorIPS4_EEEC1B8ue170006ERS5_RS8_SB_, symObjAddr: 0xCD08, symBinAddr: 0x10001096C, symSize: 0x44 }
  - { offsetInCU: 0x504EC, offset: 0x504EC, size: 0x8, addend: 0x0, symName: __ZNSt3__116allocator_traitsINS_9allocatorIN5Eigen5ArrayIiLin1ELin1ELi0ELin1ELin1EEEEEE9constructB8ue170006IS4_JS4_EvEEvRS5_PT_DpOT0_, symObjAddr: 0xCD94, symBinAddr: 0x1000109F8, symSize: 0x34 }
  - { offsetInCU: 0x50546, offset: 0x50546, size: 0x8, addend: 0x0, symName: __ZNKSt3__116reverse_iteratorIPN5Eigen5ArrayIiLin1ELin1ELi0ELin1ELin1EEEEdeB8ue170006Ev, symObjAddr: 0xCDEC, symBinAddr: 0x100010A50, symSize: 0x28 }
  - { offsetInCU: 0x5057A, offset: 0x5057A, size: 0x8, addend: 0x0, symName: __ZNSt3__116reverse_iteratorIPN5Eigen5ArrayIiLin1ELin1ELi0ELin1ELin1EEEEppB8ue170006Ev, symObjAddr: 0xCE14, symBinAddr: 0x100010A78, symSize: 0x20 }
  - { offsetInCU: 0x505A0, offset: 0x505A0, size: 0x8, addend: 0x0, symName: __ZNSt3__128__exception_guard_exceptionsINS_29_AllocatorDestroyRangeReverseINS_9allocatorIN5Eigen5ArrayIiLin1ELin1ELi0ELin1ELin1EEEEENS_16reverse_iteratorIPS5_EEEEE10__completeB8ue170006Ev, symObjAddr: 0xCE34, symBinAddr: 0x100010A98, symSize: 0x1C }
  - { offsetInCU: 0x505C6, offset: 0x505C6, size: 0x8, addend: 0x0, symName: __ZNSt3__128__exception_guard_exceptionsINS_29_AllocatorDestroyRangeReverseINS_9allocatorIN5Eigen5ArrayIiLin1ELin1ELi0ELin1ELin1EEEEENS_16reverse_iteratorIPS5_EEEEED1B8ue170006Ev, symObjAddr: 0xCE50, symBinAddr: 0x100010AB4, symSize: 0x2C }
  - { offsetInCU: 0x505F0, offset: 0x505F0, size: 0x8, addend: 0x0, symName: __ZNSt3__128__exception_guard_exceptionsINS_29_AllocatorDestroyRangeReverseINS_9allocatorIN5Eigen5ArrayIiLin1ELin1ELi0ELin1ELin1EEEEENS_16reverse_iteratorIPS5_EEEEEC1B8ue170006ESA_, symObjAddr: 0xCE7C, symBinAddr: 0x100010AE0, symSize: 0x34 }
  - { offsetInCU: 0x50629, offset: 0x50629, size: 0x8, addend: 0x0, symName: __ZNSt3__128__exception_guard_exceptionsINS_29_AllocatorDestroyRangeReverseINS_9allocatorIN5Eigen5ArrayIiLin1ELin1ELi0ELin1ELin1EEEEENS_16reverse_iteratorIPS5_EEEEEC2B8ue170006ESA_, symObjAddr: 0xCEB0, symBinAddr: 0x100010B14, symSize: 0x30 }
  - { offsetInCU: 0x50662, offset: 0x50662, size: 0x8, addend: 0x0, symName: __ZNSt3__129_AllocatorDestroyRangeReverseINS_9allocatorIN5Eigen5ArrayIiLin1ELin1ELi0ELin1ELin1EEEEENS_16reverse_iteratorIPS4_EEEC2B8ue170006ERS5_RS8_SB_, symObjAddr: 0xCEE0, symBinAddr: 0x100010B44, symSize: 0x38 }
  - { offsetInCU: 0x506B9, offset: 0x506B9, size: 0x8, addend: 0x0, symName: __ZNSt3__19allocatorIN5Eigen5ArrayIiLin1ELin1ELi0ELin1ELin1EEEE9constructB8ue170006IS3_JS3_EEEvPT_DpOT0_, symObjAddr: 0xCF18, symBinAddr: 0x100010B7C, symSize: 0x30 }
  - { offsetInCU: 0x50711, offset: 0x50711, size: 0x8, addend: 0x0, symName: __ZN5Eigen5ArrayIiLin1ELin1ELi0ELin1ELin1EEC1EOS1_, symObjAddr: 0xCF48, symBinAddr: 0x100010BAC, symSize: 0x34 }
  - { offsetInCU: 0x50749, offset: 0x50749, size: 0x8, addend: 0x0, symName: __ZN5Eigen5ArrayIiLin1ELin1ELi0ELin1ELin1EEC2EOS1_, symObjAddr: 0xCF7C, symBinAddr: 0x100010BE0, symSize: 0x38 }
  - { offsetInCU: 0x50781, offset: 0x50781, size: 0x8, addend: 0x0, symName: __ZN5Eigen15PlainObjectBaseINS_5ArrayIiLin1ELin1ELi0ELin1ELin1EEEEC2EOS3_, symObjAddr: 0xCFB4, symBinAddr: 0x100010C18, symSize: 0x44 }
  - { offsetInCU: 0x507BA, offset: 0x507BA, size: 0x8, addend: 0x0, symName: __ZN5Eigen12DenseStorageIiLin1ELin1ELin1ELi0EEC1EOS1_, symObjAddr: 0xCFF8, symBinAddr: 0x100010C5C, symSize: 0x34 }
  - { offsetInCU: 0x507F3, offset: 0x507F3, size: 0x8, addend: 0x0, symName: __ZN5Eigen12DenseStorageIiLin1ELin1ELin1ELi0EEC2EOS1_, symObjAddr: 0xD02C, symBinAddr: 0x100010C90, symSize: 0x54 }
  - { offsetInCU: 0x50831, offset: 0x50831, size: 0x8, addend: 0x0, symName: __ZNSt3__119__to_address_helperINS_16reverse_iteratorIPN5Eigen5ArrayIiLin1ELin1ELi0ELin1ELin1EEEEEvE6__callB8ue170006ERKS6_, symObjAddr: 0xD080, symBinAddr: 0x100010CE4, symSize: 0x38 }
  - { offsetInCU: 0x50854, offset: 0x50854, size: 0x8, addend: 0x0, symName: __ZNKSt3__116reverse_iteratorIPN5Eigen5ArrayIiLin1ELin1ELi0ELin1ELin1EEEEptB8ue170006Ev, symObjAddr: 0xD0B8, symBinAddr: 0x100010D1C, symSize: 0x24 }
  - { offsetInCU: 0x5087A, offset: 0x5087A, size: 0x8, addend: 0x0, symName: __ZNSt3__128__exception_guard_exceptionsINS_29_AllocatorDestroyRangeReverseINS_9allocatorIN5Eigen5ArrayIiLin1ELin1ELi0ELin1ELin1EEEEENS_16reverse_iteratorIPS5_EEEEED2B8ue170006Ev, symObjAddr: 0xD0DC, symBinAddr: 0x100010D40, symSize: 0x50 }
  - { offsetInCU: 0x508A4, offset: 0x508A4, size: 0x8, addend: 0x0, symName: __ZNKSt3__129_AllocatorDestroyRangeReverseINS_9allocatorIN5Eigen5ArrayIiLin1ELin1ELi0ELin1ELin1EEEEENS_16reverse_iteratorIPS4_EEEclB8ue170006Ev, symObjAddr: 0xD12C, symBinAddr: 0x100010D90, symSize: 0xB4 }
  - { offsetInCU: 0x508CB, offset: 0x508CB, size: 0x8, addend: 0x0, symName: __ZNSt3__116reverse_iteratorINS0_IPN5Eigen5ArrayIiLin1ELin1ELi0ELin1ELin1EEEEEEC1B8ue170006ES5_, symObjAddr: 0xD250, symBinAddr: 0x100010EB4, symSize: 0x3C }
  - { offsetInCU: 0x50903, offset: 0x50903, size: 0x8, addend: 0x0, symName: __ZNSt3__116allocator_traitsINS_9allocatorIN5Eigen5ArrayIiLin1ELin1ELi0ELin1ELin1EEEEEE7destroyB8ue170006IS4_vEEvRS5_PT_, symObjAddr: 0xD2EC, symBinAddr: 0x100010F50, symSize: 0x2C }
  - { offsetInCU: 0x50941, offset: 0x50941, size: 0x8, addend: 0x0, symName: __ZNSt3__116reverse_iteratorINS0_IPN5Eigen5ArrayIiLin1ELin1ELi0ELin1ELin1EEEEEEppB8ue170006Ev, symObjAddr: 0xD33C, symBinAddr: 0x100010FA0, symSize: 0x30 }
  - { offsetInCU: 0x50967, offset: 0x50967, size: 0x8, addend: 0x0, symName: __ZNKSt3__116reverse_iteratorINS0_IPN5Eigen5ArrayIiLin1ELin1ELi0ELin1ELin1EEEEEE4baseB8ue170006Ev, symObjAddr: 0xD36C, symBinAddr: 0x100010FD0, symSize: 0x24 }
  - { offsetInCU: 0x5098D, offset: 0x5098D, size: 0x8, addend: 0x0, symName: __ZNSt3__19allocatorIN5Eigen5ArrayIiLin1ELin1ELi0ELin1ELin1EEEE7destroyB8ue170006EPS3_, symObjAddr: 0xD390, symBinAddr: 0x100010FF4, symSize: 0x28 }
  - { offsetInCU: 0x509C6, offset: 0x509C6, size: 0x8, addend: 0x0, symName: __ZNSt3__119__to_address_helperINS_16reverse_iteratorINS1_IPN5Eigen5ArrayIiLin1ELin1ELi0ELin1ELin1EEEEEEEvE6__callB8ue170006ERKS7_, symObjAddr: 0xD3B8, symBinAddr: 0x10001101C, symSize: 0x38 }
  - { offsetInCU: 0x509E9, offset: 0x509E9, size: 0x8, addend: 0x0, symName: __ZNKSt3__116reverse_iteratorINS0_IPN5Eigen5ArrayIiLin1ELin1ELi0ELin1ELin1EEEEEEptB8ue170006Ev, symObjAddr: 0xD3F0, symBinAddr: 0x100011054, symSize: 0x24 }
  - { offsetInCU: 0x50A0F, offset: 0x50A0F, size: 0x8, addend: 0x0, symName: __ZNKSt3__116reverse_iteratorINS0_IPN5Eigen5ArrayIiLin1ELin1ELi0ELin1ELin1EEEEEEdeB8ue170006Ev, symObjAddr: 0xD414, symBinAddr: 0x100011078, symSize: 0x34 }
  - { offsetInCU: 0x50A43, offset: 0x50A43, size: 0x8, addend: 0x0, symName: __ZNSt3__116reverse_iteratorIPN5Eigen5ArrayIiLin1ELin1ELi0ELin1ELin1EEEEmmB8ue170006Ev, symObjAddr: 0xD448, symBinAddr: 0x1000110AC, symSize: 0x20 }
  - { offsetInCU: 0x50A69, offset: 0x50A69, size: 0x8, addend: 0x0, symName: __ZNSt3__116reverse_iteratorINS0_IPN5Eigen5ArrayIiLin1ELin1ELi0ELin1ELin1EEEEEEC2B8ue170006ES5_, symObjAddr: 0xD468, symBinAddr: 0x1000110CC, symSize: 0x2C }
  - { offsetInCU: 0x50AA1, offset: 0x50AA1, size: 0x8, addend: 0x0, symName: __ZNSt3__116reverse_iteratorIPN5Eigen5ArrayIiLin1ELin1ELi0ELin1ELin1EEEEC2B8ue170006ES4_, symObjAddr: 0xD494, symBinAddr: 0x1000110F8, symSize: 0x28 }
  - { offsetInCU: 0x50AD9, offset: 0x50AD9, size: 0x8, addend: 0x0, symName: __ZNSt3__114__split_bufferIN5Eigen5ArrayIiLin1ELin1ELi0ELin1ELin1EEERNS_9allocatorIS3_EEED2Ev, symObjAddr: 0xD4BC, symBinAddr: 0x100011120, symSize: 0x8C }
  - { offsetInCU: 0x50B05, offset: 0x50B05, size: 0x8, addend: 0x0, symName: __ZNSt3__114__split_bufferIN5Eigen5ArrayIiLin1ELin1ELi0ELin1ELin1EEERNS_9allocatorIS3_EEE5clearB8ue170006Ev, symObjAddr: 0xD548, symBinAddr: 0x1000111AC, symSize: 0x28 }
  - { offsetInCU: 0x50B2B, offset: 0x50B2B, size: 0x8, addend: 0x0, symName: __ZNSt3__116allocator_traitsINS_9allocatorIN5Eigen5ArrayIiLin1ELin1ELi0ELin1ELin1EEEEEE10deallocateB8ue170006ERS5_PS4_m, symObjAddr: 0xD570, symBinAddr: 0x1000111D4, symSize: 0x34 }
  - { offsetInCU: 0x50B6D, offset: 0x50B6D, size: 0x8, addend: 0x0, symName: __ZNKSt3__114__split_bufferIN5Eigen5ArrayIiLin1ELin1ELi0ELin1ELin1EEERNS_9allocatorIS3_EEE8capacityB8ue170006Ev, symObjAddr: 0xD5A4, symBinAddr: 0x100011208, symSize: 0x40 }
  - { offsetInCU: 0x50B93, offset: 0x50B93, size: 0x8, addend: 0x0, symName: __ZNSt3__114__split_bufferIN5Eigen5ArrayIiLin1ELin1ELi0ELin1ELin1EEERNS_9allocatorIS3_EEE17__destruct_at_endB8ue170006EPS3_, symObjAddr: 0xD5E4, symBinAddr: 0x100011248, symSize: 0x2C }
  - { offsetInCU: 0x50BC7, offset: 0x50BC7, size: 0x8, addend: 0x0, symName: __ZNSt3__114__split_bufferIN5Eigen5ArrayIiLin1ELin1ELi0ELin1ELin1EEERNS_9allocatorIS3_EEE17__destruct_at_endB8ue170006EPS3_NS_17integral_constantIbLb0EEE, symObjAddr: 0xD610, symBinAddr: 0x100011274, symSize: 0x80 }
  - { offsetInCU: 0x50C08, offset: 0x50C08, size: 0x8, addend: 0x0, symName: __ZNSt3__19allocatorIN5Eigen5ArrayIiLin1ELin1ELi0ELin1ELin1EEEE10deallocateB8ue170006EPS3_m, symObjAddr: 0xD690, symBinAddr: 0x1000112F4, symSize: 0x44 }
  - { offsetInCU: 0x50C4A, offset: 0x50C4A, size: 0x8, addend: 0x0, symName: __ZNKSt3__114__split_bufferIN5Eigen5ArrayIiLin1ELin1ELi0ELin1ELin1EEERNS_9allocatorIS3_EEE9__end_capB8ue170006Ev, symObjAddr: 0xD750, symBinAddr: 0x1000113B4, symSize: 0x28 }
  - { offsetInCU: 0x50C70, offset: 0x50C70, size: 0x8, addend: 0x0, symName: __ZNKSt3__117__compressed_pairIPN5Eigen5ArrayIiLin1ELin1ELi0ELin1ELin1EEERNS_9allocatorIS3_EEE5firstB8ue170006Ev, symObjAddr: 0xD778, symBinAddr: 0x1000113DC, symSize: 0x24 }
  - { offsetInCU: 0x50CB4, offset: 0x50CB4, size: 0x8, addend: 0x0, symName: __ZNKSt3__113basic_ostreamIcNS_11char_traitsIcEEE6sentrycvbB8ue170006Ev, symObjAddr: 0xD988, symBinAddr: 0x1000115EC, symSize: 0x1C }
  - { offsetInCU: 0x50CDA, offset: 0x50CDA, size: 0x8, addend: 0x0, symName: __ZNSt3__119ostreambuf_iteratorIcNS_11char_traitsIcEEEC1B8ue170006ERNS_13basic_ostreamIcS2_EE, symObjAddr: 0xDBE4, symBinAddr: 0x100011848, symSize: 0x34 }
  - { offsetInCU: 0x50D12, offset: 0x50D12, size: 0x8, addend: 0x0, symName: __ZNKSt3__18ios_base5flagsB8ue170006Ev, symObjAddr: 0xDC18, symBinAddr: 0x10001187C, symSize: 0x18 }
  - { offsetInCU: 0x50D3A, offset: 0x50D3A, size: 0x8, addend: 0x0, symName: __ZNKSt3__19basic_iosIcNS_11char_traitsIcEEE4fillB8ue170006Ev, symObjAddr: 0xDC30, symBinAddr: 0x100011894, symSize: 0x64 }
  - { offsetInCU: 0x50D62, offset: 0x50D62, size: 0x8, addend: 0x0, symName: __ZNKSt3__119ostreambuf_iteratorIcNS_11char_traitsIcEEE6failedB8ue170006Ev, symObjAddr: 0xDC94, symBinAddr: 0x1000118F8, symSize: 0x24 }
  - { offsetInCU: 0x50D88, offset: 0x50D88, size: 0x8, addend: 0x0, symName: __ZNSt3__19basic_iosIcNS_11char_traitsIcEEE8setstateB8ue170006Ej, symObjAddr: 0xDCB8, symBinAddr: 0x10001191C, symSize: 0x2C }
  - { offsetInCU: 0x50DBD, offset: 0x50DBD, size: 0x8, addend: 0x0, symName: __ZNKSt3__18ios_base5widthB8ue170006Ev, symObjAddr: 0xDCE4, symBinAddr: 0x100011948, symSize: 0x18 }
  - { offsetInCU: 0x50DE5, offset: 0x50DE5, size: 0x8, addend: 0x0, symName: __ZNSt3__115basic_streambufIcNS_11char_traitsIcEEE5sputnB8ue170006EPKcl, symObjAddr: 0xDCFC, symBinAddr: 0x100011960, symSize: 0x3C }
  - { offsetInCU: 0x50E27, offset: 0x50E27, size: 0x8, addend: 0x0, symName: __ZNSt3__112basic_stringIcNS_11char_traitsIcEENS_9allocatorIcEEEC1B8ue170006Emc, symObjAddr: 0xDD38, symBinAddr: 0x10001199C, symSize: 0x3C }
  - { offsetInCU: 0x50E6F, offset: 0x50E6F, size: 0x8, addend: 0x0, symName: __ZNKSt3__112basic_stringIcNS_11char_traitsIcEENS_9allocatorIcEEE4dataB8ue170006Ev, symObjAddr: 0xDD74, symBinAddr: 0x1000119D8, symSize: 0x28 }
  - { offsetInCU: 0x50E95, offset: 0x50E95, size: 0x8, addend: 0x0, symName: __ZNSt3__18ios_base5widthB8ue170006El, symObjAddr: 0xDD9C, symBinAddr: 0x100011A00, symSize: 0x2C }
  - { offsetInCU: 0x50EDB, offset: 0x50EDB, size: 0x8, addend: 0x0, symName: __ZNSt3__112basic_stringIcNS_11char_traitsIcEENS_9allocatorIcEEEC2B8ue170006Emc, symObjAddr: 0xDDC8, symBinAddr: 0x100011A2C, symSize: 0x4C }
  - { offsetInCU: 0x50F23, offset: 0x50F23, size: 0x8, addend: 0x0, symName: __ZNKSt3__112basic_stringIcNS_11char_traitsIcEENS_9allocatorIcEEE13__get_pointerB8ue170006Ev, symObjAddr: 0xDE28, symBinAddr: 0x100011A8C, symSize: 0x54 }
  - { offsetInCU: 0x50F49, offset: 0x50F49, size: 0x8, addend: 0x0, symName: __ZNKSt3__112basic_stringIcNS_11char_traitsIcEENS_9allocatorIcEEE9__is_longB8ue170006Ev, symObjAddr: 0xDE7C, symBinAddr: 0x100011AE0, symSize: 0x38 }
  - { offsetInCU: 0x50F6F, offset: 0x50F6F, size: 0x8, addend: 0x0, symName: __ZNKSt3__112basic_stringIcNS_11char_traitsIcEENS_9allocatorIcEEE18__get_long_pointerB8ue170006Ev, symObjAddr: 0xDEB4, symBinAddr: 0x100011B18, symSize: 0x28 }
  - { offsetInCU: 0x50F95, offset: 0x50F95, size: 0x8, addend: 0x0, symName: __ZNKSt3__112basic_stringIcNS_11char_traitsIcEENS_9allocatorIcEEE19__get_short_pointerB8ue170006Ev, symObjAddr: 0xDEDC, symBinAddr: 0x100011B40, symSize: 0x28 }
  - { offsetInCU: 0x50FBB, offset: 0x50FBB, size: 0x8, addend: 0x0, symName: __ZNKSt3__117__compressed_pairINS_12basic_stringIcNS_11char_traitsIcEENS_9allocatorIcEEE5__repES5_E5firstB8ue170006Ev, symObjAddr: 0xDF04, symBinAddr: 0x100011B68, symSize: 0x24 }
  - { offsetInCU: 0x50FE1, offset: 0x50FE1, size: 0x8, addend: 0x0, symName: __ZNKSt3__122__compressed_pair_elemINS_12basic_stringIcNS_11char_traitsIcEENS_9allocatorIcEEE5__repELi0ELb0EE5__getB8ue170006Ev, symObjAddr: 0xDF28, symBinAddr: 0x100011B8C, symSize: 0x14 }
  - { offsetInCU: 0x51007, offset: 0x51007, size: 0x8, addend: 0x0, symName: __ZNSt3__114pointer_traitsIPKcE10pointer_toB8ue170006ERS1_, symObjAddr: 0xDF3C, symBinAddr: 0x100011BA0, symSize: 0x14 }
  - { offsetInCU: 0x5102A, offset: 0x5102A, size: 0x8, addend: 0x0, symName: __ZNSt3__119ostreambuf_iteratorIcNS_11char_traitsIcEEEC2B8ue170006ERNS_13basic_ostreamIcS2_EE, symObjAddr: 0xDF50, symBinAddr: 0x100011BB4, symSize: 0x54 }
  - { offsetInCU: 0x51062, offset: 0x51062, size: 0x8, addend: 0x0, symName: __ZNKSt3__19basic_iosIcNS_11char_traitsIcEEE5rdbufB8ue170006Ev, symObjAddr: 0xDFA4, symBinAddr: 0x100011C08, symSize: 0x24 }
  - { offsetInCU: 0x5108A, offset: 0x5108A, size: 0x8, addend: 0x0, symName: __ZNKSt3__18ios_base5rdbufB8ue170006Ev, symObjAddr: 0xDFC8, symBinAddr: 0x100011C2C, symSize: 0x18 }
  - { offsetInCU: 0x510B0, offset: 0x510B0, size: 0x8, addend: 0x0, symName: __ZNSt3__111char_traitsIcE11eq_int_typeB8ue170006Eii, symObjAddr: 0xDFE0, symBinAddr: 0x100011C44, symSize: 0x28 }
  - { offsetInCU: 0x510E3, offset: 0x510E3, size: 0x8, addend: 0x0, symName: __ZNSt3__111char_traitsIcE3eofB8ue170006Ev, symObjAddr: 0xE008, symBinAddr: 0x100011C6C, symSize: 0x8 }
  - { offsetInCU: 0x510F7, offset: 0x510F7, size: 0x8, addend: 0x0, symName: __ZNKSt3__19basic_iosIcNS_11char_traitsIcEEE5widenB8ue170006Ec, symObjAddr: 0xE010, symBinAddr: 0x100011C74, symSize: 0x84 }
  - { offsetInCU: 0x51160, offset: 0x51160, size: 0x8, addend: 0x0, symName: __ZNKSt3__15ctypeIcE5widenB8ue170006Ec, symObjAddr: 0xE0C0, symBinAddr: 0x100011D24, symSize: 0x38 }
  - { offsetInCU: 0x51195, offset: 0x51195, size: 0x8, addend: 0x0, symName: __ZNSt3__18ios_base8setstateB8ue170006Ej, symObjAddr: 0xE0F8, symBinAddr: 0x100011D5C, symSize: 0x34 }
  - { offsetInCU: 0x511CC, offset: 0x511CC, size: 0x8, addend: 0x0, symName: __ZNK5Eigen9DenseBaseINS_9TransposeINS_5ArrayIiLin1ELi1ELi0ELin1ELi1EEEEEE4evalEv, symObjAddr: 0xE6A0, symBinAddr: 0x100012304, symSize: 0x38 }
  - { offsetInCU: 0x511F2, offset: 0x511F2, size: 0x8, addend: 0x0, symName: __ZN5Eigen8IOFormatC1EiiRKNSt3__112basic_stringIcNS1_11char_traitsIcEENS1_9allocatorIcEEEES9_S9_S9_S9_S9_c, symObjAddr: 0xE6D8, symBinAddr: 0x10001233C, symSize: 0x88 }
  - { offsetInCU: 0x5129A, offset: 0x5129A, size: 0x8, addend: 0x0, symName: __ZN5Eigen8IOFormatD1Ev, symObjAddr: 0xE760, symBinAddr: 0x1000123C4, symSize: 0x2C }
  - { offsetInCU: 0x512C6, offset: 0x512C6, size: 0x8, addend: 0x0, symName: __ZN5Eigen5ArrayIiLi1ELin1ELi1ELi1ELin1EED1Ev, symObjAddr: 0xE78C, symBinAddr: 0x1000123F0, symSize: 0x2C }
  - { offsetInCU: 0x512F2, offset: 0x512F2, size: 0x8, addend: 0x0, symName: __ZNK5Eigen9EigenBaseINS_5ArrayIiLi1ELin1ELi1ELi1ELin1EEEE4sizeEv, symObjAddr: 0xE7B8, symBinAddr: 0x10001241C, symSize: 0x44 }
  - { offsetInCU: 0x51318, offset: 0x51318, size: 0x8, addend: 0x0, symName: __ZNSt3__18ios_base9precisionB8ue170006El, symObjAddr: 0xE848, symBinAddr: 0x1000124AC, symSize: 0x2C }
  - { offsetInCU: 0x5135E, offset: 0x5135E, size: 0x8, addend: 0x0, symName: __ZNK5Eigen15PlainObjectBaseINS_5ArrayIiLi1ELin1ELi1ELi1ELin1EEEE4colsEv, symObjAddr: 0xE874, symBinAddr: 0x1000124D8, symSize: 0x24 }
  - { offsetInCU: 0x51384, offset: 0x51384, size: 0x8, addend: 0x0, symName: __ZNK5Eigen15PlainObjectBaseINS_5ArrayIiLi1ELin1ELi1ELi1ELin1EEEE4rowsEv, symObjAddr: 0xE898, symBinAddr: 0x1000124FC, symSize: 0x20 }
  - { offsetInCU: 0x51478, offset: 0x51478, size: 0x8, addend: 0x0, symName: __ZNSt3__118basic_stringstreamIcNS_11char_traitsIcEENS_9allocatorIcEEEC1B8ue170006Ev, symObjAddr: 0xE8B8, symBinAddr: 0x10001251C, symSize: 0x104 }
  - { offsetInCU: 0x514A2, offset: 0x514A2, size: 0x8, addend: 0x0, symName: __ZNK5Eigen15PlainObjectBaseINS_5ArrayIiLi1ELin1ELi1ELi1ELin1EEEE5coeffEll, symObjAddr: 0xE9BC, symBinAddr: 0x100012620, symSize: 0x6C }
  - { offsetInCU: 0x514E4, offset: 0x514E4, size: 0x8, addend: 0x0, symName: __ZNKSt3__118basic_stringstreamIcNS_11char_traitsIcEENS_9allocatorIcEEE3strB8ue170006Ev, symObjAddr: 0xEA54, symBinAddr: 0x1000126B8, symSize: 0x30 }
  - { offsetInCU: 0x5150A, offset: 0x5150A, size: 0x8, addend: 0x0, symName: __ZNKSt3__112basic_stringIcNS_11char_traitsIcEENS_9allocatorIcEEE6lengthB8ue170006Ev, symObjAddr: 0xEA84, symBinAddr: 0x1000126E8, symSize: 0x24 }
  - { offsetInCU: 0x51535, offset: 0x51535, size: 0x8, addend: 0x0, symName: __ZNSt3__118basic_stringstreamIcNS_11char_traitsIcEENS_9allocatorIcEEED1Ev, symObjAddr: 0xEAA8, symBinAddr: 0x10001270C, symSize: 0x40 }
  - { offsetInCU: 0x51562, offset: 0x51562, size: 0x8, addend: 0x0, symName: __ZNSt3__19basic_iosIcNS_11char_traitsIcEEE4fillB8ue170006Ec, symObjAddr: 0xEAE8, symBinAddr: 0x10001274C, symSize: 0x74 }
  - { offsetInCU: 0x515A8, offset: 0x515A8, size: 0x8, addend: 0x0, symName: __ZNK5Eigen9EigenBaseINS_5ArrayIiLi1ELin1ELi1ELi1ELin1EEEE4rowsEv, symObjAddr: 0xEB5C, symBinAddr: 0x1000127C0, symSize: 0x38 }
  - { offsetInCU: 0x515CE, offset: 0x515CE, size: 0x8, addend: 0x0, symName: __ZNK5Eigen9EigenBaseINS_5ArrayIiLi1ELin1ELi1ELi1ELin1EEEE4colsEv, symObjAddr: 0xEB94, symBinAddr: 0x1000127F8, symSize: 0x28 }
  - { offsetInCU: 0x515F4, offset: 0x515F4, size: 0x8, addend: 0x0, symName: __ZNK5Eigen9EigenBaseINS_5ArrayIiLi1ELin1ELi1ELi1ELin1EEEE7derivedEv, symObjAddr: 0xEBBC, symBinAddr: 0x100012820, symSize: 0x14 }
  - { offsetInCU: 0x5161A, offset: 0x5161A, size: 0x8, addend: 0x0, symName: __ZNKSt3__112basic_stringIcNS_11char_traitsIcEENS_9allocatorIcEEE4sizeB8ue170006Ev, symObjAddr: 0xEBD0, symBinAddr: 0x100012834, symSize: 0x54 }
  - { offsetInCU: 0x51640, offset: 0x51640, size: 0x8, addend: 0x0, symName: __ZNKSt3__112basic_stringIcNS_11char_traitsIcEENS_9allocatorIcEEE15__get_long_sizeB8ue170006Ev, symObjAddr: 0xEC24, symBinAddr: 0x100012888, symSize: 0x28 }
  - { offsetInCU: 0x51666, offset: 0x51666, size: 0x8, addend: 0x0, symName: __ZNKSt3__112basic_stringIcNS_11char_traitsIcEENS_9allocatorIcEEE16__get_short_sizeB8ue170006Ev, symObjAddr: 0xEC4C, symBinAddr: 0x1000128B0, symSize: 0x34 }
  - { offsetInCU: 0x5168C, offset: 0x5168C, size: 0x8, addend: 0x0, symName: __ZNK5Eigen12DenseStorageIiLin1ELi1ELin1ELi1EE4colsEv, symObjAddr: 0xEC80, symBinAddr: 0x1000128E4, symSize: 0x18 }
  - { offsetInCU: 0x516B2, offset: 0x516B2, size: 0x8, addend: 0x0, symName: __ZN5Eigen12DenseStorageIiLin1ELi1ELin1ELi1EE4rowsEv, symObjAddr: 0xEC98, symBinAddr: 0x1000128FC, symSize: 0x8 }
  - { offsetInCU: 0x516C6, offset: 0x516C6, size: 0x8, addend: 0x0, symName: __ZNSt3__19basic_iosIcNS_11char_traitsIcEEEC2B8ue170006Ev, symObjAddr: 0xECA0, symBinAddr: 0x100012904, symSize: 0x44 }
  - { offsetInCU: 0x516F0, offset: 0x516F0, size: 0x8, addend: 0x0, symName: __ZNSt3__114basic_iostreamIcNS_11char_traitsIcEEEC2B8ue170006EPNS_15basic_streambufIcS2_EE, symObjAddr: 0xECE4, symBinAddr: 0x100012948, symSize: 0xAC }
  - { offsetInCU: 0x51736, offset: 0x51736, size: 0x8, addend: 0x0, symName: __ZNSt3__115basic_stringbufIcNS_11char_traitsIcEENS_9allocatorIcEEEC1B8ue170006Ej, symObjAddr: 0xED90, symBinAddr: 0x1000129F4, symSize: 0x34 }
  - { offsetInCU: 0x5176F, offset: 0x5176F, size: 0x8, addend: 0x0, symName: __ZNSt3__18ios_baseC2B8ue170006Ev, symObjAddr: 0xEDC4, symBinAddr: 0x100012A28, symSize: 0x24 }
  - { offsetInCU: 0x51799, offset: 0x51799, size: 0x8, addend: 0x0, symName: __ZNSt3__113basic_istreamIcNS_11char_traitsIcEEEC2B8ue170006EPNS_15basic_streambufIcS2_EE, symObjAddr: 0xEDE8, symBinAddr: 0x100012A4C, symSize: 0x64 }
  - { offsetInCU: 0x517DE, offset: 0x517DE, size: 0x8, addend: 0x0, symName: __ZNSt3__113basic_ostreamIcNS_11char_traitsIcEEEC2B8ue170006Ev, symObjAddr: 0xEE4C, symBinAddr: 0x100012AB0, symSize: 0x34 }
  - { offsetInCU: 0x51815, offset: 0x51815, size: 0x8, addend: 0x0, symName: __ZNSt3__19basic_iosIcNS_11char_traitsIcEEE4initB8ue170006EPNS_15basic_streambufIcS2_EE, symObjAddr: 0xEE80, symBinAddr: 0x100012AE4, symSize: 0x44 }
  - { offsetInCU: 0x5184C, offset: 0x5184C, size: 0x8, addend: 0x0, symName: __ZNSt3__115basic_stringbufIcNS_11char_traitsIcEENS_9allocatorIcEEEC2B8ue170006Ej, symObjAddr: 0xEEC4, symBinAddr: 0x100012B28, symSize: 0x60 }
  - { offsetInCU: 0x51885, offset: 0x51885, size: 0x8, addend: 0x0, symName: __ZNSt3__112basic_stringIcNS_11char_traitsIcEENS_9allocatorIcEEEC1B8ue170006Ev, symObjAddr: 0xEF24, symBinAddr: 0x100012B88, symSize: 0x2C }
  - { offsetInCU: 0x518AF, offset: 0x518AF, size: 0x8, addend: 0x0, symName: __ZNSt3__112basic_stringIcNS_11char_traitsIcEENS_9allocatorIcEEEC2B8ue170006Ev, symObjAddr: 0xEF50, symBinAddr: 0x100012BB4, symSize: 0x48 }
  - { offsetInCU: 0x518D9, offset: 0x518D9, size: 0x8, addend: 0x0, symName: __ZNSt3__112basic_stringIcNS_11char_traitsIcEENS_9allocatorIcEEE14__default_initB8ue170006Ev, symObjAddr: 0xEF98, symBinAddr: 0x100012BFC, symSize: 0x40 }
  - { offsetInCU: 0x518FF, offset: 0x518FF, size: 0x8, addend: 0x0, symName: __ZNSt3__117__compressed_pairINS_12basic_stringIcNS_11char_traitsIcEENS_9allocatorIcEEE5__repES5_E5firstB8ue170006Ev, symObjAddr: 0xEFD8, symBinAddr: 0x100012C3C, symSize: 0x24 }
  - { offsetInCU: 0x51925, offset: 0x51925, size: 0x8, addend: 0x0, symName: __ZNSt3__122__compressed_pair_elemINS_12basic_stringIcNS_11char_traitsIcEENS_9allocatorIcEEE5__repELi0ELb0EE5__getB8ue170006Ev, symObjAddr: 0xEFFC, symBinAddr: 0x100012C60, symSize: 0x14 }
  - { offsetInCU: 0x5194B, offset: 0x5194B, size: 0x8, addend: 0x0, symName: __ZNK5Eigen12DenseStorageIiLin1ELi1ELin1ELi1EE4dataEv, symObjAddr: 0xF010, symBinAddr: 0x100012C74, symSize: 0x18 }
  - { offsetInCU: 0x51971, offset: 0x51971, size: 0x8, addend: 0x0, symName: __ZNSt3__118basic_stringstreamIcNS_11char_traitsIcEENS_9allocatorIcEEED2Ev, symObjAddr: 0xF07C, symBinAddr: 0x100012CE0, symSize: 0x6C }
  - { offsetInCU: 0x519AB, offset: 0x519AB, size: 0x8, addend: 0x0, symName: __ZThn16_NSt3__118basic_stringstreamIcNS_11char_traitsIcEENS_9allocatorIcEEED1Ev, symObjAddr: 0xF0E8, symBinAddr: 0x100012D4C, symSize: 0x1C }
  - { offsetInCU: 0x519C2, offset: 0x519C2, size: 0x8, addend: 0x0, symName: __ZTv0_n24_NSt3__118basic_stringstreamIcNS_11char_traitsIcEENS_9allocatorIcEEED1Ev, symObjAddr: 0xF104, symBinAddr: 0x100012D68, symSize: 0x28 }
  - { offsetInCU: 0x519DE, offset: 0x519DE, size: 0x8, addend: 0x0, symName: __ZNSt3__115basic_stringbufIcNS_11char_traitsIcEENS_9allocatorIcEEED1Ev, symObjAddr: 0xF12C, symBinAddr: 0x100012D90, symSize: 0x2C }
  - { offsetInCU: 0x51A0B, offset: 0x51A0B, size: 0x8, addend: 0x0, symName: __ZNSt3__115basic_stringbufIcNS_11char_traitsIcEENS_9allocatorIcEEED2Ev, symObjAddr: 0xF158, symBinAddr: 0x100012DBC, symSize: 0x48 }
  - { offsetInCU: 0x51A38, offset: 0x51A38, size: 0x8, addend: 0x0, symName: __ZN5Eigen5ArrayIiLi1ELin1ELi1ELi1ELin1EEC1INS_9TransposeINS0_IiLin1ELi1ELi0ELin1ELi1EEEEEEERKT_, symObjAddr: 0xF1A0, symBinAddr: 0x100012E04, symSize: 0x34 }
  - { offsetInCU: 0x51A79, offset: 0x51A79, size: 0x8, addend: 0x0, symName: __ZN5Eigen5ArrayIiLi1ELin1ELi1ELi1ELin1EEC2INS_9TransposeINS0_IiLin1ELi1ELi0ELin1ELi1EEEEEEERKT_, symObjAddr: 0xF1D4, symBinAddr: 0x100012E38, symSize: 0x6C }
  - { offsetInCU: 0x51ABA, offset: 0x51ABA, size: 0x8, addend: 0x0, symName: __ZN5Eigen15PlainObjectBaseINS_5ArrayIiLi1ELin1ELi1ELi1ELin1EEEEC2Ev, symObjAddr: 0xF240, symBinAddr: 0x100012EA4, symSize: 0x34 }
  - { offsetInCU: 0x51AE4, offset: 0x51AE4, size: 0x8, addend: 0x0, symName: __ZN5Eigen15PlainObjectBaseINS_5ArrayIiLi1ELin1ELi1ELi1ELin1EEEE22_check_template_paramsEv, symObjAddr: 0xF274, symBinAddr: 0x100012ED8, symSize: 0x4 }
  - { offsetInCU: 0x51AF8, offset: 0x51AF8, size: 0x8, addend: 0x0, symName: __ZN5Eigen15PlainObjectBaseINS_5ArrayIiLi1ELin1ELi1ELi1ELin1EEEE6_init1INS_9TransposeINS1_IiLin1ELi1ELi0ELin1ELi1EEEEES7_EEvRKNS_9DenseBaseIT0_EE, symObjAddr: 0xF278, symBinAddr: 0x100012EDC, symSize: 0x2C }
  - { offsetInCU: 0x51B3F, offset: 0x51B3F, size: 0x8, addend: 0x0, symName: __ZN5Eigen15PlainObjectBaseINS_5ArrayIiLi1ELin1ELi1ELi1ELin1EEEED2Ev, symObjAddr: 0xF2A4, symBinAddr: 0x100012F08, symSize: 0x2C }
  - { offsetInCU: 0x51B6B, offset: 0x51B6B, size: 0x8, addend: 0x0, symName: __ZN5Eigen9ArrayBaseINS_5ArrayIiLi1ELin1ELi1ELi1ELin1EEEEC2Ev, symObjAddr: 0xF2D0, symBinAddr: 0x100012F34, symSize: 0x2C }
  - { offsetInCU: 0x51B95, offset: 0x51B95, size: 0x8, addend: 0x0, symName: __ZN5Eigen12DenseStorageIiLin1ELi1ELin1ELi1EEC1Ev, symObjAddr: 0xF2FC, symBinAddr: 0x100012F60, symSize: 0x2C }
  - { offsetInCU: 0x51BBF, offset: 0x51BBF, size: 0x8, addend: 0x0, symName: __ZN5Eigen9DenseBaseINS_5ArrayIiLi1ELin1ELi1ELi1ELin1EEEEC2Ev, symObjAddr: 0xF328, symBinAddr: 0x100012F8C, symSize: 0x14 }
  - { offsetInCU: 0x51BE9, offset: 0x51BE9, size: 0x8, addend: 0x0, symName: __ZN5Eigen12DenseStorageIiLin1ELi1ELin1ELi1EEC2Ev, symObjAddr: 0xF33C, symBinAddr: 0x100012FA0, symSize: 0x1C }
  - { offsetInCU: 0x51C13, offset: 0x51C13, size: 0x8, addend: 0x0, symName: __ZN5Eigen15PlainObjectBaseINS_5ArrayIiLi1ELin1ELi1ELi1ELin1EEEE12_set_noaliasINS_9TransposeINS1_IiLin1ELi1ELi0ELin1ELi1EEEEEEERS2_RKNS_9DenseBaseIT_EE, symObjAddr: 0xF358, symBinAddr: 0x100012FBC, symSize: 0x60 }
  - { offsetInCU: 0x51C51, offset: 0x51C51, size: 0x8, addend: 0x0, symName: __ZN5Eigen9EigenBaseINS_5ArrayIiLi1ELin1ELi1ELi1ELin1EEEE7derivedEv, symObjAddr: 0xF3F4, symBinAddr: 0x100013058, symSize: 0x14 }
  - { offsetInCU: 0x51C77, offset: 0x51C77, size: 0x8, addend: 0x0, symName: __ZN5Eigen8internal10AssignmentINS_5ArrayIiLi1ELin1ELi1ELi1ELin1EEENS_9TransposeINS2_IiLin1ELi1ELi0ELin1ELi1EEEEENS0_9assign_opIiiEENS0_11Dense2DenseEvE3runERS3_RKS6_RKS8_, symObjAddr: 0xF408, symBinAddr: 0x10001306C, symSize: 0x40 }
  - { offsetInCU: 0x51CB9, offset: 0x51CB9, size: 0x8, addend: 0x0, symName: __ZN5Eigen8internal9evaluatorINS_5ArrayIiLi1ELin1ELi1ELi1ELin1EEEEC1ERKS3_, symObjAddr: 0xF634, symBinAddr: 0x100013298, symSize: 0x34 }
  - { offsetInCU: 0x51CF2, offset: 0x51CF2, size: 0x8, addend: 0x0, symName: __ZNK5Eigen9EigenBaseINS_5ArrayIiLi1ELin1ELi1ELi1ELin1EEEE18const_cast_derivedEv, symObjAddr: 0xF668, symBinAddr: 0x1000132CC, symSize: 0x14 }
  - { offsetInCU: 0x51D18, offset: 0x51D18, size: 0x8, addend: 0x0, symName: __ZN5Eigen8internal31generic_dense_assignment_kernelINS0_9evaluatorINS_5ArrayIiLi1ELin1ELi1ELi1ELin1EEEEENS2_INS_9TransposeINS3_IiLin1ELi1ELi0ELin1ELi1EEEEEEENS0_9assign_opIiiEELi0EEC1ERS5_RKS9_RKSB_RS4_, symObjAddr: 0xF67C, symBinAddr: 0x1000132E0, symSize: 0x4C }
  - { offsetInCU: 0x51D7E, offset: 0x51D7E, size: 0x8, addend: 0x0, symName: __ZN5Eigen8internal9evaluatorINS_5ArrayIiLi1ELin1ELi1ELi1ELin1EEEED1Ev, symObjAddr: 0xF770, symBinAddr: 0x1000133D4, symSize: 0x2C }
  - { offsetInCU: 0x51DAB, offset: 0x51DAB, size: 0x8, addend: 0x0, symName: __ZN5Eigen15PlainObjectBaseINS_5ArrayIiLi1ELin1ELi1ELi1ELin1EEEE6resizeEll, symObjAddr: 0xF79C, symBinAddr: 0x100013400, symSize: 0x168 }
  - { offsetInCU: 0x51E27, offset: 0x51E27, size: 0x8, addend: 0x0, symName: __ZN5Eigen12DenseStorageIiLin1ELi1ELin1ELi1EE6resizeElll, symObjAddr: 0xF904, symBinAddr: 0x100013568, symSize: 0xAC }
  - { offsetInCU: 0x51E76, offset: 0x51E76, size: 0x8, addend: 0x0, symName: __ZN5Eigen8internal9evaluatorINS_5ArrayIiLi1ELin1ELi1ELi1ELin1EEEEC2ERKS3_, symObjAddr: 0xF9B0, symBinAddr: 0x100013614, symSize: 0x34 }
  - { offsetInCU: 0x51EAF, offset: 0x51EAF, size: 0x8, addend: 0x0, symName: __ZN5Eigen8internal9evaluatorINS_15PlainObjectBaseINS_5ArrayIiLi1ELin1ELi1ELi1ELin1EEEEEEC2ERKS5_, symObjAddr: 0xF9E4, symBinAddr: 0x100013648, symSize: 0x78 }
  - { offsetInCU: 0x51EE7, offset: 0x51EE7, size: 0x8, addend: 0x0, symName: __ZN5Eigen8internal14evaluator_baseINS_5ArrayIiLi1ELin1ELi1ELi1ELin1EEEEC2Ev, symObjAddr: 0xFA5C, symBinAddr: 0x1000136C0, symSize: 0x14 }
  - { offsetInCU: 0x51F11, offset: 0x51F11, size: 0x8, addend: 0x0, symName: __ZNK5Eigen15PlainObjectBaseINS_5ArrayIiLi1ELin1ELi1ELi1ELin1EEEE4dataEv, symObjAddr: 0xFA70, symBinAddr: 0x1000136D4, symSize: 0x24 }
  - { offsetInCU: 0x51F37, offset: 0x51F37, size: 0x8, addend: 0x0, symName: __ZN5Eigen8internal14evaluator_baseINS_5ArrayIiLi1ELin1ELi1ELi1ELin1EEEED2Ev, symObjAddr: 0xFA94, symBinAddr: 0x1000136F8, symSize: 0x14 }
  - { offsetInCU: 0x51F61, offset: 0x51F61, size: 0x8, addend: 0x0, symName: __ZN5Eigen8internal31generic_dense_assignment_kernelINS0_9evaluatorINS_5ArrayIiLi1ELin1ELi1ELi1ELin1EEEEENS2_INS_9TransposeINS3_IiLin1ELi1ELi0ELin1ELi1EEEEEEENS0_9assign_opIiiEELi0EEC2ERS5_RKS9_RKSB_RS4_, symObjAddr: 0xFAA8, symBinAddr: 0x10001370C, symSize: 0x44 }
  - { offsetInCU: 0x51FC7, offset: 0x51FC7, size: 0x8, addend: 0x0, symName: __ZNK5Eigen8internal31generic_dense_assignment_kernelINS0_9evaluatorINS_5ArrayIiLi1ELin1ELi1ELi1ELin1EEEEENS2_INS_9TransposeINS3_IiLin1ELi1ELi0ELin1ELi1EEEEEEENS0_9assign_opIiiEELi0EE4sizeEv, symObjAddr: 0xFAEC, symBinAddr: 0x100013750, symSize: 0x28 }
  - { offsetInCU: 0x51FED, offset: 0x51FED, size: 0x8, addend: 0x0, symName: __ZN5Eigen8internal31unaligned_dense_assignment_loopILb1EE3runINS0_31generic_dense_assignment_kernelINS0_9evaluatorINS_5ArrayIiLi1ELin1ELi1ELi1ELin1EEEEENS5_INS_9TransposeINS6_IiLin1ELi1ELi0ELin1ELi1EEEEEEENS0_9assign_opIiiEELi0EEEEEvRT_ll, symObjAddr: 0xFB14, symBinAddr: 0x100013778, symSize: 0x18 }
  - { offsetInCU: 0x5202C, offset: 0x5202C, size: 0x8, addend: 0x0, symName: __ZN5Eigen8internal31generic_dense_assignment_kernelINS0_9evaluatorINS_5ArrayIiLi1ELin1ELi1ELi1ELin1EEEEENS2_INS_9TransposeINS3_IiLin1ELi1ELi0ELin1ELi1EEEEEEENS0_9assign_opIiiEELi0EE12assignPacketILi16ELi16E17__simd128_int32_tEEvl, symObjAddr: 0xFB2C, symBinAddr: 0x100013790, symSize: 0x64 }
  - { offsetInCU: 0x5207E, offset: 0x5207E, size: 0x8, addend: 0x0, symName: __ZN5Eigen8internal31unaligned_dense_assignment_loopILb0EE3runINS0_31generic_dense_assignment_kernelINS0_9evaluatorINS_5ArrayIiLi1ELin1ELi1ELi1ELin1EEEEENS5_INS_9TransposeINS6_IiLin1ELi1ELi0ELin1ELi1EEEEEEENS0_9assign_opIiiEELi0EEEEEvRT_ll, symObjAddr: 0xFB90, symBinAddr: 0x1000137F4, symSize: 0x68 }
  - { offsetInCU: 0x520E6, offset: 0x520E6, size: 0x8, addend: 0x0, symName: __ZN5Eigen8internal9evaluatorINS_15PlainObjectBaseINS_5ArrayIiLi1ELin1ELi1ELi1ELin1EEEEEE8coeffRefEl, symObjAddr: 0xFBF8, symBinAddr: 0x10001385C, symSize: 0x24 }
  - { offsetInCU: 0x5211A, offset: 0x5211A, size: 0x8, addend: 0x0, symName: __ZNK5Eigen8internal15unary_evaluatorINS_9TransposeINS_5ArrayIiLin1ELi1ELi0ELin1ELi1EEEEENS0_10IndexBasedEiE6packetILi16E17__simd128_int32_tEET0_l, symObjAddr: 0xFC1C, symBinAddr: 0x100013880, symSize: 0x2C }
  - { offsetInCU: 0x52162, offset: 0x52162, size: 0x8, addend: 0x0, symName: __ZN5Eigen8internal31generic_dense_assignment_kernelINS0_9evaluatorINS_5ArrayIiLi1ELin1ELi1ELi1ELin1EEEEENS2_INS_9TransposeINS3_IiLin1ELi1ELi0ELin1ELi1EEEEEEENS0_9assign_opIiiEELi0EE11assignCoeffEl, symObjAddr: 0xFC48, symBinAddr: 0x1000138AC, symSize: 0x60 }
  - { offsetInCU: 0x52197, offset: 0x52197, size: 0x8, addend: 0x0, symName: __ZNK5Eigen8internal15unary_evaluatorINS_9TransposeINS_5ArrayIiLin1ELi1ELi0ELin1ELi1EEEEENS0_10IndexBasedEiE5coeffEl, symObjAddr: 0xFCA8, symBinAddr: 0x10001390C, symSize: 0x2C }
  - { offsetInCU: 0x521CC, offset: 0x521CC, size: 0x8, addend: 0x0, symName: __ZN5Eigen8internal9evaluatorINS_5ArrayIiLi1ELin1ELi1ELi1ELin1EEEED2Ev, symObjAddr: 0xFCD4, symBinAddr: 0x100013938, symSize: 0x2C }
  - { offsetInCU: 0x521F9, offset: 0x521F9, size: 0x8, addend: 0x0, symName: __ZN5Eigen8internal9evaluatorINS_15PlainObjectBaseINS_5ArrayIiLi1ELin1ELi1ELi1ELin1EEEEEED2Ev, symObjAddr: 0xFD00, symBinAddr: 0x100013964, symSize: 0x2C }
  - { offsetInCU: 0x52225, offset: 0x52225, size: 0x8, addend: 0x0, symName: __ZN5Eigen12DenseStorageIiLin1ELi1ELin1ELi1EED1Ev, symObjAddr: 0xFD2C, symBinAddr: 0x100013990, symSize: 0x2C }
  - { offsetInCU: 0x5224F, offset: 0x5224F, size: 0x8, addend: 0x0, symName: __ZN5Eigen12DenseStorageIiLin1ELi1ELin1ELi1EED2Ev, symObjAddr: 0xFD58, symBinAddr: 0x1000139BC, symSize: 0x44 }
  - { offsetInCU: 0x52279, offset: 0x52279, size: 0x8, addend: 0x0, symName: __ZN5Eigen8IOFormatC2EiiRKNSt3__112basic_stringIcNS1_11char_traitsIcEENS1_9allocatorIcEEEES9_S9_S9_S9_S9_c, symObjAddr: 0xFD9C, symBinAddr: 0x100013A00, symSize: 0x284 }
  - { offsetInCU: 0x52338, offset: 0x52338, size: 0x8, addend: 0x0, symName: __ZNSt3__112basic_stringIcNS_11char_traitsIcEENS_9allocatorIcEEEixB8ue170006Em, symObjAddr: 0x10020, symBinAddr: 0x100013C84, symSize: 0x30 }
  - { offsetInCU: 0x5236D, offset: 0x5236D, size: 0x8, addend: 0x0, symName: __ZNSt3__112basic_stringIcNS_11char_traitsIcEENS_9allocatorIcEEEpLB8ue170006Ec, symObjAddr: 0x10050, symBinAddr: 0x100013CB4, symSize: 0x34 }
  - { offsetInCU: 0x523A2, offset: 0x523A2, size: 0x8, addend: 0x0, symName: __ZNSt3__112basic_stringIcNS_11char_traitsIcEENS_9allocatorIcEEE13__get_pointerB8ue170006Ev, symObjAddr: 0x10084, symBinAddr: 0x100013CE8, symSize: 0x54 }
  - { offsetInCU: 0x523C8, offset: 0x523C8, size: 0x8, addend: 0x0, symName: __ZNSt3__112basic_stringIcNS_11char_traitsIcEENS_9allocatorIcEEE18__get_long_pointerB8ue170006Ev, symObjAddr: 0x100D8, symBinAddr: 0x100013D3C, symSize: 0x28 }
  - { offsetInCU: 0x523EE, offset: 0x523EE, size: 0x8, addend: 0x0, symName: __ZNSt3__112basic_stringIcNS_11char_traitsIcEENS_9allocatorIcEEE19__get_short_pointerB8ue170006Ev, symObjAddr: 0x10100, symBinAddr: 0x100013D64, symSize: 0x28 }
  - { offsetInCU: 0x52414, offset: 0x52414, size: 0x8, addend: 0x0, symName: __ZNSt3__114pointer_traitsIPcE10pointer_toB8ue170006ERc, symObjAddr: 0x10128, symBinAddr: 0x100013D8C, symSize: 0x14 }
  - { offsetInCU: 0x52437, offset: 0x52437, size: 0x8, addend: 0x0, symName: __ZN5Eigen8IOFormatD2Ev, symObjAddr: 0x1013C, symBinAddr: 0x100013DA0, symSize: 0x74 }
  - { offsetInCU: 0x52463, offset: 0x52463, size: 0x8, addend: 0x0, symName: __ZN5Eigen5ArrayIiLi1ELin1ELi1ELi1ELin1EED2Ev, symObjAddr: 0x101B0, symBinAddr: 0x100013E14, symSize: 0x2C }
  - { offsetInCU: 0x5248F, offset: 0x5248F, size: 0x8, addend: 0x0, symName: __ZN5Eigen5ArrayIiLin1ELin1ELi0ELin1ELin1EEC2INS_5BlockIS1_Lin1ELin1ELb0EEEEERKNS_9EigenBaseIT_EENS_8internal9enable_ifIXsr8internal14is_convertibleINS6_6ScalarEiEE5valueENS1_11PrivateTypeEE4typeE, symObjAddr: 0x101DC, symBinAddr: 0x100013E40, symSize: 0x40 }
  - { offsetInCU: 0x524DC, offset: 0x524DC, size: 0x8, addend: 0x0, symName: __ZN5Eigen15PlainObjectBaseINS_5ArrayIiLin1ELin1ELi0ELin1ELin1EEEEC2INS_5BlockIS2_Lin1ELin1ELb0EEEEERKNS_9DenseBaseIT_EE, symObjAddr: 0x1021C, symBinAddr: 0x100013E80, symSize: 0x80 }
  - { offsetInCU: 0x5251E, offset: 0x5251E, size: 0x8, addend: 0x0, symName: __ZN5Eigen15PlainObjectBaseINS_5ArrayIiLin1ELin1ELi0ELin1ELin1EEEE10resizeLikeINS_5BlockIS2_Lin1ELin1ELb0EEEEEvRKNS_9EigenBaseIT_EE, symObjAddr: 0x1029C, symBinAddr: 0x100013F00, symSize: 0x11C }
  - { offsetInCU: 0x525B2, offset: 0x525B2, size: 0x8, addend: 0x0, symName: __ZN5Eigen15PlainObjectBaseINS_5ArrayIiLin1ELin1ELi0ELin1ELin1EEEE12_set_noaliasINS_5BlockIS2_Lin1ELin1ELb0EEEEERS2_RKNS_9DenseBaseIT_EE, symObjAddr: 0x103B8, symBinAddr: 0x10001401C, symSize: 0x60 }
  - { offsetInCU: 0x525F0, offset: 0x525F0, size: 0x8, addend: 0x0, symName: __ZN5Eigen8internal10AssignmentINS_5ArrayIiLin1ELin1ELi0ELin1ELin1EEENS_5BlockIS3_Lin1ELin1ELb0EEENS0_9assign_opIiiEENS0_11Dense2DenseEvE3runERS3_RKS5_RKS7_, symObjAddr: 0x10454, symBinAddr: 0x1000140B8, symSize: 0x40 }
  - { offsetInCU: 0x52632, offset: 0x52632, size: 0x8, addend: 0x0, symName: __ZN5Eigen8internal27checkTransposeAliasing_implINS_5ArrayIiLin1ELin1ELi0ELin1ELin1EEENS_5BlockIS3_Lin1ELin1ELb0EEELb0EE3runERKS3_RKS5_, symObjAddr: 0x105CC, symBinAddr: 0x100014230, symSize: 0x14 }
  - { offsetInCU: 0x5265D, offset: 0x5265D, size: 0x8, addend: 0x0, symName: __ZN5Eigen8internal31generic_dense_assignment_kernelINS0_9evaluatorINS_5ArrayIiLin1ELin1ELi0ELin1ELin1EEEEENS2_INS_5BlockIS4_Lin1ELin1ELb0EEEEENS0_9assign_opIiiEELi0EEC1ERS5_RKS8_RKSA_RS4_, symObjAddr: 0x106D8, symBinAddr: 0x10001433C, symSize: 0x4C }
  - { offsetInCU: 0x526C3, offset: 0x526C3, size: 0x8, addend: 0x0, symName: __ZN5Eigen8internal31generic_dense_assignment_kernelINS0_9evaluatorINS_5ArrayIiLin1ELin1ELi0ELin1ELin1EEEEENS2_INS_5BlockIS4_Lin1ELin1ELb0EEEEENS0_9assign_opIiiEELi0EEC2ERS5_RKS8_RKSA_RS4_, symObjAddr: 0x108FC, symBinAddr: 0x100014560, symSize: 0x44 }
  - { offsetInCU: 0x52729, offset: 0x52729, size: 0x8, addend: 0x0, symName: __ZNK5Eigen8internal31generic_dense_assignment_kernelINS0_9evaluatorINS_5ArrayIiLin1ELin1ELi0ELin1ELin1EEEEENS2_INS_5BlockIS4_Lin1ELin1ELb0EEEEENS0_9assign_opIiiEELi0EE10dstDataPtrEv, symObjAddr: 0x10940, symBinAddr: 0x1000145A4, symSize: 0x28 }
  - { offsetInCU: 0x5274F, offset: 0x5274F, size: 0x8, addend: 0x0, symName: __ZNK5Eigen8internal31generic_dense_assignment_kernelINS0_9evaluatorINS_5ArrayIiLin1ELin1ELi0ELin1ELin1EEEEENS2_INS_5BlockIS4_Lin1ELin1ELb0EEEEENS0_9assign_opIiiEELi0EE9innerSizeEv, symObjAddr: 0x10968, symBinAddr: 0x1000145CC, symSize: 0x28 }
  - { offsetInCU: 0x52775, offset: 0x52775, size: 0x8, addend: 0x0, symName: __ZNK5Eigen8internal31generic_dense_assignment_kernelINS0_9evaluatorINS_5ArrayIiLin1ELin1ELi0ELin1ELin1EEEEENS2_INS_5BlockIS4_Lin1ELin1ELb0EEEEENS0_9assign_opIiiEELi0EE9outerSizeEv, symObjAddr: 0x10990, symBinAddr: 0x1000145F4, symSize: 0x28 }
  - { offsetInCU: 0x5279B, offset: 0x5279B, size: 0x8, addend: 0x0, symName: __ZNK5Eigen8internal31generic_dense_assignment_kernelINS0_9evaluatorINS_5ArrayIiLin1ELin1ELi0ELin1ELin1EEEEENS2_INS_5BlockIS4_Lin1ELin1ELb0EEEEENS0_9assign_opIiiEELi0EE11outerStrideEv, symObjAddr: 0x109B8, symBinAddr: 0x10001461C, symSize: 0x28 }
  - { offsetInCU: 0x527C1, offset: 0x527C1, size: 0x8, addend: 0x0, symName: __ZN5Eigen8internal31generic_dense_assignment_kernelINS0_9evaluatorINS_5ArrayIiLin1ELin1ELi0ELin1ELin1EEEEENS2_INS_5BlockIS4_Lin1ELin1ELb0EEEEENS0_9assign_opIiiEELi0EE23assignCoeffByOuterInnerEll, symObjAddr: 0x109E0, symBinAddr: 0x100014644, symSize: 0x60 }
  - { offsetInCU: 0x52823, offset: 0x52823, size: 0x8, addend: 0x0, symName: __ZN5Eigen8internal31generic_dense_assignment_kernelINS0_9evaluatorINS_5ArrayIiLin1ELin1ELi0ELin1ELin1EEEEENS2_INS_5BlockIS4_Lin1ELin1ELb0EEEEENS0_9assign_opIiiEELi0EE24assignPacketByOuterInnerILi16ELi0E17__simd128_int32_tEEvll, symObjAddr: 0x10A40, symBinAddr: 0x1000146A4, symSize: 0x60 }
  - { offsetInCU: 0x528A2, offset: 0x528A2, size: 0x8, addend: 0x0, symName: __ZN5Eigen8internal31generic_dense_assignment_kernelINS0_9evaluatorINS_5ArrayIiLin1ELin1ELi0ELin1ELin1EEEEENS2_INS_5BlockIS4_Lin1ELin1ELb0EEEEENS0_9assign_opIiiEELi0EE20rowIndexByOuterInnerEll, symObjAddr: 0x10AA0, symBinAddr: 0x100014704, symSize: 0x18 }
  - { offsetInCU: 0x528D5, offset: 0x528D5, size: 0x8, addend: 0x0, symName: __ZN5Eigen8internal31generic_dense_assignment_kernelINS0_9evaluatorINS_5ArrayIiLin1ELin1ELi0ELin1ELin1EEEEENS2_INS_5BlockIS4_Lin1ELin1ELb0EEEEENS0_9assign_opIiiEELi0EE20colIndexByOuterInnerEll, symObjAddr: 0x10AB8, symBinAddr: 0x10001471C, symSize: 0x18 }
  - { offsetInCU: 0x52908, offset: 0x52908, size: 0x8, addend: 0x0, symName: __ZN5Eigen8internal31generic_dense_assignment_kernelINS0_9evaluatorINS_5ArrayIiLin1ELin1ELi0ELin1ELin1EEEEENS2_INS_5BlockIS4_Lin1ELin1ELb0EEEEENS0_9assign_opIiiEELi0EE11assignCoeffEll, symObjAddr: 0x10AD0, symBinAddr: 0x100014734, symSize: 0x6C }
  - { offsetInCU: 0x5294C, offset: 0x5294C, size: 0x8, addend: 0x0, symName: __ZNK5Eigen8internal17mapbase_evaluatorINS_5BlockINS_5ArrayIiLin1ELin1ELi0ELin1ELin1EEELin1ELin1ELb0EEES4_E5coeffEll, symObjAddr: 0x10B3C, symBinAddr: 0x1000147A0, symSize: 0x78 }
  - { offsetInCU: 0x52990, offset: 0x52990, size: 0x8, addend: 0x0, symName: __ZN5Eigen8internal31generic_dense_assignment_kernelINS0_9evaluatorINS_5ArrayIiLin1ELin1ELi0ELin1ELin1EEEEENS2_INS_5BlockIS4_Lin1ELin1ELb0EEEEENS0_9assign_opIiiEELi0EE12assignPacketILi16ELi0E17__simd128_int32_tEEvll, symObjAddr: 0x10BB4, symBinAddr: 0x100014818, symSize: 0x70 }
  - { offsetInCU: 0x529F1, offset: 0x529F1, size: 0x8, addend: 0x0, symName: __ZNK5Eigen8internal17mapbase_evaluatorINS_5BlockINS_5ArrayIiLin1ELin1ELi0ELin1ELin1EEELin1ELin1ELb0EEES4_E6packetILi0E17__simd128_int32_tEET0_ll, symObjAddr: 0x10C24, symBinAddr: 0x100014888, symSize: 0x8C }
  - { offsetInCU: 0x52A75, offset: 0x52A75, size: 0x8, addend: 0x0, symName: __ZN5Eigen9DenseBaseINS_5ArrayIfLin1ELin1ELi0ELin1ELin1EEEE8ConstantEllRKf, symObjAddr: 0x10CB0, symBinAddr: 0x100014914, symSize: 0x60 }
  - { offsetInCU: 0x52AB9, offset: 0x52AB9, size: 0x8, addend: 0x0, symName: __ZN5Eigen9DenseBaseINS_5ArrayIfLin1ELin1ELi0ELin1ELin1EEEE11NullaryExprINS_8internal18scalar_constant_opIfEEEEKNS_14CwiseNullaryOpIT_S2_EEllRKS9_, symObjAddr: 0x10D10, symBinAddr: 0x100014974, symSize: 0x48 }
  - { offsetInCU: 0x52B06, offset: 0x52B06, size: 0x8, addend: 0x0, symName: __ZN5Eigen14CwiseNullaryOpINS_8internal18scalar_constant_opIfEENS_5ArrayIfLin1ELin1ELi0ELin1ELin1EEEEC1EllRKS3_, symObjAddr: 0x10D58, symBinAddr: 0x1000149BC, symSize: 0x44 }
  - { offsetInCU: 0x52B5A, offset: 0x52B5A, size: 0x8, addend: 0x0, symName: __ZN5Eigen14CwiseNullaryOpINS_8internal18scalar_constant_opIfEENS_5ArrayIfLin1ELin1ELi0ELin1ELin1EEEEC2EllRKS3_, symObjAddr: 0x10D9C, symBinAddr: 0x100014A00, symSize: 0xDC }
  - { offsetInCU: 0x52BAE, offset: 0x52BAE, size: 0x8, addend: 0x0, symName: __ZN5Eigen9ArrayBaseINS_14CwiseNullaryOpINS_8internal18scalar_constant_opIfEENS_5ArrayIfLin1ELin1ELi0ELin1ELin1EEEEEEC2Ev, symObjAddr: 0x10E78, symBinAddr: 0x100014ADC, symSize: 0x2C }
  - { offsetInCU: 0x52BD8, offset: 0x52BD8, size: 0x8, addend: 0x0, symName: __ZN5Eigen9DenseBaseINS_14CwiseNullaryOpINS_8internal18scalar_constant_opIfEENS_5ArrayIfLin1ELin1ELi0ELin1ELin1EEEEEEC2Ev, symObjAddr: 0x10EA4, symBinAddr: 0x100014B08, symSize: 0x14 }
  - { offsetInCU: 0x52C02, offset: 0x52C02, size: 0x8, addend: 0x0, symName: __ZN5Eigen5ArrayIfLin1ELin1ELi0ELin1ELin1EEC2INS_14CwiseNullaryOpINS_8internal18scalar_constant_opIfEES1_EEEERKNS_9EigenBaseIT_EENS4_9enable_ifIXsr8internal14is_convertibleINS9_6ScalarEfEE5valueENS1_11PrivateTypeEE4typeE, symObjAddr: 0x10EB8, symBinAddr: 0x100014B1C, symSize: 0x40 }
  - { offsetInCU: 0x52C4F, offset: 0x52C4F, size: 0x8, addend: 0x0, symName: __ZNK5Eigen9EigenBaseINS_14CwiseNullaryOpINS_8internal18scalar_constant_opIfEENS_5ArrayIfLin1ELin1ELi0ELin1ELin1EEEEEE7derivedEv, symObjAddr: 0x10EF8, symBinAddr: 0x100014B5C, symSize: 0x14 }
  - { offsetInCU: 0x52C75, offset: 0x52C75, size: 0x8, addend: 0x0, symName: __ZN5Eigen15PlainObjectBaseINS_5ArrayIfLin1ELin1ELi0ELin1ELin1EEEEC2INS_14CwiseNullaryOpINS_8internal18scalar_constant_opIfEES2_EEEERKNS_9DenseBaseIT_EE, symObjAddr: 0x10F0C, symBinAddr: 0x100014B70, symSize: 0x84 }
  - { offsetInCU: 0x52CB7, offset: 0x52CB7, size: 0x8, addend: 0x0, symName: __ZN5Eigen9ArrayBaseINS_5ArrayIfLin1ELin1ELi0ELin1ELin1EEEEC2Ev, symObjAddr: 0x10F90, symBinAddr: 0x100014BF4, symSize: 0x2C }
  - { offsetInCU: 0x52CE1, offset: 0x52CE1, size: 0x8, addend: 0x0, symName: __ZN5Eigen12DenseStorageIfLin1ELin1ELin1ELi0EEC1Ev, symObjAddr: 0x10FBC, symBinAddr: 0x100014C20, symSize: 0x2C }
  - { offsetInCU: 0x52D0B, offset: 0x52D0B, size: 0x8, addend: 0x0, symName: __ZN5Eigen15PlainObjectBaseINS_5ArrayIfLin1ELin1ELi0ELin1ELin1EEEE22_check_template_paramsEv, symObjAddr: 0x10FE8, symBinAddr: 0x100014C4C, symSize: 0x4 }
  - { offsetInCU: 0x52D1F, offset: 0x52D1F, size: 0x8, addend: 0x0, symName: __ZN5Eigen15PlainObjectBaseINS_5ArrayIfLin1ELin1ELi0ELin1ELin1EEEE10resizeLikeINS_14CwiseNullaryOpINS_8internal18scalar_constant_opIfEES2_EEEEvRKNS_9EigenBaseIT_EE, symObjAddr: 0x10FEC, symBinAddr: 0x100014C50, symSize: 0x11C }
  - { offsetInCU: 0x52DB3, offset: 0x52DB3, size: 0x8, addend: 0x0, symName: __ZN5Eigen15PlainObjectBaseINS_5ArrayIfLin1ELin1ELi0ELin1ELin1EEEE12_set_noaliasINS_14CwiseNullaryOpINS_8internal18scalar_constant_opIfEES2_EEEERS2_RKNS_9DenseBaseIT_EE, symObjAddr: 0x11108, symBinAddr: 0x100014D6C, symSize: 0x60 }
  - { offsetInCU: 0x52DF1, offset: 0x52DF1, size: 0x8, addend: 0x0, symName: __ZN5Eigen9DenseBaseINS_5ArrayIfLin1ELin1ELi0ELin1ELin1EEEEC2Ev, symObjAddr: 0x11168, symBinAddr: 0x100014DCC, symSize: 0x14 }
  - { offsetInCU: 0x52E1B, offset: 0x52E1B, size: 0x8, addend: 0x0, symName: __ZN5Eigen12DenseStorageIfLin1ELin1ELin1ELi0EEC2Ev, symObjAddr: 0x1117C, symBinAddr: 0x100014DE0, symSize: 0x20 }
  - { offsetInCU: 0x52E45, offset: 0x52E45, size: 0x8, addend: 0x0, symName: __ZNK5Eigen14CwiseNullaryOpINS_8internal18scalar_constant_opIfEENS_5ArrayIfLin1ELin1ELi0ELin1ELin1EEEE4rowsEv, symObjAddr: 0x1119C, symBinAddr: 0x100014E00, symSize: 0x24 }
  - { offsetInCU: 0x52E6B, offset: 0x52E6B, size: 0x8, addend: 0x0, symName: __ZNK5Eigen14CwiseNullaryOpINS_8internal18scalar_constant_opIfEENS_5ArrayIfLin1ELin1ELi0ELin1ELin1EEEE4colsEv, symObjAddr: 0x111C0, symBinAddr: 0x100014E24, symSize: 0x28 }
  - { offsetInCU: 0x52E91, offset: 0x52E91, size: 0x8, addend: 0x0, symName: __ZN5Eigen15PlainObjectBaseINS_5ArrayIfLin1ELin1ELi0ELin1ELin1EEEE6resizeEll, symObjAddr: 0x111E8, symBinAddr: 0x100014E4C, symSize: 0x14C }
  - { offsetInCU: 0x52F0D, offset: 0x52F0D, size: 0x8, addend: 0x0, symName: __ZN5Eigen12DenseStorageIfLin1ELin1ELin1ELi0EE6resizeElll, symObjAddr: 0x11334, symBinAddr: 0x100014F98, symSize: 0xB4 }
  - { offsetInCU: 0x52F60, offset: 0x52F60, size: 0x8, addend: 0x0, symName: __ZN5Eigen9EigenBaseINS_5ArrayIfLin1ELin1ELi0ELin1ELin1EEEE7derivedEv, symObjAddr: 0x11424, symBinAddr: 0x100015088, symSize: 0x14 }
  - { offsetInCU: 0x52F86, offset: 0x52F86, size: 0x8, addend: 0x0, symName: __ZN5Eigen8internal10AssignmentINS_5ArrayIfLin1ELin1ELi0ELin1ELin1EEENS_14CwiseNullaryOpINS0_18scalar_constant_opIfEES3_EENS0_9assign_opIffEENS0_11Dense2DenseEvE3runERS3_RKS7_RKS9_, symObjAddr: 0x11438, symBinAddr: 0x10001509C, symSize: 0x40 }
  - { offsetInCU: 0x52FC8, offset: 0x52FC8, size: 0x8, addend: 0x0, symName: __ZNK5Eigen15PlainObjectBaseINS_5ArrayIfLin1ELin1ELi0ELin1ELin1EEEE4rowsEv, symObjAddr: 0x11544, symBinAddr: 0x1000151A8, symSize: 0x24 }
  - { offsetInCU: 0x52FEE, offset: 0x52FEE, size: 0x8, addend: 0x0, symName: __ZNK5Eigen15PlainObjectBaseINS_5ArrayIfLin1ELin1ELi0ELin1ELin1EEEE4colsEv, symObjAddr: 0x11568, symBinAddr: 0x1000151CC, symSize: 0x24 }
  - { offsetInCU: 0x53014, offset: 0x53014, size: 0x8, addend: 0x0, symName: __ZN5Eigen8internal27checkTransposeAliasing_implINS_5ArrayIfLin1ELin1ELi0ELin1ELin1EEENS_14CwiseNullaryOpINS0_18scalar_constant_opIfEES3_EELb0EE3runERKS3_RKS7_, symObjAddr: 0x1158C, symBinAddr: 0x1000151F0, symSize: 0x14 }
  - { offsetInCU: 0x5303F, offset: 0x5303F, size: 0x8, addend: 0x0, symName: __ZNK5Eigen12DenseStorageIfLin1ELin1ELin1ELi0EE4rowsEv, symObjAddr: 0x115A0, symBinAddr: 0x100015204, symSize: 0x18 }
  - { offsetInCU: 0x53065, offset: 0x53065, size: 0x8, addend: 0x0, symName: __ZNK5Eigen12DenseStorageIfLin1ELin1ELin1ELi0EE4colsEv, symObjAddr: 0x115B8, symBinAddr: 0x10001521C, symSize: 0x18 }
  - { offsetInCU: 0x5308B, offset: 0x5308B, size: 0x8, addend: 0x0, symName: __ZN5Eigen15PlainObjectBaseINS_5ArrayIfLin1ELin1ELi0ELin1ELin1EEEE4dataEv, symObjAddr: 0x1170C, symBinAddr: 0x100015370, symSize: 0x24 }
  - { offsetInCU: 0x530B1, offset: 0x530B1, size: 0x8, addend: 0x0, symName: __ZNK5Eigen9EigenBaseINS_5ArrayIfLin1ELin1ELi0ELin1ELin1EEEE4sizeEv, symObjAddr: 0x11730, symBinAddr: 0x100015394, symSize: 0x44 }
  - { offsetInCU: 0x530D7, offset: 0x530D7, size: 0x8, addend: 0x0, symName: __ZNK5Eigen14CwiseNullaryOpINS_8internal18scalar_constant_opIfEENS_5ArrayIfLin1ELin1ELi0ELin1ELin1EEEE7functorEv, symObjAddr: 0x11774, symBinAddr: 0x1000153D8, symSize: 0x18 }
  - { offsetInCU: 0x530FD, offset: 0x530FD, size: 0x8, addend: 0x0, symName: __ZN5Eigen12DenseStorageIfLin1ELin1ELin1ELi0EE4dataEv, symObjAddr: 0x117F0, symBinAddr: 0x100015454, symSize: 0x18 }
  - { offsetInCU: 0x53123, offset: 0x53123, size: 0x8, addend: 0x0, symName: __ZNK5Eigen9EigenBaseINS_5ArrayIfLin1ELin1ELi0ELin1ELin1EEEE4rowsEv, symObjAddr: 0x11808, symBinAddr: 0x10001546C, symSize: 0x38 }
  - { offsetInCU: 0x53149, offset: 0x53149, size: 0x8, addend: 0x0, symName: __ZNK5Eigen9EigenBaseINS_5ArrayIfLin1ELin1ELi0ELin1ELin1EEEE4colsEv, symObjAddr: 0x11840, symBinAddr: 0x1000154A4, symSize: 0x28 }
  - { offsetInCU: 0x5316F, offset: 0x5316F, size: 0x8, addend: 0x0, symName: __ZNK5Eigen9EigenBaseINS_5ArrayIfLin1ELin1ELi0ELin1ELin1EEEE7derivedEv, symObjAddr: 0x11868, symBinAddr: 0x1000154CC, symSize: 0x14 }
  - { offsetInCU: 0x53195, offset: 0x53195, size: 0x8, addend: 0x0, symName: __ZN5Eigen15DenseCoeffsBaseINS_5ArrayIiLin1ELin1ELi0ELin1ELin1EEELi1EE8coeffRefEll, symObjAddr: 0x1187C, symBinAddr: 0x1000154E0, symSize: 0x80 }
  - { offsetInCU: 0x531D9, offset: 0x531D9, size: 0x8, addend: 0x0, symName: __ZN5Eigen15DenseCoeffsBaseINS_5ArrayIfLin1ELin1ELi0ELin1ELin1EEELi1EE8coeffRefEll, symObjAddr: 0x118FC, symBinAddr: 0x100015560, symSize: 0x80 }
  - { offsetInCU: 0x5321D, offset: 0x5321D, size: 0x8, addend: 0x0, symName: __ZN5Eigen8internal9evaluatorINS_5ArrayIfLin1ELin1ELi0ELin1ELin1EEEEC1ERKS3_, symObjAddr: 0x1197C, symBinAddr: 0x1000155E0, symSize: 0x34 }
  - { offsetInCU: 0x53256, offset: 0x53256, size: 0x8, addend: 0x0, symName: __ZN5Eigen8internal9evaluatorINS_15PlainObjectBaseINS_5ArrayIfLin1ELin1ELi0ELin1ELin1EEEEEE8coeffRefEll, symObjAddr: 0x119B0, symBinAddr: 0x100015614, symSize: 0x5C }
  - { offsetInCU: 0x53298, offset: 0x53298, size: 0x8, addend: 0x0, symName: __ZN5Eigen8internal9evaluatorINS_5ArrayIfLin1ELin1ELi0ELin1ELin1EEEED1Ev, symObjAddr: 0x11A0C, symBinAddr: 0x100015670, symSize: 0x2C }
  - { offsetInCU: 0x532C5, offset: 0x532C5, size: 0x8, addend: 0x0, symName: __ZN5Eigen8internal9evaluatorINS_5ArrayIfLin1ELin1ELi0ELin1ELin1EEEEC2ERKS3_, symObjAddr: 0x11A38, symBinAddr: 0x10001569C, symSize: 0x34 }
  - { offsetInCU: 0x532FE, offset: 0x532FE, size: 0x8, addend: 0x0, symName: __ZN5Eigen8internal9evaluatorINS_15PlainObjectBaseINS_5ArrayIfLin1ELin1ELi0ELin1ELin1EEEEEEC2ERKS5_, symObjAddr: 0x11A6C, symBinAddr: 0x1000156D0, symSize: 0x80 }
  - { offsetInCU: 0x53336, offset: 0x53336, size: 0x8, addend: 0x0, symName: __ZN5Eigen8internal14evaluator_baseINS_5ArrayIfLin1ELin1ELi0ELin1ELin1EEEEC2Ev, symObjAddr: 0x11AEC, symBinAddr: 0x100015750, symSize: 0x14 }
  - { offsetInCU: 0x53360, offset: 0x53360, size: 0x8, addend: 0x0, symName: __ZNK5Eigen15PlainObjectBaseINS_5ArrayIfLin1ELin1ELi0ELin1ELin1EEEE4dataEv, symObjAddr: 0x11B00, symBinAddr: 0x100015764, symSize: 0x24 }
  - { offsetInCU: 0x53386, offset: 0x53386, size: 0x8, addend: 0x0, symName: __ZNK5Eigen15DenseCoeffsBaseINS_5ArrayIfLin1ELin1ELi0ELin1ELin1EEELi3EE11outerStrideEv, symObjAddr: 0x11B24, symBinAddr: 0x100015788, symSize: 0x28 }
  - { offsetInCU: 0x533AC, offset: 0x533AC, size: 0x8, addend: 0x0, symName: __ZN5Eigen8internal30plainobjectbase_evaluator_dataIfLin1EEC1EPKfl, symObjAddr: 0x11B4C, symBinAddr: 0x1000157B0, symSize: 0x3C }
  - { offsetInCU: 0x533F2, offset: 0x533F2, size: 0x8, addend: 0x0, symName: __ZN5Eigen8internal14evaluator_baseINS_5ArrayIfLin1ELin1ELi0ELin1ELin1EEEED2Ev, symObjAddr: 0x11B88, symBinAddr: 0x1000157EC, symSize: 0x14 }
  - { offsetInCU: 0x5341C, offset: 0x5341C, size: 0x8, addend: 0x0, symName: __ZNK5Eigen12DenseStorageIfLin1ELin1ELin1ELi0EE4dataEv, symObjAddr: 0x11B9C, symBinAddr: 0x100015800, symSize: 0x18 }
  - { offsetInCU: 0x53442, offset: 0x53442, size: 0x8, addend: 0x0, symName: __ZNK5Eigen5ArrayIfLin1ELin1ELi0ELin1ELin1EE11outerStrideEv, symObjAddr: 0x11BB4, symBinAddr: 0x100015818, symSize: 0x34 }
  - { offsetInCU: 0x53468, offset: 0x53468, size: 0x8, addend: 0x0, symName: __ZNK5Eigen9DenseBaseINS_5ArrayIfLin1ELin1ELi0ELin1ELin1EEEE9innerSizeEv, symObjAddr: 0x11BE8, symBinAddr: 0x10001584C, symSize: 0x24 }
  - { offsetInCU: 0x5348E, offset: 0x5348E, size: 0x8, addend: 0x0, symName: __ZN5Eigen8internal30plainobjectbase_evaluator_dataIfLin1EEC2EPKfl, symObjAddr: 0x11C0C, symBinAddr: 0x100015870, symSize: 0x2C }
  - { offsetInCU: 0x534D4, offset: 0x534D4, size: 0x8, addend: 0x0, symName: __ZNK5Eigen8internal30plainobjectbase_evaluator_dataIfLin1EE11outerStrideEv, symObjAddr: 0x11C38, symBinAddr: 0x10001589C, symSize: 0x18 }
  - { offsetInCU: 0x534FA, offset: 0x534FA, size: 0x8, addend: 0x0, symName: __ZN5Eigen8internal9evaluatorINS_5ArrayIfLin1ELin1ELi0ELin1ELin1EEEED2Ev, symObjAddr: 0x11C50, symBinAddr: 0x1000158B4, symSize: 0x2C }
  - { offsetInCU: 0x53527, offset: 0x53527, size: 0x8, addend: 0x0, symName: __ZN5Eigen8internal9evaluatorINS_15PlainObjectBaseINS_5ArrayIfLin1ELin1ELi0ELin1ELin1EEEEEED2Ev, symObjAddr: 0x11C7C, symBinAddr: 0x1000158E0, symSize: 0x2C }
  - { offsetInCU: 0x53553, offset: 0x53553, size: 0x8, addend: 0x0, symName: __ZNSt3__123mersenne_twister_engineIjLm32ELm624ELm397ELm31ELj2567483615ELm11ELj4294967295ELm7ELj2636928640ELm15ELj4022730752ELm18ELj1812433253EEC2B8ue170006Ej, symObjAddr: 0x11CA8, symBinAddr: 0x10001590C, symSize: 0x34 }
  - { offsetInCU: 0x5358B, offset: 0x5358B, size: 0x8, addend: 0x0, symName: __ZNSt3__123mersenne_twister_engineIjLm32ELm624ELm397ELm31ELj2567483615ELm11ELj4294967295ELm7ELj2636928640ELm15ELj4022730752ELm18ELj1812433253EE4seedEj, symObjAddr: 0x11CDC, symBinAddr: 0x100015940, symSize: 0xC4 }
  - { offsetInCU: 0x535DE, offset: 0x535DE, size: 0x8, addend: 0x0, symName: __ZNSt3__123mersenne_twister_engineIjLm32ELm624ELm397ELm31ELj2567483615ELm11ELj4294967295ELm7ELj2636928640ELm15ELj4022730752ELm18ELj1812433253EE8__rshiftB8ue170006ILm30EEENS_9enable_ifIXltT_L_ZNS1_3_DtEEEjE4typeEj, symObjAddr: 0x11DA0, symBinAddr: 0x100015A04, symSize: 0x18 }
  - { offsetInCU: 0x5360B, offset: 0x5360B, size: 0x8, addend: 0x0, symName: __ZNSt3__125uniform_real_distributionIfEC2B8ue170006Eff, symObjAddr: 0x11DB8, symBinAddr: 0x100015A1C, symSize: 0x3C }
  - { offsetInCU: 0x53651, offset: 0x53651, size: 0x8, addend: 0x0, symName: __ZNSt3__125uniform_real_distributionIfE10param_typeC1B8ue170006Eff, symObjAddr: 0x11DF4, symBinAddr: 0x100015A58, symSize: 0x3C }
  - { offsetInCU: 0x53697, offset: 0x53697, size: 0x8, addend: 0x0, symName: __ZNSt3__125uniform_real_distributionIfE10param_typeC2B8ue170006Eff, symObjAddr: 0x11E30, symBinAddr: 0x100015A94, symSize: 0x2C }
  - { offsetInCU: 0x536DD, offset: 0x536DD, size: 0x8, addend: 0x0, symName: '__ZN5Eigen14CwiseNullaryOpIZ18simulatePopulationRKNS_5ArrayIiLin1ELi1ELi0ELin1ELi1EEEiRNSt3__16vectorINS6_INS1_IiLin1ELin1ELi0ELin1ELin1EEENS5_9allocatorIS7_EEEENS8_ISA_EEEEE3$_0NS1_IfLin1ELin1ELi0ELin1ELin1EEEEC1EllRKSE_', symObjAddr: 0x11E5C, symBinAddr: 0x100015AC0, symSize: 0x44 }
  - { offsetInCU: 0x53731, offset: 0x53731, size: 0x8, addend: 0x0, symName: '__ZN5Eigen14CwiseNullaryOpIZ18simulatePopulationRKNS_5ArrayIiLin1ELi1ELi0ELin1ELi1EEEiRNSt3__16vectorINS6_INS1_IiLin1ELin1ELi0ELin1ELin1EEENS5_9allocatorIS7_EEEENS8_ISA_EEEEE3$_0NS1_IfLin1ELin1ELi0ELin1ELin1EEEEC2EllRKSE_', symObjAddr: 0x11EA0, symBinAddr: 0x100015B04, symSize: 0xE0 }
  - { offsetInCU: 0x53785, offset: 0x53785, size: 0x8, addend: 0x0, symName: '__ZN5Eigen9ArrayBaseINS_14CwiseNullaryOpIZ18simulatePopulationRKNS_5ArrayIiLin1ELi1ELi0ELin1ELi1EEEiRNSt3__16vectorINS7_INS2_IiLin1ELin1ELi0ELin1ELin1EEENS6_9allocatorIS8_EEEENS9_ISB_EEEEE3$_0NS2_IfLin1ELin1ELi0ELin1ELin1EEEEEEC2Ev', symObjAddr: 0x11F80, symBinAddr: 0x100015BE4, symSize: 0x2C }
  - { offsetInCU: 0x537AF, offset: 0x537AF, size: 0x8, addend: 0x0, symName: '__ZN5Eigen9DenseBaseINS_14CwiseNullaryOpIZ18simulatePopulationRKNS_5ArrayIiLin1ELi1ELi0ELin1ELi1EEEiRNSt3__16vectorINS7_INS2_IiLin1ELin1ELi0ELin1ELin1EEENS6_9allocatorIS8_EEEENS9_ISB_EEEEE3$_0NS2_IfLin1ELin1ELi0ELin1ELin1EEEEEEC2Ev', symObjAddr: 0x11FAC, symBinAddr: 0x100015C10, symSize: 0x14 }
  - { offsetInCU: 0x537D9, offset: 0x537D9, size: 0x8, addend: 0x0, symName: '__ZN5Eigen5ArrayIfLin1ELin1ELi0ELin1ELin1EEC2INS_14CwiseNullaryOpIZ18simulatePopulationRKNS0_IiLin1ELi1ELi0ELin1ELi1EEEiRNSt3__16vectorINS8_INS0_IiLin1ELin1ELi0ELin1ELin1EEENS7_9allocatorIS9_EEEENSA_ISC_EEEEE3$_0S1_EEEERKNS_9EigenBaseIT_EENS_8internal9enable_ifIXsr8internal14is_convertibleINSJ_6ScalarEfEE5valueENS1_11PrivateTypeEE4typeE', symObjAddr: 0x11FC0, symBinAddr: 0x100015C24, symSize: 0x40 }
  - { offsetInCU: 0x53826, offset: 0x53826, size: 0x8, addend: 0x0, symName: '__ZNK5Eigen9EigenBaseINS_14CwiseNullaryOpIZ18simulatePopulationRKNS_5ArrayIiLin1ELi1ELi0ELin1ELi1EEEiRNSt3__16vectorINS7_INS2_IiLin1ELin1ELi0ELin1ELin1EEENS6_9allocatorIS8_EEEENS9_ISB_EEEEE3$_0NS2_IfLin1ELin1ELi0ELin1ELin1EEEEEE7derivedEv', symObjAddr: 0x12000, symBinAddr: 0x100015C64, symSize: 0x14 }
  - { offsetInCU: 0x5384C, offset: 0x5384C, size: 0x8, addend: 0x0, symName: '__ZN5Eigen15PlainObjectBaseINS_5ArrayIfLin1ELin1ELi0ELin1ELin1EEEEC2INS_14CwiseNullaryOpIZ18simulatePopulationRKNS1_IiLin1ELi1ELi0ELin1ELi1EEEiRNSt3__16vectorINSA_INS1_IiLin1ELin1ELi0ELin1ELin1EEENS9_9allocatorISB_EEEENSC_ISE_EEEEE3$_0S2_EEEERKNS_9DenseBaseIT_EE', symObjAddr: 0x12014, symBinAddr: 0x100015C78, symSize: 0x80 }
  - { offsetInCU: 0x5388E, offset: 0x5388E, size: 0x8, addend: 0x0, symName: '__ZN5Eigen15PlainObjectBaseINS_5ArrayIfLin1ELin1ELi0ELin1ELin1EEEE10resizeLikeINS_14CwiseNullaryOpIZ18simulatePopulationRKNS1_IiLin1ELi1ELi0ELin1ELi1EEEiRNSt3__16vectorINSA_INS1_IiLin1ELin1ELi0ELin1ELin1EEENS9_9allocatorISB_EEEENSC_ISE_EEEEE3$_0S2_EEEEvRKNS_9EigenBaseIT_EE', symObjAddr: 0x12094, symBinAddr: 0x100015CF8, symSize: 0x11C }
  - { offsetInCU: 0x53922, offset: 0x53922, size: 0x8, addend: 0x0, symName: '__ZN5Eigen15PlainObjectBaseINS_5ArrayIfLin1ELin1ELi0ELin1ELin1EEEE12_set_noaliasINS_14CwiseNullaryOpIZ18simulatePopulationRKNS1_IiLin1ELi1ELi0ELin1ELi1EEEiRNSt3__16vectorINSA_INS1_IiLin1ELin1ELi0ELin1ELin1EEENS9_9allocatorISB_EEEENSC_ISE_EEEEE3$_0S2_EEEERS2_RKNS_9DenseBaseIT_EE', symObjAddr: 0x121B0, symBinAddr: 0x100015E14, symSize: 0x60 }
  - { offsetInCU: 0x53960, offset: 0x53960, size: 0x8, addend: 0x0, symName: '__ZNK5Eigen14CwiseNullaryOpIZ18simulatePopulationRKNS_5ArrayIiLin1ELi1ELi0ELin1ELi1EEEiRNSt3__16vectorINS6_INS1_IiLin1ELin1ELi0ELin1ELin1EEENS5_9allocatorIS7_EEEENS8_ISA_EEEEE3$_0NS1_IfLin1ELin1ELi0ELin1ELin1EEEE4rowsEv', symObjAddr: 0x12210, symBinAddr: 0x100015E74, symSize: 0x24 }
  - { offsetInCU: 0x53986, offset: 0x53986, size: 0x8, addend: 0x0, symName: '__ZNK5Eigen14CwiseNullaryOpIZ18simulatePopulationRKNS_5ArrayIiLin1ELi1ELi0ELin1ELi1EEEiRNSt3__16vectorINS6_INS1_IiLin1ELin1ELi0ELin1ELin1EEENS5_9allocatorIS7_EEEENS8_ISA_EEEEE3$_0NS1_IfLin1ELin1ELi0ELin1ELin1EEEE4colsEv', symObjAddr: 0x12234, symBinAddr: 0x100015E98, symSize: 0x28 }
  - { offsetInCU: 0x539AC, offset: 0x539AC, size: 0x8, addend: 0x0, symName: '__ZN5Eigen8internal10AssignmentINS_5ArrayIfLin1ELin1ELi0ELin1ELin1EEENS_14CwiseNullaryOpIZ18simulatePopulationRKNS2_IiLin1ELi1ELi0ELin1ELi1EEEiRNSt3__16vectorINS9_INS2_IiLin1ELin1ELi0ELin1ELin1EEENS8_9allocatorISA_EEEENSB_ISD_EEEEE3$_0S3_EENS0_9assign_opIffEENS0_11Dense2DenseEvE3runERS3_RKSI_RKSK_', symObjAddr: 0x12298, symBinAddr: 0x100015EFC, symSize: 0x40 }
  - { offsetInCU: 0x539EE, offset: 0x539EE, size: 0x8, addend: 0x0, symName: '__ZN5Eigen8internal27checkTransposeAliasing_implINS_5ArrayIfLin1ELin1ELi0ELin1ELin1EEENS_14CwiseNullaryOpIZ18simulatePopulationRKNS2_IiLin1ELi1ELi0ELin1ELi1EEEiRNSt3__16vectorINS9_INS2_IiLin1ELin1ELi0ELin1ELin1EEENS8_9allocatorISA_EEEENSB_ISD_EEEEE3$_0S3_EELb0EE3runERKS3_RKSI_', symObjAddr: 0x12418, symBinAddr: 0x10001607C, symSize: 0x14 }
  - { offsetInCU: 0x53A3C, offset: 0x53A3C, size: 0x8, addend: 0x0, symName: '__ZN5Eigen8internal9evaluatorINS_14CwiseNullaryOpIZ18simulatePopulationRKNS_5ArrayIiLin1ELi1ELi0ELin1ELi1EEEiRNSt3__16vectorINS8_INS3_IiLin1ELin1ELi0ELin1ELin1EEENS7_9allocatorIS9_EEEENSA_ISC_EEEEE3$_0NS3_IfLin1ELin1ELi0ELin1ELin1EEEEEEC1ERKSI_', symObjAddr: 0x1242C, symBinAddr: 0x100016090, symSize: 0x34 }
  - { offsetInCU: 0x53A75, offset: 0x53A75, size: 0x8, addend: 0x0, symName: __ZNK5Eigen9EigenBaseINS_5ArrayIfLin1ELin1ELi0ELin1ELin1EEEE18const_cast_derivedEv, symObjAddr: 0x12558, symBinAddr: 0x1000161BC, symSize: 0x14 }
  - { offsetInCU: 0x53AC8, offset: 0x53AC8, size: 0x8, addend: 0x0, symName: '__ZN5Eigen8internal31generic_dense_assignment_kernelINS0_9evaluatorINS_5ArrayIfLin1ELin1ELi0ELin1ELin1EEEEENS2_INS_14CwiseNullaryOpIZ18simulatePopulationRKNS3_IiLin1ELi1ELi0ELin1ELi1EEEiRNSt3__16vectorINSB_INS3_IiLin1ELin1ELi0ELin1ELin1EEENSA_9allocatorISC_EEEENSD_ISF_EEEEE3$_0S4_EEEENS0_9assign_opIffEELi0EEC1ERS5_RKSL_RKSN_RS4_', symObjAddr: 0x1256C, symBinAddr: 0x1000161D0, symSize: 0x4C }
  - { offsetInCU: 0x53B33, offset: 0x53B33, size: 0x8, addend: 0x0, symName: '__ZN5Eigen8internal21dense_assignment_loopINS0_31generic_dense_assignment_kernelINS0_9evaluatorINS_5ArrayIfLin1ELin1ELi0ELin1ELin1EEEEENS3_INS_14CwiseNullaryOpIZ18simulatePopulationRKNS4_IiLin1ELi1ELi0ELin1ELi1EEEiRNSt3__16vectorINSC_INS4_IiLin1ELin1ELi0ELin1ELin1EEENSB_9allocatorISD_EEEENSE_ISG_EEEEE3$_0S5_EEEENS0_9assign_opIffEELi0EEELi1ELi0EE3runERSP_', symObjAddr: 0x125B8, symBinAddr: 0x10001621C, symSize: 0x68 }
  - { offsetInCU: 0x53B83, offset: 0x53B83, size: 0x8, addend: 0x0, symName: '__ZN5Eigen8internal9evaluatorINS_14CwiseNullaryOpIZ18simulatePopulationRKNS_5ArrayIiLin1ELi1ELi0ELin1ELi1EEEiRNSt3__16vectorINS8_INS3_IiLin1ELin1ELi0ELin1ELin1EEENS7_9allocatorIS9_EEEENSA_ISC_EEEEE3$_0NS3_IfLin1ELin1ELi0ELin1ELin1EEEEEED1Ev', symObjAddr: 0x12620, symBinAddr: 0x100016284, symSize: 0x2C }
  - { offsetInCU: 0x53BAF, offset: 0x53BAF, size: 0x8, addend: 0x0, symName: '__ZN5Eigen8internal9evaluatorINS_14CwiseNullaryOpIZ18simulatePopulationRKNS_5ArrayIiLin1ELi1ELi0ELin1ELi1EEEiRNSt3__16vectorINS8_INS3_IiLin1ELin1ELi0ELin1ELin1EEENS7_9allocatorIS9_EEEENSA_ISC_EEEEE3$_0NS3_IfLin1ELin1ELi0ELin1ELin1EEEEEEC2ERKSI_', symObjAddr: 0x1264C, symBinAddr: 0x1000162B0, symSize: 0x70 }
  - { offsetInCU: 0x53BE8, offset: 0x53BE8, size: 0x8, addend: 0x0, symName: '__ZN5Eigen8internal14evaluator_baseINS_14CwiseNullaryOpIZ18simulatePopulationRKNS_5ArrayIiLin1ELi1ELi0ELin1ELi1EEEiRNSt3__16vectorINS8_INS3_IiLin1ELin1ELi0ELin1ELin1EEENS7_9allocatorIS9_EEEENSA_ISC_EEEEE3$_0NS3_IfLin1ELin1ELi0ELin1ELin1EEEEEEC2Ev', symObjAddr: 0x126BC, symBinAddr: 0x100016320, symSize: 0x14 }
  - { offsetInCU: 0x53C12, offset: 0x53C12, size: 0x8, addend: 0x0, symName: '__ZNK5Eigen14CwiseNullaryOpIZ18simulatePopulationRKNS_5ArrayIiLin1ELi1ELi0ELin1ELi1EEEiRNSt3__16vectorINS6_INS1_IiLin1ELin1ELi0ELin1ELin1EEENS5_9allocatorIS7_EEEENS8_ISA_EEEEE3$_0NS1_IfLin1ELin1ELi0ELin1ELin1EEEE7functorEv', symObjAddr: 0x126D0, symBinAddr: 0x100016334, symSize: 0x18 }
  - { offsetInCU: 0x53C38, offset: 0x53C38, size: 0x8, addend: 0x0, symName: '__ZN5Eigen8internal14evaluator_baseINS_14CwiseNullaryOpIZ18simulatePopulationRKNS_5ArrayIiLin1ELi1ELi0ELin1ELi1EEEiRNSt3__16vectorINS8_INS3_IiLin1ELin1ELi0ELin1ELin1EEENS7_9allocatorIS9_EEEENSA_ISC_EEEEE3$_0NS3_IfLin1ELin1ELi0ELin1ELin1EEEEEED2Ev', symObjAddr: 0x126E8, symBinAddr: 0x10001634C, symSize: 0x14 }
  - { offsetInCU: 0x53C62, offset: 0x53C62, size: 0x8, addend: 0x0, symName: '__ZN5Eigen8internal31generic_dense_assignment_kernelINS0_9evaluatorINS_5ArrayIfLin1ELin1ELi0ELin1ELin1EEEEENS2_INS_14CwiseNullaryOpIZ18simulatePopulationRKNS3_IiLin1ELi1ELi0ELin1ELi1EEEiRNSt3__16vectorINSB_INS3_IiLin1ELin1ELi0ELin1ELin1EEENSA_9allocatorISC_EEEENSD_ISF_EEEEE3$_0S4_EEEENS0_9assign_opIffEELi0EEC2ERS5_RKSL_RKSN_RS4_', symObjAddr: 0x126FC, symBinAddr: 0x100016360, symSize: 0x44 }
  - { offsetInCU: 0x53CC8, offset: 0x53CC8, size: 0x8, addend: 0x0, symName: '__ZNK5Eigen8internal31generic_dense_assignment_kernelINS0_9evaluatorINS_5ArrayIfLin1ELin1ELi0ELin1ELin1EEEEENS2_INS_14CwiseNullaryOpIZ18simulatePopulationRKNS3_IiLin1ELi1ELi0ELin1ELi1EEEiRNSt3__16vectorINSB_INS3_IiLin1ELin1ELi0ELin1ELin1EEENSA_9allocatorISC_EEEENSD_ISF_EEEEE3$_0S4_EEEENS0_9assign_opIffEELi0EE4sizeEv', symObjAddr: 0x12740, symBinAddr: 0x1000163A4, symSize: 0x28 }
  - { offsetInCU: 0x53CEE, offset: 0x53CEE, size: 0x8, addend: 0x0, symName: '__ZN5Eigen8internal31generic_dense_assignment_kernelINS0_9evaluatorINS_5ArrayIfLin1ELin1ELi0ELin1ELin1EEEEENS2_INS_14CwiseNullaryOpIZ18simulatePopulationRKNS3_IiLin1ELi1ELi0ELin1ELi1EEEiRNSt3__16vectorINSB_INS3_IiLin1ELin1ELi0ELin1ELin1EEENSA_9allocatorISC_EEEENSD_ISF_EEEEE3$_0S4_EEEENS0_9assign_opIffEELi0EE11assignCoeffEl', symObjAddr: 0x12768, symBinAddr: 0x1000163CC, symSize: 0x64 }
  - { offsetInCU: 0x53D23, offset: 0x53D23, size: 0x8, addend: 0x0, symName: __ZN5Eigen8internal9evaluatorINS_15PlainObjectBaseINS_5ArrayIfLin1ELin1ELi0ELin1ELin1EEEEEE8coeffRefEl, symObjAddr: 0x127CC, symBinAddr: 0x100016430, symSize: 0x24 }
  - { offsetInCU: 0x53D61, offset: 0x53D61, size: 0x8, addend: 0x0, symName: '__ZNK5Eigen8internal9evaluatorINS_14CwiseNullaryOpIZ18simulatePopulationRKNS_5ArrayIiLin1ELi1ELi0ELin1ELi1EEEiRNSt3__16vectorINS8_INS3_IiLin1ELin1ELi0ELin1ELin1EEENS7_9allocatorIS9_EEEENSA_ISC_EEEEE3$_0NS3_IfLin1ELin1ELi0ELin1ELin1EEEEEE5coeffIlEEfT_', symObjAddr: 0x127F0, symBinAddr: 0x100016454, symSize: 0x38 }
  - { offsetInCU: 0x53DA4, offset: 0x53DA4, size: 0x8, addend: 0x0, symName: '__ZNK5Eigen8internal15nullary_wrapperIfZ18simulatePopulationRKNS_5ArrayIiLin1ELi1ELi0ELin1ELi1EEEiRNSt3__16vectorINS7_INS2_IiLin1ELin1ELi0ELin1ELin1EEENS6_9allocatorIS8_EEEENS9_ISB_EEEEE3$_0Lb1ELb0ELb0EEclIlEEfRKSF_T_SK_', symObjAddr: 0x12828, symBinAddr: 0x10001648C, symSize: 0x30 }
  - { offsetInCU: 0x53DFD, offset: 0x53DFD, size: 0x8, addend: 0x0, symName: '__ZZ18simulatePopulationRKN5Eigen5ArrayIiLin1ELi1ELi0ELin1ELi1EEEiRNSt3__16vectorINS5_INS0_IiLin1ELin1ELi0ELin1ELin1EEENS4_9allocatorIS6_EEEENS7_IS9_EEEEENK3$_0clEv', symObjAddr: 0x12858, symBinAddr: 0x1000164BC, symSize: 0x2C }
  - { offsetInCU: 0x53E2C, offset: 0x53E2C, size: 0x8, addend: 0x0, symName: __ZNSt3__125uniform_real_distributionIfEclB8ue170006INS_23mersenne_twister_engineIjLm32ELm624ELm397ELm31ELj2567483615ELm11ELj4294967295ELm7ELj2636928640ELm15ELj4022730752ELm18ELj1812433253EEEEEfRT_, symObjAddr: 0x12884, symBinAddr: 0x1000164E8, symSize: 0x30 }
  - { offsetInCU: 0x53E69, offset: 0x53E69, size: 0x8, addend: 0x0, symName: __ZNSt3__125uniform_real_distributionIfEclINS_23mersenne_twister_engineIjLm32ELm624ELm397ELm31ELj2567483615ELm11ELj4294967295ELm7ELj2636928640ELm15ELj4022730752ELm18ELj1812433253EEEEEfRT_RKNS1_10param_typeE, symObjAddr: 0x128B4, symBinAddr: 0x100016518, symSize: 0x6C }
  - { offsetInCU: 0x53EB5, offset: 0x53EB5, size: 0x8, addend: 0x0, symName: __ZNKSt3__125uniform_real_distributionIfE10param_type1bB8ue170006Ev, symObjAddr: 0x12920, symBinAddr: 0x100016584, symSize: 0x18 }
  - { offsetInCU: 0x53EDB, offset: 0x53EDB, size: 0x8, addend: 0x0, symName: __ZNKSt3__125uniform_real_distributionIfE10param_type1aB8ue170006Ev, symObjAddr: 0x12938, symBinAddr: 0x10001659C, symSize: 0x18 }
  - { offsetInCU: 0x53F01, offset: 0x53F01, size: 0x8, addend: 0x0, symName: __ZNSt3__123mersenne_twister_engineIjLm32ELm624ELm397ELm31ELj2567483615ELm11ELj4294967295ELm7ELj2636928640ELm15ELj4022730752ELm18ELj1812433253EE3maxB8ue170006Ev, symObjAddr: 0x12A68, symBinAddr: 0x1000166CC, symSize: 0x8 }
  - { offsetInCU: 0x53F15, offset: 0x53F15, size: 0x8, addend: 0x0, symName: __ZNSt3__123mersenne_twister_engineIjLm32ELm624ELm397ELm31ELj2567483615ELm11ELj4294967295ELm7ELj2636928640ELm15ELj4022730752ELm18ELj1812433253EE3minB8ue170006Ev, symObjAddr: 0x12A70, symBinAddr: 0x1000166D4, symSize: 0x8 }
  - { offsetInCU: 0x53F29, offset: 0x53F29, size: 0x8, addend: 0x0, symName: __ZNSt3__123mersenne_twister_engineIjLm32ELm624ELm397ELm31ELj2567483615ELm11ELj4294967295ELm7ELj2636928640ELm15ELj4022730752ELm18ELj1812433253EEclEv, symObjAddr: 0x12A78, symBinAddr: 0x1000166DC, symSize: 0x14C }
  - { offsetInCU: 0x53F9C, offset: 0x53F9C, size: 0x8, addend: 0x0, symName: __ZNSt3__123mersenne_twister_engineIjLm32ELm624ELm397ELm31ELj2567483615ELm11ELj4294967295ELm7ELj2636928640ELm15ELj4022730752ELm18ELj1812433253EE8__rshiftB8ue170006ILm1EEENS_9enable_ifIXltT_L_ZNS1_3_DtEEEjE4typeEj, symObjAddr: 0x12BC4, symBinAddr: 0x100016828, symSize: 0x18 }
  - { offsetInCU: 0x53FC9, offset: 0x53FC9, size: 0x8, addend: 0x0, symName: __ZNSt3__123mersenne_twister_engineIjLm32ELm624ELm397ELm31ELj2567483615ELm11ELj4294967295ELm7ELj2636928640ELm15ELj4022730752ELm18ELj1812433253EE8__rshiftB8ue170006ILm11EEENS_9enable_ifIXltT_L_ZNS1_3_DtEEEjE4typeEj, symObjAddr: 0x12BDC, symBinAddr: 0x100016840, symSize: 0x18 }
  - { offsetInCU: 0x53FF6, offset: 0x53FF6, size: 0x8, addend: 0x0, symName: __ZNSt3__123mersenne_twister_engineIjLm32ELm624ELm397ELm31ELj2567483615ELm11ELj4294967295ELm7ELj2636928640ELm15ELj4022730752ELm18ELj1812433253EE8__lshiftB8ue170006ILm7EEENS_9enable_ifIXltT_Lm32EEjE4typeEj, symObjAddr: 0x12BF4, symBinAddr: 0x100016858, symSize: 0x1C }
  - { offsetInCU: 0x54023, offset: 0x54023, size: 0x8, addend: 0x0, symName: __ZNSt3__123mersenne_twister_engineIjLm32ELm624ELm397ELm31ELj2567483615ELm11ELj4294967295ELm7ELj2636928640ELm15ELj4022730752ELm18ELj1812433253EE8__lshiftB8ue170006ILm15EEENS_9enable_ifIXltT_Lm32EEjE4typeEj, symObjAddr: 0x12C10, symBinAddr: 0x100016874, symSize: 0x1C }
  - { offsetInCU: 0x54050, offset: 0x54050, size: 0x8, addend: 0x0, symName: __ZNSt3__123mersenne_twister_engineIjLm32ELm624ELm397ELm31ELj2567483615ELm11ELj4294967295ELm7ELj2636928640ELm15ELj4022730752ELm18ELj1812433253EE8__rshiftB8ue170006ILm18EEENS_9enable_ifIXltT_L_ZNS1_3_DtEEEjE4typeEj, symObjAddr: 0x12C2C, symBinAddr: 0x100016890, symSize: 0x18 }
  - { offsetInCU: 0x5407D, offset: 0x5407D, size: 0x8, addend: 0x0, symName: '__ZN5Eigen8internal9evaluatorINS_14CwiseNullaryOpIZ18simulatePopulationRKNS_5ArrayIiLin1ELi1ELi0ELin1ELi1EEEiRNSt3__16vectorINS8_INS3_IiLin1ELin1ELi0ELin1ELin1EEENS7_9allocatorIS9_EEEENSA_ISC_EEEEE3$_0NS3_IfLin1ELin1ELi0ELin1ELin1EEEEEED2Ev', symObjAddr: 0x12C44, symBinAddr: 0x1000168A8, symSize: 0x2C }
  - { offsetInCU: 0x540A9, offset: 0x540A9, size: 0x8, addend: 0x0, symName: __ZN5Eigen8internal13scalar_cmp_opIffLNS0_14ComparisonNameE1EEC1Ev, symObjAddr: 0x12C70, symBinAddr: 0x1000168D4, symSize: 0x2C }
  - { offsetInCU: 0x540D3, offset: 0x540D3, size: 0x8, addend: 0x0, symName: __ZN5Eigen13CwiseBinaryOpINS_8internal13scalar_cmp_opIffLNS1_14ComparisonNameE1EEEKNS_5ArrayIfLin1ELin1ELi0ELin1ELin1EEES7_EC1ERS7_S9_RKS4_, symObjAddr: 0x12C9C, symBinAddr: 0x100016900, symSize: 0x44 }
  - { offsetInCU: 0x54127, offset: 0x54127, size: 0x8, addend: 0x0, symName: __ZN5Eigen8internal13scalar_cmp_opIffLNS0_14ComparisonNameE1EEC2Ev, symObjAddr: 0x12CE0, symBinAddr: 0x100016944, symSize: 0x14 }
  - { offsetInCU: 0x54151, offset: 0x54151, size: 0x8, addend: 0x0, symName: __ZN5Eigen13CwiseBinaryOpINS_8internal13scalar_cmp_opIffLNS1_14ComparisonNameE1EEEKNS_5ArrayIfLin1ELin1ELi0ELin1ELin1EEES7_EC2ERS7_S9_RKS4_, symObjAddr: 0x12CF4, symBinAddr: 0x100016958, symSize: 0xF0 }
  - { offsetInCU: 0x541AA, offset: 0x541AA, size: 0x8, addend: 0x0, symName: __ZN5Eigen17CwiseBinaryOpImplINS_8internal13scalar_cmp_opIffLNS1_14ComparisonNameE1EEEKNS_5ArrayIfLin1ELin1ELi0ELin1ELin1EEES7_NS_5DenseEEC2Ev, symObjAddr: 0x12DE4, symBinAddr: 0x100016A48, symSize: 0x2C }
  - { offsetInCU: 0x541D6, offset: 0x541D6, size: 0x8, addend: 0x0, symName: __ZN5Eigen8internal13scalar_cmp_opIffLNS0_14ComparisonNameE1EEC1ERKS3_, symObjAddr: 0x12E10, symBinAddr: 0x100016A74, symSize: 0x34 }
  - { offsetInCU: 0x5420B, offset: 0x5420B, size: 0x8, addend: 0x0, symName: __ZN5Eigen9ArrayBaseINS_13CwiseBinaryOpINS_8internal13scalar_cmp_opIffLNS2_14ComparisonNameE1EEEKNS_5ArrayIfLin1ELin1ELi0ELin1ELin1EEES8_EEEC2Ev, symObjAddr: 0x12E44, symBinAddr: 0x100016AA8, symSize: 0x2C }
  - { offsetInCU: 0x54235, offset: 0x54235, size: 0x8, addend: 0x0, symName: __ZN5Eigen9DenseBaseINS_13CwiseBinaryOpINS_8internal13scalar_cmp_opIffLNS2_14ComparisonNameE1EEEKNS_5ArrayIfLin1ELin1ELi0ELin1ELin1EEES8_EEEC2Ev, symObjAddr: 0x12E70, symBinAddr: 0x100016AD4, symSize: 0x14 }
  - { offsetInCU: 0x5425F, offset: 0x5425F, size: 0x8, addend: 0x0, symName: __ZN5Eigen8internal13scalar_cmp_opIffLNS0_14ComparisonNameE1EEC2ERKS3_, symObjAddr: 0x12E84, symBinAddr: 0x100016AE8, symSize: 0x18 }
  - { offsetInCU: 0x54294, offset: 0x54294, size: 0x8, addend: 0x0, symName: __ZNK5Eigen9EigenBaseINS_13CwiseBinaryOpINS_8internal13scalar_cmp_opIffLNS2_14ComparisonNameE1EEEKNS_5ArrayIfLin1ELin1ELi0ELin1ELin1EEES8_EEE7derivedEv, symObjAddr: 0x12E9C, symBinAddr: 0x100016B00, symSize: 0x14 }
  - { offsetInCU: 0x542BA, offset: 0x542BA, size: 0x8, addend: 0x0, symName: __ZN5Eigen8internal14scalar_cast_opIbiEC1Ev, symObjAddr: 0x12EB0, symBinAddr: 0x100016B14, symSize: 0x2C }
  - { offsetInCU: 0x542E4, offset: 0x542E4, size: 0x8, addend: 0x0, symName: __ZN5Eigen12CwiseUnaryOpINS_8internal14scalar_cast_opIbiEEKNS_13CwiseBinaryOpINS1_13scalar_cmp_opIffLNS1_14ComparisonNameE1EEEKNS_5ArrayIfLin1ELin1ELi0ELin1ELin1EEESA_EEEC1ERSC_RKS3_, symObjAddr: 0x12EDC, symBinAddr: 0x100016B40, symSize: 0x3C }
  - { offsetInCU: 0x5432A, offset: 0x5432A, size: 0x8, addend: 0x0, symName: __ZN5Eigen8internal14scalar_cast_opIbiEC2Ev, symObjAddr: 0x12F18, symBinAddr: 0x100016B7C, symSize: 0x14 }
  - { offsetInCU: 0x54354, offset: 0x54354, size: 0x8, addend: 0x0, symName: __ZN5Eigen12CwiseUnaryOpINS_8internal14scalar_cast_opIbiEEKNS_13CwiseBinaryOpINS1_13scalar_cmp_opIffLNS1_14ComparisonNameE1EEEKNS_5ArrayIfLin1ELin1ELi0ELin1ELin1EEESA_EEEC2ERSC_RKS3_, symObjAddr: 0x12F2C, symBinAddr: 0x100016B90, symSize: 0x54 }
  - { offsetInCU: 0x5439F, offset: 0x5439F, size: 0x8, addend: 0x0, symName: __ZN5Eigen16CwiseUnaryOpImplINS_8internal14scalar_cast_opIbiEEKNS_13CwiseBinaryOpINS1_13scalar_cmp_opIffLNS1_14ComparisonNameE1EEEKNS_5ArrayIfLin1ELin1ELi0ELin1ELin1EEESA_EENS_5DenseEEC2Ev, symObjAddr: 0x12F80, symBinAddr: 0x100016BE4, symSize: 0x2C }
  - { offsetInCU: 0x543CB, offset: 0x543CB, size: 0x8, addend: 0x0, symName: __ZN5Eigen13CwiseBinaryOpINS_8internal13scalar_cmp_opIffLNS1_14ComparisonNameE1EEEKNS_5ArrayIfLin1ELin1ELi0ELin1ELin1EEES7_EC1ERKS8_, symObjAddr: 0x12FAC, symBinAddr: 0x100016C10, symSize: 0x34 }
  - { offsetInCU: 0x54400, offset: 0x54400, size: 0x8, addend: 0x0, symName: __ZN5Eigen8internal14scalar_cast_opIbiEC1ERKS2_, symObjAddr: 0x12FE0, symBinAddr: 0x100016C44, symSize: 0x34 }
  - { offsetInCU: 0x54435, offset: 0x54435, size: 0x8, addend: 0x0, symName: __ZN5Eigen9ArrayBaseINS_12CwiseUnaryOpINS_8internal14scalar_cast_opIbiEEKNS_13CwiseBinaryOpINS2_13scalar_cmp_opIffLNS2_14ComparisonNameE1EEEKNS_5ArrayIfLin1ELin1ELi0ELin1ELin1EEESB_EEEEEC2Ev, symObjAddr: 0x13014, symBinAddr: 0x100016C78, symSize: 0x2C }
  - { offsetInCU: 0x5445F, offset: 0x5445F, size: 0x8, addend: 0x0, symName: __ZN5Eigen9DenseBaseINS_12CwiseUnaryOpINS_8internal14scalar_cast_opIbiEEKNS_13CwiseBinaryOpINS2_13scalar_cmp_opIffLNS2_14ComparisonNameE1EEEKNS_5ArrayIfLin1ELin1ELi0ELin1ELin1EEESB_EEEEEC2Ev, symObjAddr: 0x13040, symBinAddr: 0x100016CA4, symSize: 0x14 }
  - { offsetInCU: 0x54489, offset: 0x54489, size: 0x8, addend: 0x0, symName: __ZN5Eigen13CwiseBinaryOpINS_8internal13scalar_cmp_opIffLNS1_14ComparisonNameE1EEEKNS_5ArrayIfLin1ELin1ELi0ELin1ELin1EEES7_EC2ERKS8_, symObjAddr: 0x13054, symBinAddr: 0x100016CB8, symSize: 0x48 }
  - { offsetInCU: 0x544BE, offset: 0x544BE, size: 0x8, addend: 0x0, symName: __ZN5Eigen8internal14scalar_cast_opIbiEC2ERKS2_, symObjAddr: 0x1309C, symBinAddr: 0x100016D00, symSize: 0x18 }
  - { offsetInCU: 0x544F3, offset: 0x544F3, size: 0x8, addend: 0x0, symName: __ZN5Eigen5ArrayIiLin1ELin1ELi0ELin1ELin1EEC2INS_12CwiseUnaryOpINS_8internal14scalar_cast_opIbiEEKNS_13CwiseBinaryOpINS4_13scalar_cmp_opIffLNS4_14ComparisonNameE1EEEKNS0_IfLin1ELin1ELi0ELin1ELin1EEESC_EEEEEERKNS_9EigenBaseIT_EENS4_9enable_ifIXsr8internal14is_convertibleINSH_6ScalarEiEE5valueENS1_11PrivateTypeEE4typeE, symObjAddr: 0x130B4, symBinAddr: 0x100016D18, symSize: 0x40 }
  - { offsetInCU: 0x54540, offset: 0x54540, size: 0x8, addend: 0x0, symName: __ZNK5Eigen9EigenBaseINS_12CwiseUnaryOpINS_8internal14scalar_cast_opIbiEEKNS_13CwiseBinaryOpINS2_13scalar_cmp_opIffLNS2_14ComparisonNameE1EEEKNS_5ArrayIfLin1ELin1ELi0ELin1ELin1EEESB_EEEEE7derivedEv, symObjAddr: 0x130F4, symBinAddr: 0x100016D58, symSize: 0x14 }
  - { offsetInCU: 0x54566, offset: 0x54566, size: 0x8, addend: 0x0, symName: __ZN5Eigen15PlainObjectBaseINS_5ArrayIiLin1ELin1ELi0ELin1ELin1EEEEC2INS_12CwiseUnaryOpINS_8internal14scalar_cast_opIbiEEKNS_13CwiseBinaryOpINS6_13scalar_cmp_opIffLNS6_14ComparisonNameE1EEEKNS1_IfLin1ELin1ELi0ELin1ELin1EEESE_EEEEEERKNS_9DenseBaseIT_EE, symObjAddr: 0x13108, symBinAddr: 0x100016D6C, symSize: 0x80 }
  - { offsetInCU: 0x545A8, offset: 0x545A8, size: 0x8, addend: 0x0, symName: __ZN5Eigen15PlainObjectBaseINS_5ArrayIiLin1ELin1ELi0ELin1ELin1EEEE10resizeLikeINS_12CwiseUnaryOpINS_8internal14scalar_cast_opIbiEEKNS_13CwiseBinaryOpINS6_13scalar_cmp_opIffLNS6_14ComparisonNameE1EEEKNS1_IfLin1ELin1ELi0ELin1ELin1EEESE_EEEEEEvRKNS_9EigenBaseIT_EE, symObjAddr: 0x13188, symBinAddr: 0x100016DEC, symSize: 0x11C }
  - { offsetInCU: 0x5463C, offset: 0x5463C, size: 0x8, addend: 0x0, symName: __ZN5Eigen15PlainObjectBaseINS_5ArrayIiLin1ELin1ELi0ELin1ELin1EEEE12_set_noaliasINS_12CwiseUnaryOpINS_8internal14scalar_cast_opIbiEEKNS_13CwiseBinaryOpINS6_13scalar_cmp_opIffLNS6_14ComparisonNameE1EEEKNS1_IfLin1ELin1ELi0ELin1ELin1EEESE_EEEEEERS2_RKNS_9DenseBaseIT_EE, symObjAddr: 0x132A4, symBinAddr: 0x100016F08, symSize: 0x60 }
  - { offsetInCU: 0x5467A, offset: 0x5467A, size: 0x8, addend: 0x0, symName: __ZNK5Eigen12CwiseUnaryOpINS_8internal14scalar_cast_opIbiEEKNS_13CwiseBinaryOpINS1_13scalar_cmp_opIffLNS1_14ComparisonNameE1EEEKNS_5ArrayIfLin1ELin1ELi0ELin1ELin1EEESA_EEE4rowsEv, symObjAddr: 0x13304, symBinAddr: 0x100016F68, symSize: 0x28 }
  - { offsetInCU: 0x546A0, offset: 0x546A0, size: 0x8, addend: 0x0, symName: __ZNK5Eigen12CwiseUnaryOpINS_8internal14scalar_cast_opIbiEEKNS_13CwiseBinaryOpINS1_13scalar_cmp_opIffLNS1_14ComparisonNameE1EEEKNS_5ArrayIfLin1ELin1ELi0ELin1ELin1EEESA_EEE4colsEv, symObjAddr: 0x1332C, symBinAddr: 0x100016F90, symSize: 0x28 }
  - { offsetInCU: 0x546C6, offset: 0x546C6, size: 0x8, addend: 0x0, symName: __ZNK5Eigen13CwiseBinaryOpINS_8internal13scalar_cmp_opIffLNS1_14ComparisonNameE1EEEKNS_5ArrayIfLin1ELin1ELi0ELin1ELin1EEES7_E4rowsEv, symObjAddr: 0x13354, symBinAddr: 0x100016FB8, symSize: 0x28 }
  - { offsetInCU: 0x546EC, offset: 0x546EC, size: 0x8, addend: 0x0, symName: __ZNK5Eigen13CwiseBinaryOpINS_8internal13scalar_cmp_opIffLNS1_14ComparisonNameE1EEEKNS_5ArrayIfLin1ELin1ELi0ELin1ELin1EEES7_E4colsEv, symObjAddr: 0x1337C, symBinAddr: 0x100016FE0, symSize: 0x28 }
  - { offsetInCU: 0x54712, offset: 0x54712, size: 0x8, addend: 0x0, symName: __ZN5Eigen8internal10AssignmentINS_5ArrayIiLin1ELin1ELi0ELin1ELin1EEENS_12CwiseUnaryOpINS0_14scalar_cast_opIbiEEKNS_13CwiseBinaryOpINS0_13scalar_cmp_opIffLNS0_14ComparisonNameE1EEEKNS2_IfLin1ELin1ELi0ELin1ELin1EEESC_EEEENS0_9assign_opIiiEENS0_11Dense2DenseEvE3runERS3_RKSF_RKSH_, symObjAddr: 0x133E0, symBinAddr: 0x100017044, symSize: 0x40 }
  - { offsetInCU: 0x54754, offset: 0x54754, size: 0x8, addend: 0x0, symName: __ZN5Eigen8internal27checkTransposeAliasing_implINS_5ArrayIiLin1ELin1ELi0ELin1ELin1EEENS_12CwiseUnaryOpINS0_14scalar_cast_opIbiEEKNS_13CwiseBinaryOpINS0_13scalar_cmp_opIffLNS0_14ComparisonNameE1EEEKNS2_IfLin1ELin1ELi0ELin1ELin1EEESC_EEEELb0EE3runERKS3_RKSF_, symObjAddr: 0x13558, symBinAddr: 0x1000171BC, symSize: 0x14 }
  - { offsetInCU: 0x5480B, offset: 0x5480B, size: 0x8, addend: 0x0, symName: __ZN5Eigen8internal9evaluatorINS_12CwiseUnaryOpINS0_14scalar_cast_opIbiEEKNS_13CwiseBinaryOpINS0_13scalar_cmp_opIffLNS0_14ComparisonNameE1EEEKNS_5ArrayIfLin1ELin1ELi0ELin1ELin1EEESB_EEEEEC1ERKSE_, symObjAddr: 0x1356C, symBinAddr: 0x1000171D0, symSize: 0x34 }
  - { offsetInCU: 0x54870, offset: 0x54870, size: 0x8, addend: 0x0, symName: __ZN5Eigen8internal31generic_dense_assignment_kernelINS0_9evaluatorINS_5ArrayIiLin1ELin1ELi0ELin1ELin1EEEEENS2_INS_12CwiseUnaryOpINS0_14scalar_cast_opIbiEEKNS_13CwiseBinaryOpINS0_13scalar_cmp_opIffLNS0_14ComparisonNameE1EEEKNS3_IfLin1ELin1ELi0ELin1ELin1EEESE_EEEEEENS0_9assign_opIiiEELi0EEC1ERS5_RKSI_RKSK_RS4_, symObjAddr: 0x13698, symBinAddr: 0x1000172FC, symSize: 0x4C }
  - { offsetInCU: 0x548DB, offset: 0x548DB, size: 0x8, addend: 0x0, symName: __ZN5Eigen8internal21dense_assignment_loopINS0_31generic_dense_assignment_kernelINS0_9evaluatorINS_5ArrayIiLin1ELin1ELi0ELin1ELin1EEEEENS3_INS_12CwiseUnaryOpINS0_14scalar_cast_opIbiEEKNS_13CwiseBinaryOpINS0_13scalar_cmp_opIffLNS0_14ComparisonNameE1EEEKNS4_IfLin1ELin1ELi0ELin1ELin1EEESF_EEEEEENS0_9assign_opIiiEELi0EEELi1ELi0EE3runERSM_, symObjAddr: 0x136E4, symBinAddr: 0x100017348, symSize: 0x68 }
  - { offsetInCU: 0x5492B, offset: 0x5492B, size: 0x8, addend: 0x0, symName: __ZN5Eigen8internal9evaluatorINS_12CwiseUnaryOpINS0_14scalar_cast_opIbiEEKNS_13CwiseBinaryOpINS0_13scalar_cmp_opIffLNS0_14ComparisonNameE1EEEKNS_5ArrayIfLin1ELin1ELi0ELin1ELin1EEESB_EEEEED1Ev, symObjAddr: 0x1374C, symBinAddr: 0x1000173B0, symSize: 0x2C }
  - { offsetInCU: 0x54957, offset: 0x54957, size: 0x8, addend: 0x0, symName: __ZN5Eigen8internal9evaluatorINS_12CwiseUnaryOpINS0_14scalar_cast_opIbiEEKNS_13CwiseBinaryOpINS0_13scalar_cmp_opIffLNS0_14ComparisonNameE1EEEKNS_5ArrayIfLin1ELin1ELi0ELin1ELin1EEESB_EEEEEC2ERKSE_, symObjAddr: 0x13778, symBinAddr: 0x1000173DC, symSize: 0x34 }
  - { offsetInCU: 0x5498F, offset: 0x5498F, size: 0x8, addend: 0x0, symName: __ZN5Eigen8internal15unary_evaluatorINS_12CwiseUnaryOpINS0_14scalar_cast_opIbiEEKNS_13CwiseBinaryOpINS0_13scalar_cmp_opIffLNS0_14ComparisonNameE1EEEKNS_5ArrayIfLin1ELin1ELi0ELin1ELin1EEESB_EEEENS0_10IndexBasedEiEC2ERKSE_, symObjAddr: 0x137AC, symBinAddr: 0x100017410, symSize: 0x64 }
  - { offsetInCU: 0x549C8, offset: 0x549C8, size: 0x8, addend: 0x0, symName: __ZN5Eigen8internal14evaluator_baseINS_12CwiseUnaryOpINS0_14scalar_cast_opIbiEEKNS_13CwiseBinaryOpINS0_13scalar_cmp_opIffLNS0_14ComparisonNameE1EEEKNS_5ArrayIfLin1ELin1ELi0ELin1ELin1EEESB_EEEEEC2Ev, symObjAddr: 0x13810, symBinAddr: 0x100017474, symSize: 0x14 }
  - { offsetInCU: 0x549F2, offset: 0x549F2, size: 0x8, addend: 0x0, symName: __ZN5Eigen8internal15unary_evaluatorINS_12CwiseUnaryOpINS0_14scalar_cast_opIbiEEKNS_13CwiseBinaryOpINS0_13scalar_cmp_opIffLNS0_14ComparisonNameE1EEEKNS_5ArrayIfLin1ELin1ELi0ELin1ELin1EEESB_EEEENS0_10IndexBasedEiE4DataC1ERKSE_, symObjAddr: 0x13824, symBinAddr: 0x100017488, symSize: 0x34 }
  - { offsetInCU: 0x54A2B, offset: 0x54A2B, size: 0x8, addend: 0x0, symName: __ZN5Eigen8internal14evaluator_baseINS_12CwiseUnaryOpINS0_14scalar_cast_opIbiEEKNS_13CwiseBinaryOpINS0_13scalar_cmp_opIffLNS0_14ComparisonNameE1EEEKNS_5ArrayIfLin1ELin1ELi0ELin1ELin1EEESB_EEEEED2Ev, symObjAddr: 0x13858, symBinAddr: 0x1000174BC, symSize: 0x14 }
  - { offsetInCU: 0x54A55, offset: 0x54A55, size: 0x8, addend: 0x0, symName: __ZN5Eigen8internal15unary_evaluatorINS_12CwiseUnaryOpINS0_14scalar_cast_opIbiEEKNS_13CwiseBinaryOpINS0_13scalar_cmp_opIffLNS0_14ComparisonNameE1EEEKNS_5ArrayIfLin1ELin1ELi0ELin1ELin1EEESB_EEEENS0_10IndexBasedEiE4DataC2ERKSE_, symObjAddr: 0x1386C, symBinAddr: 0x1000174D0, symSize: 0x58 }
  - { offsetInCU: 0x54A8E, offset: 0x54A8E, size: 0x8, addend: 0x0, symName: __ZNK5Eigen12CwiseUnaryOpINS_8internal14scalar_cast_opIbiEEKNS_13CwiseBinaryOpINS1_13scalar_cmp_opIffLNS1_14ComparisonNameE1EEEKNS_5ArrayIfLin1ELin1ELi0ELin1ELin1EEESA_EEE7functorEv, symObjAddr: 0x138C4, symBinAddr: 0x100017528, symSize: 0x18 }
  - { offsetInCU: 0x54AB4, offset: 0x54AB4, size: 0x8, addend: 0x0, symName: __ZNK5Eigen12CwiseUnaryOpINS_8internal14scalar_cast_opIbiEEKNS_13CwiseBinaryOpINS1_13scalar_cmp_opIffLNS1_14ComparisonNameE1EEEKNS_5ArrayIfLin1ELin1ELi0ELin1ELin1EEESA_EEE16nestedExpressionEv, symObjAddr: 0x138DC, symBinAddr: 0x100017540, symSize: 0x18 }
  - { offsetInCU: 0x54ADA, offset: 0x54ADA, size: 0x8, addend: 0x0, symName: __ZN5Eigen8internal9evaluatorIKNS_13CwiseBinaryOpINS0_13scalar_cmp_opIffLNS0_14ComparisonNameE1EEEKNS_5ArrayIfLin1ELin1ELi0ELin1ELin1EEES8_EEEC1ERSA_, symObjAddr: 0x138F4, symBinAddr: 0x100017558, symSize: 0x34 }
  - { offsetInCU: 0x54B12, offset: 0x54B12, size: 0x8, addend: 0x0, symName: __ZN5Eigen8internal9evaluatorIKNS_13CwiseBinaryOpINS0_13scalar_cmp_opIffLNS0_14ComparisonNameE1EEEKNS_5ArrayIfLin1ELin1ELi0ELin1ELin1EEES8_EEEC2ERSA_, symObjAddr: 0x13928, symBinAddr: 0x10001758C, symSize: 0x34 }
  - { offsetInCU: 0x54B4A, offset: 0x54B4A, size: 0x8, addend: 0x0, symName: __ZN5Eigen8internal9evaluatorINS_13CwiseBinaryOpINS0_13scalar_cmp_opIffLNS0_14ComparisonNameE1EEEKNS_5ArrayIfLin1ELin1ELi0ELin1ELin1EEES8_EEEC2ERKS9_, symObjAddr: 0x1395C, symBinAddr: 0x1000175C0, symSize: 0x34 }
  - { offsetInCU: 0x54B83, offset: 0x54B83, size: 0x8, addend: 0x0, symName: __ZN5Eigen8internal16binary_evaluatorINS_13CwiseBinaryOpINS0_13scalar_cmp_opIffLNS0_14ComparisonNameE1EEEKNS_5ArrayIfLin1ELin1ELi0ELin1ELin1EEES8_EENS0_10IndexBasedESA_ffEC2ERKS9_, symObjAddr: 0x13990, symBinAddr: 0x1000175F4, symSize: 0x64 }
  - { offsetInCU: 0x54BBC, offset: 0x54BBC, size: 0x8, addend: 0x0, symName: __ZN5Eigen8internal14evaluator_baseINS_13CwiseBinaryOpINS0_13scalar_cmp_opIffLNS0_14ComparisonNameE1EEEKNS_5ArrayIfLin1ELin1ELi0ELin1ELin1EEES8_EEEC2Ev, symObjAddr: 0x139F4, symBinAddr: 0x100017658, symSize: 0x14 }
  - { offsetInCU: 0x54BE6, offset: 0x54BE6, size: 0x8, addend: 0x0, symName: __ZN5Eigen8internal16binary_evaluatorINS_13CwiseBinaryOpINS0_13scalar_cmp_opIffLNS0_14ComparisonNameE1EEEKNS_5ArrayIfLin1ELin1ELi0ELin1ELin1EEES8_EENS0_10IndexBasedESA_ffE4DataC1ERKS9_, symObjAddr: 0x13A08, symBinAddr: 0x10001766C, symSize: 0x34 }
  - { offsetInCU: 0x54C1F, offset: 0x54C1F, size: 0x8, addend: 0x0, symName: __ZN5Eigen8internal14evaluator_baseINS_13CwiseBinaryOpINS0_13scalar_cmp_opIffLNS0_14ComparisonNameE1EEEKNS_5ArrayIfLin1ELin1ELi0ELin1ELin1EEES8_EEED2Ev, symObjAddr: 0x13A3C, symBinAddr: 0x1000176A0, symSize: 0x14 }
  - { offsetInCU: 0x54C49, offset: 0x54C49, size: 0x8, addend: 0x0, symName: __ZN5Eigen8internal16binary_evaluatorINS_13CwiseBinaryOpINS0_13scalar_cmp_opIffLNS0_14ComparisonNameE1EEEKNS_5ArrayIfLin1ELin1ELi0ELin1ELin1EEES8_EENS0_10IndexBasedESA_ffE4DataC2ERKS9_, symObjAddr: 0x13A50, symBinAddr: 0x1000176B4, symSize: 0xA8 }
  - { offsetInCU: 0x54C82, offset: 0x54C82, size: 0x8, addend: 0x0, symName: __ZNK5Eigen13CwiseBinaryOpINS_8internal13scalar_cmp_opIffLNS1_14ComparisonNameE1EEEKNS_5ArrayIfLin1ELin1ELi0ELin1ELin1EEES7_E7functorEv, symObjAddr: 0x13AF8, symBinAddr: 0x10001775C, symSize: 0x18 }
  - { offsetInCU: 0x54CA8, offset: 0x54CA8, size: 0x8, addend: 0x0, symName: __ZNK5Eigen13CwiseBinaryOpINS_8internal13scalar_cmp_opIffLNS1_14ComparisonNameE1EEEKNS_5ArrayIfLin1ELin1ELi0ELin1ELin1EEES7_E3lhsEv, symObjAddr: 0x13B10, symBinAddr: 0x100017774, symSize: 0x18 }
  - { offsetInCU: 0x54CCE, offset: 0x54CCE, size: 0x8, addend: 0x0, symName: __ZN5Eigen8internal9evaluatorIKNS_5ArrayIfLin1ELin1ELi0ELin1ELin1EEEEC1ERS4_, symObjAddr: 0x13B28, symBinAddr: 0x10001778C, symSize: 0x34 }
  - { offsetInCU: 0x54D06, offset: 0x54D06, size: 0x8, addend: 0x0, symName: __ZNK5Eigen13CwiseBinaryOpINS_8internal13scalar_cmp_opIffLNS1_14ComparisonNameE1EEEKNS_5ArrayIfLin1ELin1ELi0ELin1ELin1EEES7_E3rhsEv, symObjAddr: 0x13B5C, symBinAddr: 0x1000177C0, symSize: 0x18 }
  - { offsetInCU: 0x54D2C, offset: 0x54D2C, size: 0x8, addend: 0x0, symName: __ZN5Eigen8internal9evaluatorIKNS_5ArrayIfLin1ELin1ELi0ELin1ELin1EEEED1Ev, symObjAddr: 0x13B74, symBinAddr: 0x1000177D8, symSize: 0x2C }
  - { offsetInCU: 0x54D58, offset: 0x54D58, size: 0x8, addend: 0x0, symName: __ZN5Eigen8internal9evaluatorIKNS_5ArrayIfLin1ELin1ELi0ELin1ELin1EEEEC2ERS4_, symObjAddr: 0x13BA0, symBinAddr: 0x100017804, symSize: 0x34 }
  - { offsetInCU: 0x54D90, offset: 0x54D90, size: 0x8, addend: 0x0, symName: __ZN5Eigen8internal9evaluatorIKNS_5ArrayIfLin1ELin1ELi0ELin1ELin1EEEED2Ev, symObjAddr: 0x13BD4, symBinAddr: 0x100017838, symSize: 0x2C }
  - { offsetInCU: 0x54DBC, offset: 0x54DBC, size: 0x8, addend: 0x0, symName: __ZN5Eigen8internal31generic_dense_assignment_kernelINS0_9evaluatorINS_5ArrayIiLin1ELin1ELi0ELin1ELin1EEEEENS2_INS_12CwiseUnaryOpINS0_14scalar_cast_opIbiEEKNS_13CwiseBinaryOpINS0_13scalar_cmp_opIffLNS0_14ComparisonNameE1EEEKNS3_IfLin1ELin1ELi0ELin1ELin1EEESE_EEEEEENS0_9assign_opIiiEELi0EEC2ERS5_RKSI_RKSK_RS4_, symObjAddr: 0x13C00, symBinAddr: 0x100017864, symSize: 0x44 }
  - { offsetInCU: 0x54E22, offset: 0x54E22, size: 0x8, addend: 0x0, symName: __ZNK5Eigen8internal31generic_dense_assignment_kernelINS0_9evaluatorINS_5ArrayIiLin1ELin1ELi0ELin1ELin1EEEEENS2_INS_12CwiseUnaryOpINS0_14scalar_cast_opIbiEEKNS_13CwiseBinaryOpINS0_13scalar_cmp_opIffLNS0_14ComparisonNameE1EEEKNS3_IfLin1ELin1ELi0ELin1ELin1EEESE_EEEEEENS0_9assign_opIiiEELi0EE4sizeEv, symObjAddr: 0x13C44, symBinAddr: 0x1000178A8, symSize: 0x28 }
  - { offsetInCU: 0x54E48, offset: 0x54E48, size: 0x8, addend: 0x0, symName: __ZN5Eigen8internal31generic_dense_assignment_kernelINS0_9evaluatorINS_5ArrayIiLin1ELin1ELi0ELin1ELin1EEEEENS2_INS_12CwiseUnaryOpINS0_14scalar_cast_opIbiEEKNS_13CwiseBinaryOpINS0_13scalar_cmp_opIffLNS0_14ComparisonNameE1EEEKNS3_IfLin1ELin1ELi0ELin1ELin1EEESE_EEEEEENS0_9assign_opIiiEELi0EE11assignCoeffEl, symObjAddr: 0x13C6C, symBinAddr: 0x1000178D0, symSize: 0x68 }
  - { offsetInCU: 0x54E7D, offset: 0x54E7D, size: 0x8, addend: 0x0, symName: __ZN5Eigen8internal9evaluatorINS_15PlainObjectBaseINS_5ArrayIiLin1ELin1ELi0ELin1ELin1EEEEEE8coeffRefEl, symObjAddr: 0x13CD4, symBinAddr: 0x100017938, symSize: 0x24 }
  - { offsetInCU: 0x54EB1, offset: 0x54EB1, size: 0x8, addend: 0x0, symName: __ZNK5Eigen8internal15unary_evaluatorINS_12CwiseUnaryOpINS0_14scalar_cast_opIbiEEKNS_13CwiseBinaryOpINS0_13scalar_cmp_opIffLNS0_14ComparisonNameE1EEEKNS_5ArrayIfLin1ELin1ELi0ELin1ELin1EEESB_EEEENS0_10IndexBasedEiE5coeffEl, symObjAddr: 0x13CF8, symBinAddr: 0x10001795C, symSize: 0x58 }
  - { offsetInCU: 0x54EE6, offset: 0x54EE6, size: 0x8, addend: 0x0, symName: __ZNK5Eigen8internal15unary_evaluatorINS_12CwiseUnaryOpINS0_14scalar_cast_opIbiEEKNS_13CwiseBinaryOpINS0_13scalar_cmp_opIffLNS0_14ComparisonNameE1EEEKNS_5ArrayIfLin1ELin1ELi0ELin1ELin1EEESB_EEEENS0_10IndexBasedEiE4Data4funcEv, symObjAddr: 0x13D50, symBinAddr: 0x1000179B4, symSize: 0x14 }
  - { offsetInCU: 0x54F0C, offset: 0x54F0C, size: 0x8, addend: 0x0, symName: __ZNK5Eigen8internal14scalar_cast_opIbiEclERKb, symObjAddr: 0x13D64, symBinAddr: 0x1000179C8, symSize: 0x28 }
  - { offsetInCU: 0x54F40, offset: 0x54F40, size: 0x8, addend: 0x0, symName: __ZNK5Eigen8internal16binary_evaluatorINS_13CwiseBinaryOpINS0_13scalar_cmp_opIffLNS0_14ComparisonNameE1EEEKNS_5ArrayIfLin1ELin1ELi0ELin1ELin1EEES8_EENS0_10IndexBasedESA_ffE5coeffEl, symObjAddr: 0x13D8C, symBinAddr: 0x1000179F0, symSize: 0x68 }
  - { offsetInCU: 0x54F75, offset: 0x54F75, size: 0x8, addend: 0x0, symName: __ZN5Eigen8internal9cast_implIbivE3runERKb, symObjAddr: 0x13E18, symBinAddr: 0x100017A7C, symSize: 0x1C }
  - { offsetInCU: 0x54F99, offset: 0x54F99, size: 0x8, addend: 0x0, symName: __ZNK5Eigen8internal16binary_evaluatorINS_13CwiseBinaryOpINS0_13scalar_cmp_opIffLNS0_14ComparisonNameE1EEEKNS_5ArrayIfLin1ELin1ELi0ELin1ELin1EEES8_EENS0_10IndexBasedESA_ffE4Data4funcEv, symObjAddr: 0x13E34, symBinAddr: 0x100017A98, symSize: 0x14 }
  - { offsetInCU: 0x54FBF, offset: 0x54FBF, size: 0x8, addend: 0x0, symName: __ZNK5Eigen8internal13scalar_cmp_opIffLNS0_14ComparisonNameE1EEclERKfS5_, symObjAddr: 0x13E48, symBinAddr: 0x100017AAC, symSize: 0x34 }
  - { offsetInCU: 0x55001, offset: 0x55001, size: 0x8, addend: 0x0, symName: __ZNK5Eigen8internal9evaluatorINS_15PlainObjectBaseINS_5ArrayIfLin1ELin1ELi0ELin1ELin1EEEEEE5coeffEl, symObjAddr: 0x13E7C, symBinAddr: 0x100017AE0, symSize: 0x24 }
  - { offsetInCU: 0x55035, offset: 0x55035, size: 0x8, addend: 0x0, symName: __ZN5Eigen8internal9evaluatorINS_12CwiseUnaryOpINS0_14scalar_cast_opIbiEEKNS_13CwiseBinaryOpINS0_13scalar_cmp_opIffLNS0_14ComparisonNameE1EEEKNS_5ArrayIfLin1ELin1ELi0ELin1ELin1EEESB_EEEEED2Ev, symObjAddr: 0x13EA0, symBinAddr: 0x100017B04, symSize: 0x2C }
  - { offsetInCU: 0x55061, offset: 0x55061, size: 0x8, addend: 0x0, symName: __ZN5Eigen8internal15unary_evaluatorINS_12CwiseUnaryOpINS0_14scalar_cast_opIbiEEKNS_13CwiseBinaryOpINS0_13scalar_cmp_opIffLNS0_14ComparisonNameE1EEEKNS_5ArrayIfLin1ELin1ELi0ELin1ELin1EEESB_EEEENS0_10IndexBasedEiED2Ev, symObjAddr: 0x13ECC, symBinAddr: 0x100017B30, symSize: 0x34 }
  - { offsetInCU: 0x5508D, offset: 0x5508D, size: 0x8, addend: 0x0, symName: __ZN5Eigen8internal15unary_evaluatorINS_12CwiseUnaryOpINS0_14scalar_cast_opIbiEEKNS_13CwiseBinaryOpINS0_13scalar_cmp_opIffLNS0_14ComparisonNameE1EEEKNS_5ArrayIfLin1ELin1ELi0ELin1ELin1EEESB_EEEENS0_10IndexBasedEiE4DataD1Ev, symObjAddr: 0x13F00, symBinAddr: 0x100017B64, symSize: 0x2C }
  - { offsetInCU: 0x550BA, offset: 0x550BA, size: 0x8, addend: 0x0, symName: __ZN5Eigen8internal15unary_evaluatorINS_12CwiseUnaryOpINS0_14scalar_cast_opIbiEEKNS_13CwiseBinaryOpINS0_13scalar_cmp_opIffLNS0_14ComparisonNameE1EEEKNS_5ArrayIfLin1ELin1ELi0ELin1ELin1EEESB_EEEENS0_10IndexBasedEiE4DataD2Ev, symObjAddr: 0x13F2C, symBinAddr: 0x100017B90, symSize: 0x30 }
  - { offsetInCU: 0x550E7, offset: 0x550E7, size: 0x8, addend: 0x0, symName: __ZN5Eigen8internal9evaluatorIKNS_13CwiseBinaryOpINS0_13scalar_cmp_opIffLNS0_14ComparisonNameE1EEEKNS_5ArrayIfLin1ELin1ELi0ELin1ELin1EEES8_EEED1Ev, symObjAddr: 0x13F5C, symBinAddr: 0x100017BC0, symSize: 0x2C }
  - { offsetInCU: 0x55113, offset: 0x55113, size: 0x8, addend: 0x0, symName: __ZN5Eigen8internal9evaluatorIKNS_13CwiseBinaryOpINS0_13scalar_cmp_opIffLNS0_14ComparisonNameE1EEEKNS_5ArrayIfLin1ELin1ELi0ELin1ELin1EEES8_EEED2Ev, symObjAddr: 0x13F88, symBinAddr: 0x100017BEC, symSize: 0x2C }
  - { offsetInCU: 0x5513F, offset: 0x5513F, size: 0x8, addend: 0x0, symName: __ZN5Eigen8internal9evaluatorINS_13CwiseBinaryOpINS0_13scalar_cmp_opIffLNS0_14ComparisonNameE1EEEKNS_5ArrayIfLin1ELin1ELi0ELin1ELin1EEES8_EEED2Ev, symObjAddr: 0x13FB4, symBinAddr: 0x100017C18, symSize: 0x2C }
  - { offsetInCU: 0x5516C, offset: 0x5516C, size: 0x8, addend: 0x0, symName: __ZN5Eigen8internal16binary_evaluatorINS_13CwiseBinaryOpINS0_13scalar_cmp_opIffLNS0_14ComparisonNameE1EEEKNS_5ArrayIfLin1ELin1ELi0ELin1ELin1EEES8_EENS0_10IndexBasedESA_ffED2Ev, symObjAddr: 0x13FE0, symBinAddr: 0x100017C44, symSize: 0x34 }
  - { offsetInCU: 0x55198, offset: 0x55198, size: 0x8, addend: 0x0, symName: __ZN5Eigen8internal16binary_evaluatorINS_13CwiseBinaryOpINS0_13scalar_cmp_opIffLNS0_14ComparisonNameE1EEEKNS_5ArrayIfLin1ELin1ELi0ELin1ELin1EEES8_EENS0_10IndexBasedESA_ffE4DataD1Ev, symObjAddr: 0x14014, symBinAddr: 0x100017C78, symSize: 0x2C }
  - { offsetInCU: 0x551C5, offset: 0x551C5, size: 0x8, addend: 0x0, symName: __ZN5Eigen8internal16binary_evaluatorINS_13CwiseBinaryOpINS0_13scalar_cmp_opIffLNS0_14ComparisonNameE1EEEKNS_5ArrayIfLin1ELin1ELi0ELin1ELin1EEES8_EENS0_10IndexBasedESA_ffE4DataD2Ev, symObjAddr: 0x14040, symBinAddr: 0x100017CA4, symSize: 0x3C }
  - { offsetInCU: 0x551F2, offset: 0x551F2, size: 0x8, addend: 0x0, symName: __ZN5Eigen12VectorwiseOpINS_5ArrayIiLin1ELin1ELi0ELin1ELin1EEELi0EEC1ERS2_, symObjAddr: 0x1407C, symBinAddr: 0x100017CE0, symSize: 0x34 }
  - { offsetInCU: 0x5522B, offset: 0x5522B, size: 0x8, addend: 0x0, symName: __ZN5Eigen12VectorwiseOpINS_5ArrayIiLin1ELin1ELi0ELin1ELin1EEELi0EEC2ERS2_, symObjAddr: 0x140B0, symBinAddr: 0x100017D14, symSize: 0x20 }
  - { offsetInCU: 0x55264, offset: 0x55264, size: 0x8, addend: 0x0, symName: __ZNK5Eigen12VectorwiseOpINS_5ArrayIiLin1ELin1ELi0ELin1ELin1EEELi0EE11_expressionEv, symObjAddr: 0x140D0, symBinAddr: 0x100017D34, symSize: 0x18 }
  - { offsetInCU: 0x5528A, offset: 0x5528A, size: 0x8, addend: 0x0, symName: __ZN5Eigen8internal10member_sumIiiEC1Ev, symObjAddr: 0x140E8, symBinAddr: 0x100017D4C, symSize: 0x2C }
  - { offsetInCU: 0x552B4, offset: 0x552B4, size: 0x8, addend: 0x0, symName: __ZN5Eigen16PartialReduxExprINS_5ArrayIiLin1ELin1ELi0ELin1ELin1EEENS_8internal10member_sumIiiEELi0EEC1ERKS2_RKS5_, symObjAddr: 0x14114, symBinAddr: 0x100017D78, symSize: 0x3C }
  - { offsetInCU: 0x552FA, offset: 0x552FA, size: 0x8, addend: 0x0, symName: __ZN5Eigen8internal10member_sumIiiEC2Ev, symObjAddr: 0x14150, symBinAddr: 0x100017DB4, symSize: 0x14 }
  - { offsetInCU: 0x55324, offset: 0x55324, size: 0x8, addend: 0x0, symName: __ZN5Eigen16PartialReduxExprINS_5ArrayIiLin1ELin1ELi0ELin1ELin1EEENS_8internal10member_sumIiiEELi0EEC2ERKS2_RKS5_, symObjAddr: 0x14164, symBinAddr: 0x100017DC8, symSize: 0x4C }
  - { offsetInCU: 0x5536A, offset: 0x5536A, size: 0x8, addend: 0x0, symName: __ZN5Eigen9ArrayBaseINS_16PartialReduxExprINS_5ArrayIiLin1ELin1ELi0ELin1ELin1EEENS_8internal10member_sumIiiEELi0EEEEC2Ev, symObjAddr: 0x141B0, symBinAddr: 0x100017E14, symSize: 0x2C }
  - { offsetInCU: 0x55394, offset: 0x55394, size: 0x8, addend: 0x0, symName: __ZN5Eigen8internal10member_sumIiiEC1ERKS2_, symObjAddr: 0x141DC, symBinAddr: 0x100017E40, symSize: 0x34 }
  - { offsetInCU: 0x553C9, offset: 0x553C9, size: 0x8, addend: 0x0, symName: __ZN5Eigen9DenseBaseINS_16PartialReduxExprINS_5ArrayIiLin1ELin1ELi0ELin1ELin1EEENS_8internal10member_sumIiiEELi0EEEEC2Ev, symObjAddr: 0x14210, symBinAddr: 0x100017E74, symSize: 0x14 }
  - { offsetInCU: 0x553F3, offset: 0x553F3, size: 0x8, addend: 0x0, symName: __ZN5Eigen8internal10member_sumIiiEC2ERKS2_, symObjAddr: 0x14224, symBinAddr: 0x100017E88, symSize: 0x18 }
  - { offsetInCU: 0x55428, offset: 0x55428, size: 0x8, addend: 0x0, symName: __ZN5Eigen5ArrayIiLin1ELi1ELi0ELin1ELi1EEC2INS_16PartialReduxExprINS0_IiLin1ELin1ELi0ELin1ELin1EEENS_8internal10member_sumIiiEELi0EEEEERKNS_9EigenBaseIT_EENS5_9enable_ifIXsr8internal14is_convertibleINSA_6ScalarEiEE5valueENS1_11PrivateTypeEE4typeE, symObjAddr: 0x1423C, symBinAddr: 0x100017EA0, symSize: 0x40 }
  - { offsetInCU: 0x55475, offset: 0x55475, size: 0x8, addend: 0x0, symName: __ZNK5Eigen9EigenBaseINS_16PartialReduxExprINS_5ArrayIiLin1ELin1ELi0ELin1ELin1EEENS_8internal10member_sumIiiEELi0EEEE7derivedEv, symObjAddr: 0x1427C, symBinAddr: 0x100017EE0, symSize: 0x14 }
  - { offsetInCU: 0x5549B, offset: 0x5549B, size: 0x8, addend: 0x0, symName: __ZN5Eigen15PlainObjectBaseINS_5ArrayIiLin1ELi1ELi0ELin1ELi1EEEEC2INS_16PartialReduxExprINS1_IiLin1ELin1ELi0ELin1ELin1EEENS_8internal10member_sumIiiEELi0EEEEERKNS_9DenseBaseIT_EE, symObjAddr: 0x14290, symBinAddr: 0x100017EF4, symSize: 0x80 }
  - { offsetInCU: 0x554DD, offset: 0x554DD, size: 0x8, addend: 0x0, symName: __ZN5Eigen15PlainObjectBaseINS_5ArrayIiLin1ELi1ELi0ELin1ELi1EEEE10resizeLikeINS_16PartialReduxExprINS1_IiLin1ELin1ELi0ELin1ELin1EEENS_8internal10member_sumIiiEELi0EEEEEvRKNS_9EigenBaseIT_EE, symObjAddr: 0x14310, symBinAddr: 0x100017F74, symSize: 0x170 }
  - { offsetInCU: 0x55571, offset: 0x55571, size: 0x8, addend: 0x0, symName: __ZN5Eigen15PlainObjectBaseINS_5ArrayIiLin1ELi1ELi0ELin1ELi1EEEE12_set_noaliasINS_16PartialReduxExprINS1_IiLin1ELin1ELi0ELin1ELin1EEENS_8internal10member_sumIiiEELi0EEEEERS2_RKNS_9DenseBaseIT_EE, symObjAddr: 0x14480, symBinAddr: 0x1000180E4, symSize: 0x60 }
  - { offsetInCU: 0x555AF, offset: 0x555AF, size: 0x8, addend: 0x0, symName: __ZNK5Eigen16PartialReduxExprINS_5ArrayIiLin1ELin1ELi0ELin1ELin1EEENS_8internal10member_sumIiiEELi0EE4rowsEv, symObjAddr: 0x144E0, symBinAddr: 0x100018144, symSize: 0x14 }
  - { offsetInCU: 0x555D5, offset: 0x555D5, size: 0x8, addend: 0x0, symName: __ZNK5Eigen16PartialReduxExprINS_5ArrayIiLin1ELin1ELi0ELin1ELin1EEENS_8internal10member_sumIiiEELi0EE4colsEv, symObjAddr: 0x144F4, symBinAddr: 0x100018158, symSize: 0x28 }
  - { offsetInCU: 0x555FB, offset: 0x555FB, size: 0x8, addend: 0x0, symName: __ZN5Eigen8internal10AssignmentINS_9TransposeINS_5ArrayIiLin1ELi1ELi0ELin1ELi1EEEEENS_16PartialReduxExprINS3_IiLin1ELin1ELi0ELin1ELin1EEENS0_10member_sumIiiEELi0EEENS0_9assign_opIiiEENS0_11Dense2DenseEvE3runERS5_RKSA_RKSC_, symObjAddr: 0x14560, symBinAddr: 0x1000181C4, symSize: 0x40 }
  - { offsetInCU: 0x5563D, offset: 0x5563D, size: 0x8, addend: 0x0, symName: __ZN5Eigen16PartialReduxExprINS_5ArrayIiLin1ELin1ELi0ELin1ELin1EEENS_8internal10member_sumIiiEELi0EEC1ERKS6_, symObjAddr: 0x146A4, symBinAddr: 0x100018308, symSize: 0x34 }
  - { offsetInCU: 0x5569A, offset: 0x5569A, size: 0x8, addend: 0x0, symName: __ZN5Eigen8internal9evaluatorINS_16PartialReduxExprINS_5ArrayIiLin1ELin1ELi0ELin1ELin1EEENS0_10member_sumIiiEELi0EEEEC1ES7_, symObjAddr: 0x146D8, symBinAddr: 0x10001833C, symSize: 0x34 }
  - { offsetInCU: 0x556D3, offset: 0x556D3, size: 0x8, addend: 0x0, symName: __ZNK5Eigen9EigenBaseINS_9TransposeINS_5ArrayIiLin1ELi1ELi0ELin1ELi1EEEEEE18const_cast_derivedEv, symObjAddr: 0x14804, symBinAddr: 0x100018468, symSize: 0x14 }
  - { offsetInCU: 0x55726, offset: 0x55726, size: 0x8, addend: 0x0, symName: __ZN5Eigen8internal31generic_dense_assignment_kernelINS0_9evaluatorINS_9TransposeINS_5ArrayIiLin1ELi1ELi0ELin1ELi1EEEEEEENS2_INS_16PartialReduxExprINS4_IiLin1ELin1ELi0ELin1ELin1EEENS0_10member_sumIiiEELi0EEEEENS0_9assign_opIiiEELi0EEC1ERS7_RKSD_RKSF_RS6_, symObjAddr: 0x14818, symBinAddr: 0x10001847C, symSize: 0x4C }
  - { offsetInCU: 0x55791, offset: 0x55791, size: 0x8, addend: 0x0, symName: __ZN5Eigen8internal21dense_assignment_loopINS0_31generic_dense_assignment_kernelINS0_9evaluatorINS_9TransposeINS_5ArrayIiLin1ELi1ELi0ELin1ELi1EEEEEEENS3_INS_16PartialReduxExprINS5_IiLin1ELin1ELi0ELin1ELin1EEENS0_10member_sumIiiEELi0EEEEENS0_9assign_opIiiEELi0EEELi1ELi0EE3runERSH_, symObjAddr: 0x14864, symBinAddr: 0x1000184C8, symSize: 0x68 }
  - { offsetInCU: 0x557E1, offset: 0x557E1, size: 0x8, addend: 0x0, symName: __ZN5Eigen8internal9evaluatorINS_16PartialReduxExprINS_5ArrayIiLin1ELin1ELi0ELin1ELin1EEENS0_10member_sumIiiEELi0EEEED1Ev, symObjAddr: 0x148CC, symBinAddr: 0x100018530, symSize: 0x2C }
  - { offsetInCU: 0x5580D, offset: 0x5580D, size: 0x8, addend: 0x0, symName: __ZN5Eigen16PartialReduxExprINS_5ArrayIiLin1ELin1ELi0ELin1ELin1EEENS_8internal10member_sumIiiEELi0EEC2ERKS6_, symObjAddr: 0x148F8, symBinAddr: 0x10001855C, symSize: 0x48 }
  - { offsetInCU: 0x55842, offset: 0x55842, size: 0x8, addend: 0x0, symName: __ZN5Eigen8internal9evaluatorINS_16PartialReduxExprINS_5ArrayIiLin1ELin1ELi0ELin1ELin1EEENS0_10member_sumIiiEELi0EEEEC2ES7_, symObjAddr: 0x14940, symBinAddr: 0x1000185A4, symSize: 0x9C }
  - { offsetInCU: 0x5587B, offset: 0x5587B, size: 0x8, addend: 0x0, symName: __ZN5Eigen8internal14evaluator_baseINS_16PartialReduxExprINS_5ArrayIiLin1ELin1ELi0ELin1ELin1EEENS0_10member_sumIiiEELi0EEEEC2Ev, symObjAddr: 0x149DC, symBinAddr: 0x100018640, symSize: 0x14 }
  - { offsetInCU: 0x558A5, offset: 0x558A5, size: 0x8, addend: 0x0, symName: __ZNK5Eigen16PartialReduxExprINS_5ArrayIiLin1ELin1ELi0ELin1ELin1EEENS_8internal10member_sumIiiEELi0EE16nestedExpressionEv, symObjAddr: 0x149F0, symBinAddr: 0x100018654, symSize: 0x18 }
  - { offsetInCU: 0x558CB, offset: 0x558CB, size: 0x8, addend: 0x0, symName: __ZNK5Eigen16PartialReduxExprINS_5ArrayIiLin1ELin1ELi0ELin1ELin1EEENS_8internal10member_sumIiiEELi0EE7functorEv, symObjAddr: 0x14A08, symBinAddr: 0x10001866C, symSize: 0x18 }
  - { offsetInCU: 0x558F1, offset: 0x558F1, size: 0x8, addend: 0x0, symName: __ZN5Eigen8internal14evaluator_baseINS_16PartialReduxExprINS_5ArrayIiLin1ELin1ELi0ELin1ELin1EEENS0_10member_sumIiiEELi0EEEED2Ev, symObjAddr: 0x14A20, symBinAddr: 0x100018684, symSize: 0x14 }
  - { offsetInCU: 0x5591B, offset: 0x5591B, size: 0x8, addend: 0x0, symName: __ZN5Eigen9TransposeINS_5ArrayIiLin1ELi1ELi0ELin1ELi1EEEE6resizeEll, symObjAddr: 0x14A34, symBinAddr: 0x100018698, symSize: 0x38 }
  - { offsetInCU: 0x5595D, offset: 0x5595D, size: 0x8, addend: 0x0, symName: __ZN5Eigen8internal31generic_dense_assignment_kernelINS0_9evaluatorINS_9TransposeINS_5ArrayIiLin1ELi1ELi0ELin1ELi1EEEEEEENS2_INS_16PartialReduxExprINS4_IiLin1ELin1ELi0ELin1ELin1EEENS0_10member_sumIiiEELi0EEEEENS0_9assign_opIiiEELi0EEC2ERS7_RKSD_RKSF_RS6_, symObjAddr: 0x14A6C, symBinAddr: 0x1000186D0, symSize: 0x44 }
  - { offsetInCU: 0x559C3, offset: 0x559C3, size: 0x8, addend: 0x0, symName: __ZNK5Eigen8internal31generic_dense_assignment_kernelINS0_9evaluatorINS_9TransposeINS_5ArrayIiLin1ELi1ELi0ELin1ELi1EEEEEEENS2_INS_16PartialReduxExprINS4_IiLin1ELin1ELi0ELin1ELin1EEENS0_10member_sumIiiEELi0EEEEENS0_9assign_opIiiEELi0EE4sizeEv, symObjAddr: 0x14AB0, symBinAddr: 0x100018714, symSize: 0x28 }
  - { offsetInCU: 0x559E9, offset: 0x559E9, size: 0x8, addend: 0x0, symName: __ZN5Eigen8internal31generic_dense_assignment_kernelINS0_9evaluatorINS_9TransposeINS_5ArrayIiLin1ELi1ELi0ELin1ELi1EEEEEEENS2_INS_16PartialReduxExprINS4_IiLin1ELin1ELi0ELin1ELin1EEENS0_10member_sumIiiEELi0EEEEENS0_9assign_opIiiEELi0EE11assignCoeffEl, symObjAddr: 0x14AD8, symBinAddr: 0x10001873C, symSize: 0x68 }
  - { offsetInCU: 0x55A1E, offset: 0x55A1E, size: 0x8, addend: 0x0, symName: __ZNK5Eigen9EigenBaseINS_9TransposeINS_5ArrayIiLin1ELi1ELi0ELin1ELi1EEEEEE4sizeEv, symObjAddr: 0x14B40, symBinAddr: 0x1000187A4, symSize: 0x44 }
  - { offsetInCU: 0x55A44, offset: 0x55A44, size: 0x8, addend: 0x0, symName: __ZNK5Eigen9EigenBaseINS_9TransposeINS_5ArrayIiLin1ELi1ELi0ELin1ELi1EEEEEE4rowsEv, symObjAddr: 0x14B84, symBinAddr: 0x1000187E8, symSize: 0x28 }
  - { offsetInCU: 0x55A6A, offset: 0x55A6A, size: 0x8, addend: 0x0, symName: __ZNK5Eigen9EigenBaseINS_9TransposeINS_5ArrayIiLin1ELi1ELi0ELin1ELi1EEEEEE4colsEv, symObjAddr: 0x14BAC, symBinAddr: 0x100018810, symSize: 0x28 }
  - { offsetInCU: 0x55A90, offset: 0x55A90, size: 0x8, addend: 0x0, symName: __ZN5Eigen8internal15unary_evaluatorINS_9TransposeINS_5ArrayIiLin1ELi1ELi0ELin1ELi1EEEEENS0_10IndexBasedEiE8coeffRefEl, symObjAddr: 0x14BD4, symBinAddr: 0x100018838, symSize: 0x2C }
  - { offsetInCU: 0x55AC5, offset: 0x55AC5, size: 0x8, addend: 0x0, symName: __ZNK5Eigen8internal9evaluatorINS_16PartialReduxExprINS_5ArrayIiLin1ELin1ELi0ELin1ELin1EEENS0_10member_sumIiiEELi0EEEE5coeffEl, symObjAddr: 0x14C00, symBinAddr: 0x100018864, symSize: 0x4C }
  - { offsetInCU: 0x55AF9, offset: 0x55AF9, size: 0x8, addend: 0x0, symName: __ZNK5Eigen8internal10member_sumIiiEclINS_5BlockIKNS_5ArrayIiLin1ELin1ELi0ELin1ELin1EEELin1ELi1ELb1EEEEEiRKT_, symObjAddr: 0x14C4C, symBinAddr: 0x1000188B0, symSize: 0x28 }
  - { offsetInCU: 0x55B36, offset: 0x55B36, size: 0x8, addend: 0x0, symName: __ZNK5Eigen9DenseBaseINS_5ArrayIiLin1ELin1ELi0ELin1ELin1EEEE9subVectorILNS_13DirectionTypeE0EEENS_8internal11conditionalIXeqT_LS5_0EEKNS_5BlockIKS2_Lin1ELi1ELb1EEEKNS8_IS9_Li1ELin1ELb0EEEE4typeEl, symObjAddr: 0x14C74, symBinAddr: 0x1000188D8, symSize: 0x3C }
  - { offsetInCU: 0x55B75, offset: 0x55B75, size: 0x8, addend: 0x0, symName: __ZNK5Eigen9DenseBaseINS_5BlockIKNS_5ArrayIiLin1ELin1ELi0ELin1ELin1EEELin1ELi1ELb1EEEE3sumEv, symObjAddr: 0x14CB0, symBinAddr: 0x100018914, symSize: 0x70 }
  - { offsetInCU: 0x55B9E, offset: 0x55B9E, size: 0x8, addend: 0x0, symName: __ZNK5Eigen9EigenBaseINS_5BlockIKNS_5ArrayIiLin1ELin1ELi0ELin1ELin1EEELin1ELi1ELb1EEEE4sizeEv, symObjAddr: 0x14D20, symBinAddr: 0x100018984, symSize: 0x44 }
  - { offsetInCU: 0x55BC4, offset: 0x55BC4, size: 0x8, addend: 0x0, symName: __ZNK5Eigen9EigenBaseINS_5BlockIKNS_5ArrayIiLin1ELin1ELi0ELin1ELin1EEELin1ELi1ELb1EEEE7derivedEv, symObjAddr: 0x14D64, symBinAddr: 0x1000189C8, symSize: 0x14 }
  - { offsetInCU: 0x55BEA, offset: 0x55BEA, size: 0x8, addend: 0x0, symName: __ZNK5Eigen9DenseBaseINS_5BlockIKNS_5ArrayIiLin1ELin1ELi0ELin1ELin1EEELin1ELi1ELb1EEEE5reduxINS_8internal13scalar_sum_opIiiEEEEiRKT_, symObjAddr: 0x14D78, symBinAddr: 0x1000189DC, symSize: 0x10C }
  - { offsetInCU: 0x55C46, offset: 0x55C46, size: 0x8, addend: 0x0, symName: __ZNK5Eigen9EigenBaseINS_5BlockIKNS_5ArrayIiLin1ELin1ELi0ELin1ELin1EEELin1ELi1ELb1EEEE4rowsEv, symObjAddr: 0x14E84, symBinAddr: 0x100018AE8, symSize: 0x38 }
  - { offsetInCU: 0x55C6C, offset: 0x55C6C, size: 0x8, addend: 0x0, symName: __ZNK5Eigen9EigenBaseINS_5BlockIKNS_5ArrayIiLin1ELin1ELi0ELin1ELin1EEELin1ELi1ELb1EEEE4colsEv, symObjAddr: 0x14EBC, symBinAddr: 0x100018B20, symSize: 0x38 }
  - { offsetInCU: 0x55C92, offset: 0x55C92, size: 0x8, addend: 0x0, symName: __ZNK5Eigen7MapBaseINS_5BlockIKNS_5ArrayIiLin1ELin1ELi0ELin1ELin1EEELin1ELi1ELb1EEELi0EE4rowsEv, symObjAddr: 0x14EF4, symBinAddr: 0x100018B58, symSize: 0x28 }
  - { offsetInCU: 0x55CB8, offset: 0x55CB8, size: 0x8, addend: 0x0, symName: __ZNK5Eigen7MapBaseINS_5BlockIKNS_5ArrayIiLin1ELin1ELi0ELin1ELin1EEELin1ELi1ELb1EEELi0EE4colsEv, symObjAddr: 0x14F1C, symBinAddr: 0x100018B80, symSize: 0x20 }
  - { offsetInCU: 0x55D15, offset: 0x55D15, size: 0x8, addend: 0x0, symName: __ZN5Eigen8internal15redux_evaluatorINS_5BlockIKNS_5ArrayIiLin1ELin1ELi0ELin1ELin1EEELin1ELi1ELb1EEEEC1ERKS6_, symObjAddr: 0x14F3C, symBinAddr: 0x100018BA0, symSize: 0x34 }
  - { offsetInCU: 0x55D53, offset: 0x55D53, size: 0x8, addend: 0x0, symName: __ZN5Eigen8internal10redux_implINS0_13scalar_sum_opIiiEENS0_15redux_evaluatorINS_5BlockIKNS_5ArrayIiLin1ELin1ELi0ELin1ELin1EEELin1ELi1ELb1EEEEELi3ELi0EE3runIS9_EEiRKSA_RKS3_RKT_, symObjAddr: 0x14F70, symBinAddr: 0x100018BD4, symSize: 0x3B0 }
  - { offsetInCU: 0x55ED0, offset: 0x55ED0, size: 0x8, addend: 0x0, symName: __ZN5Eigen8internal15redux_evaluatorINS_5BlockIKNS_5ArrayIiLin1ELin1ELi0ELin1ELin1EEELin1ELi1ELb1EEEED1Ev, symObjAddr: 0x15320, symBinAddr: 0x100018F84, symSize: 0x2C }
  - { offsetInCU: 0x55EFD, offset: 0x55EFD, size: 0x8, addend: 0x0, symName: __ZN5Eigen8internal15redux_evaluatorINS_5BlockIKNS_5ArrayIiLin1ELin1ELi0ELin1ELin1EEELin1ELi1ELb1EEEEC2ERKS6_, symObjAddr: 0x1534C, symBinAddr: 0x100018FB0, symSize: 0x34 }
  - { offsetInCU: 0x55F36, offset: 0x55F36, size: 0x8, addend: 0x0, symName: __ZN5Eigen8internal9evaluatorINS_5BlockIKNS_5ArrayIiLin1ELin1ELi0ELin1ELin1EEELin1ELi1ELb1EEEEC2ERKS6_, symObjAddr: 0x15380, symBinAddr: 0x100018FE4, symSize: 0x34 }
  - { offsetInCU: 0x55F6F, offset: 0x55F6F, size: 0x8, addend: 0x0, symName: __ZN5Eigen8internal15block_evaluatorIKNS_5ArrayIiLin1ELin1ELi0ELin1ELin1EEELin1ELi1ELb1ELb1EEC2ERKNS_5BlockIS4_Lin1ELi1ELb1EEE, symObjAddr: 0x153B4, symBinAddr: 0x100019018, symSize: 0xDC }
  - { offsetInCU: 0x55FA8, offset: 0x55FA8, size: 0x8, addend: 0x0, symName: __ZN5Eigen8internal17mapbase_evaluatorINS_5BlockIKNS_5ArrayIiLin1ELin1ELi0ELin1ELin1EEELin1ELi1ELb1EEENS3_IiLin1ELi1ELi0ELin1ELi1EEEEC2ERKS6_, symObjAddr: 0x15490, symBinAddr: 0x1000190F4, symSize: 0xB0 }
  - { offsetInCU: 0x55FE1, offset: 0x55FE1, size: 0x8, addend: 0x0, symName: __ZNK5Eigen7MapBaseINS_5BlockIKNS_5ArrayIiLin1ELin1ELi0ELin1ELin1EEELin1ELi1ELb1EEELi0EE4dataEv, symObjAddr: 0x15540, symBinAddr: 0x1000191A4, symSize: 0x18 }
  - { offsetInCU: 0x56007, offset: 0x56007, size: 0x8, addend: 0x0, symName: __ZN5Eigen8internal17mapbase_evaluatorINS_5BlockIKNS_5ArrayIiLin1ELin1ELi0ELin1ELin1EEELin1ELi1ELb1EEENS3_IiLin1ELi1ELi0ELin1ELi1EEEED2Ev, symObjAddr: 0x15558, symBinAddr: 0x1000191BC, symSize: 0x2C }
  - { offsetInCU: 0x56034, offset: 0x56034, size: 0x8, addend: 0x0, symName: __ZN5Eigen8internal14evaluator_baseINS_5BlockIKNS_5ArrayIiLin1ELin1ELi0ELin1ELin1EEELin1ELi1ELb1EEEEC2Ev, symObjAddr: 0x15584, symBinAddr: 0x1000191E8, symSize: 0x14 }
  - { offsetInCU: 0x5605E, offset: 0x5605E, size: 0x8, addend: 0x0, symName: __ZNK5Eigen8internal15BlockImpl_denseIKNS_5ArrayIiLin1ELin1ELi0ELin1ELin1EEELin1ELi1ELb1ELb1EE11innerStrideEv, symObjAddr: 0x15598, symBinAddr: 0x1000191FC, symSize: 0x28 }
  - { offsetInCU: 0x56084, offset: 0x56084, size: 0x8, addend: 0x0, symName: __ZNK5Eigen8internal15BlockImpl_denseIKNS_5ArrayIiLin1ELin1ELi0ELin1ELin1EEELin1ELi1ELb1ELb1EE11outerStrideEv, symObjAddr: 0x155C0, symBinAddr: 0x100019224, symSize: 0x28 }
  - { offsetInCU: 0x560AA, offset: 0x560AA, size: 0x8, addend: 0x0, symName: __ZN5Eigen8internal14evaluator_baseINS_5BlockIKNS_5ArrayIiLin1ELin1ELi0ELin1ELin1EEELin1ELi1ELb1EEEED2Ev, symObjAddr: 0x155E8, symBinAddr: 0x10001924C, symSize: 0x14 }
  - { offsetInCU: 0x560D4, offset: 0x560D4, size: 0x8, addend: 0x0, symName: __ZNK5Eigen8internal17mapbase_evaluatorINS_5BlockIKNS_5ArrayIiLin1ELin1ELi0ELin1ELin1EEELin1ELi1ELb1EEENS3_IiLin1ELi1ELi0ELin1ELi1EEEE6packetILi0E17__simd128_int32_tEET0_l, symObjAddr: 0x15620, symBinAddr: 0x100019284, symSize: 0x54 }
  - { offsetInCU: 0x5613A, offset: 0x5613A, size: 0x8, addend: 0x0, symName: __ZNK5Eigen8internal17mapbase_evaluatorINS_5BlockIKNS_5ArrayIiLin1ELin1ELi0ELin1ELin1EEELin1ELi1ELb1EEENS3_IiLin1ELi1ELi0ELin1ELi1EEEE5coeffEl, symObjAddr: 0x15674, symBinAddr: 0x1000192D8, symSize: 0x48 }
  - { offsetInCU: 0x5616F, offset: 0x5616F, size: 0x8, addend: 0x0, symName: __ZN5Eigen8internal18first_aligned_implILi16ENS_5BlockIKNS_5ArrayIiLin1ELin1ELi0ELin1ELin1EEELin1ELi1ELb1EEELb0EE3runERKS6_, symObjAddr: 0x156E4, symBinAddr: 0x100019348, symSize: 0x3C }
  - { offsetInCU: 0x56193, offset: 0x56193, size: 0x8, addend: 0x0, symName: __ZN5Eigen8internal15redux_evaluatorINS_5BlockIKNS_5ArrayIiLin1ELin1ELi0ELin1ELin1EEELin1ELi1ELb1EEEED2Ev, symObjAddr: 0x15720, symBinAddr: 0x100019384, symSize: 0x2C }
  - { offsetInCU: 0x561C0, offset: 0x561C0, size: 0x8, addend: 0x0, symName: __ZN5Eigen8internal9evaluatorINS_5BlockIKNS_5ArrayIiLin1ELin1ELi0ELin1ELin1EEELin1ELi1ELb1EEEED2Ev, symObjAddr: 0x1574C, symBinAddr: 0x1000193B0, symSize: 0x2C }
  - { offsetInCU: 0x561ED, offset: 0x561ED, size: 0x8, addend: 0x0, symName: __ZN5Eigen8internal15block_evaluatorIKNS_5ArrayIiLin1ELin1ELi0ELin1ELin1EEELin1ELi1ELb1ELb1EED2Ev, symObjAddr: 0x15778, symBinAddr: 0x1000193DC, symSize: 0x2C }
  - { offsetInCU: 0x5621A, offset: 0x5621A, size: 0x8, addend: 0x0, symName: __ZN5Eigen5BlockIKNS_5ArrayIiLin1ELin1ELi0ELin1ELin1EEELin1ELi1ELb1EEC1ERS3_l, symObjAddr: 0x157A4, symBinAddr: 0x100019408, symSize: 0x3C }
  - { offsetInCU: 0x56260, offset: 0x56260, size: 0x8, addend: 0x0, symName: __ZN5Eigen5BlockIKNS_5ArrayIiLin1ELin1ELi0ELin1ELin1EEELin1ELi1ELb1EEC2ERS3_l, symObjAddr: 0x157E0, symBinAddr: 0x100019444, symSize: 0xAC }
  - { offsetInCU: 0x562A6, offset: 0x562A6, size: 0x8, addend: 0x0, symName: __ZN5Eigen9BlockImplIKNS_5ArrayIiLin1ELin1ELi0ELin1ELin1EEELin1ELi1ELb1ENS_5DenseEEC2ERS3_l, symObjAddr: 0x1588C, symBinAddr: 0x1000194F0, symSize: 0x3C }
  - { offsetInCU: 0x562EC, offset: 0x562EC, size: 0x8, addend: 0x0, symName: __ZN5Eigen8internal15BlockImpl_denseIKNS_5ArrayIiLin1ELin1ELi0ELin1ELin1EEELin1ELi1ELb1ELb1EEC2ERS4_l, symObjAddr: 0x158C8, symBinAddr: 0x10001952C, symSize: 0xAC }
  - { offsetInCU: 0x56334, offset: 0x56334, size: 0x8, addend: 0x0, symName: __ZN5Eigen7MapBaseINS_5BlockIKNS_5ArrayIiLin1ELin1ELi0ELin1ELin1EEELin1ELi1ELb1EEELi0EEC2EPKill, symObjAddr: 0x15974, symBinAddr: 0x1000195D8, symSize: 0x11C }
  - { offsetInCU: 0x56388, offset: 0x56388, size: 0x8, addend: 0x0, symName: __ZN5Eigen8internal15BlockImpl_denseIKNS_5ArrayIiLin1ELin1ELi0ELin1ELin1EEELin1ELi1ELb1ELb1EE4initEv, symObjAddr: 0x15A90, symBinAddr: 0x1000196F4, symSize: 0x34 }
  - { offsetInCU: 0x563AE, offset: 0x563AE, size: 0x8, addend: 0x0, symName: __ZN5Eigen9ArrayBaseINS_5BlockIKNS_5ArrayIiLin1ELin1ELi0ELin1ELin1EEELin1ELi1ELb1EEEEC2Ev, symObjAddr: 0x15AC4, symBinAddr: 0x100019728, symSize: 0x2C }
  - { offsetInCU: 0x563D8, offset: 0x563D8, size: 0x8, addend: 0x0, symName: __ZNK5Eigen7MapBaseINS_5BlockIKNS_5ArrayIiLin1ELin1ELi0ELin1ELin1EEELin1ELi1ELb1EEELi0EE11checkSanityIS5_EEvNS_8internal9enable_ifIXeqsr8internal6traitsIT_EE9AlignmentLi0EEPvE4typeE, symObjAddr: 0x15AF0, symBinAddr: 0x100019754, symSize: 0x14 }
  - { offsetInCU: 0x56412, offset: 0x56412, size: 0x8, addend: 0x0, symName: __ZN5Eigen9DenseBaseINS_5BlockIKNS_5ArrayIiLin1ELin1ELi0ELin1ELin1EEELin1ELi1ELb1EEEEC2Ev, symObjAddr: 0x15B04, symBinAddr: 0x100019768, symSize: 0x14 }
  - { offsetInCU: 0x5643C, offset: 0x5643C, size: 0x8, addend: 0x0, symName: __ZN5Eigen8internal9evaluatorINS_16PartialReduxExprINS_5ArrayIiLin1ELin1ELi0ELin1ELin1EEENS0_10member_sumIiiEELi0EEEED2Ev, symObjAddr: 0x15B18, symBinAddr: 0x10001977C, symSize: 0x2C }
  - { offsetInCU: 0x56468, offset: 0x56468, size: 0x8, addend: 0x0, symName: __ZNK5Eigen9DenseBaseINS_5ArrayIiLin1ELi1ELi0ELin1ELi1EEEE4evalEv, symObjAddr: 0x160B8, symBinAddr: 0x100019D1C, symSize: 0x24 }
  - { offsetInCU: 0x5648E, offset: 0x5648E, size: 0x8, addend: 0x0, symName: __ZNK5Eigen15PlainObjectBaseINS_5ArrayIiLin1ELi1ELi0ELin1ELi1EEEE5coeffEll, symObjAddr: 0x160DC, symBinAddr: 0x100019D40, symSize: 0x6C }
  - { offsetInCU: 0x564D0, offset: 0x564D0, size: 0x8, addend: 0x0, symName: __ZN5Eigen15PlainObjectBaseINS_5ArrayIiLin1ELi1ELi0ELin1ELi1EEEE4_setINS_12CwiseUnaryOpINS_8internal14scalar_cast_opIfiEEKNS1_IfLin1ELi1ELi0ELin1ELi1EEEEEEERS2_RKNS_9DenseBaseIT_EE, symObjAddr: 0x16148, symBinAddr: 0x100019DAC, symSize: 0x4C }
  - { offsetInCU: 0x5650E, offset: 0x5650E, size: 0x8, addend: 0x0, symName: __ZN5Eigen15PlainObjectBaseINS_5ArrayIiLin1ELin1ELi0ELin1ELin1EEEE4_setIS2_EERS2_RKNS_9DenseBaseIT_EE, symObjAddr: 0x1621C, symBinAddr: 0x100019E80, symSize: 0x4C }
  - { offsetInCU: 0x5654C, offset: 0x5654C, size: 0x8, addend: 0x0, symName: __ZN5Eigen8internal10AssignmentINS_5ArrayIiLin1ELin1ELi0ELin1ELin1EEES3_NS0_9assign_opIiiEENS0_11Dense2DenseEvE3runERS3_RKS3_RKS5_, symObjAddr: 0x1632C, symBinAddr: 0x100019F90, symSize: 0x40 }
  - { offsetInCU: 0x5658E, offset: 0x5658E, size: 0x8, addend: 0x0, symName: __ZN5Eigen8internal27checkTransposeAliasing_implINS_5ArrayIiLin1ELin1ELi0ELin1ELin1EEES3_Lb0EE3runERKS3_S6_, symObjAddr: 0x164A4, symBinAddr: 0x10001A108, symSize: 0x14 }
  - { offsetInCU: 0x565B9, offset: 0x565B9, size: 0x8, addend: 0x0, symName: __ZN5Eigen8internal31generic_dense_assignment_kernelINS0_9evaluatorINS_5ArrayIiLin1ELin1ELi0ELin1ELin1EEEEES5_NS0_9assign_opIiiEELi0EEC1ERS5_RKS5_RKS7_RS4_, symObjAddr: 0x165B0, symBinAddr: 0x10001A214, symSize: 0x4C }
  - { offsetInCU: 0x5661F, offset: 0x5661F, size: 0x8, addend: 0x0, symName: __ZN5Eigen8internal31generic_dense_assignment_kernelINS0_9evaluatorINS_5ArrayIiLin1ELin1ELi0ELin1ELin1EEEEES5_NS0_9assign_opIiiEELi0EEC2ERS5_RKS5_RKS7_RS4_, symObjAddr: 0x166A4, symBinAddr: 0x10001A308, symSize: 0x44 }
  - { offsetInCU: 0x56685, offset: 0x56685, size: 0x8, addend: 0x0, symName: __ZNK5Eigen8internal31generic_dense_assignment_kernelINS0_9evaluatorINS_5ArrayIiLin1ELin1ELi0ELin1ELin1EEEEES5_NS0_9assign_opIiiEELi0EE4sizeEv, symObjAddr: 0x166E8, symBinAddr: 0x10001A34C, symSize: 0x28 }
  - { offsetInCU: 0x566AB, offset: 0x566AB, size: 0x8, addend: 0x0, symName: __ZN5Eigen8internal31unaligned_dense_assignment_loopILb1EE3runINS0_31generic_dense_assignment_kernelINS0_9evaluatorINS_5ArrayIiLin1ELin1ELi0ELin1ELin1EEEEES8_NS0_9assign_opIiiEELi0EEEEEvRT_ll, symObjAddr: 0x16710, symBinAddr: 0x10001A374, symSize: 0x18 }
  - { offsetInCU: 0x566EA, offset: 0x566EA, size: 0x8, addend: 0x0, symName: __ZN5Eigen8internal31generic_dense_assignment_kernelINS0_9evaluatorINS_5ArrayIiLin1ELin1ELi0ELin1ELin1EEEEES5_NS0_9assign_opIiiEELi0EE12assignPacketILi16ELi16E17__simd128_int32_tEEvl, symObjAddr: 0x16728, symBinAddr: 0x10001A38C, symSize: 0x64 }
  - { offsetInCU: 0x5673C, offset: 0x5673C, size: 0x8, addend: 0x0, symName: __ZN5Eigen8internal31unaligned_dense_assignment_loopILb0EE3runINS0_31generic_dense_assignment_kernelINS0_9evaluatorINS_5ArrayIiLin1ELin1ELi0ELin1ELin1EEEEES8_NS0_9assign_opIiiEELi0EEEEEvRT_ll, symObjAddr: 0x1678C, symBinAddr: 0x10001A3F0, symSize: 0x68 }
  - { offsetInCU: 0x567A4, offset: 0x567A4, size: 0x8, addend: 0x0, symName: __ZNK5Eigen8internal9evaluatorINS_15PlainObjectBaseINS_5ArrayIiLin1ELin1ELi0ELin1ELin1EEEEEE6packetILi16E17__simd128_int32_tEET0_l, symObjAddr: 0x167F4, symBinAddr: 0x10001A458, symSize: 0x3C }
  - { offsetInCU: 0x56809, offset: 0x56809, size: 0x8, addend: 0x0, symName: __ZN5Eigen8internal31generic_dense_assignment_kernelINS0_9evaluatorINS_5ArrayIiLin1ELin1ELi0ELin1ELin1EEEEES5_NS0_9assign_opIiiEELi0EE11assignCoeffEl, symObjAddr: 0x16830, symBinAddr: 0x10001A494, symSize: 0x60 }
  - { offsetInCU: 0x5683E, offset: 0x5683E, size: 0x8, addend: 0x0, symName: __ZNK5Eigen8internal9evaluatorINS_15PlainObjectBaseINS_5ArrayIiLin1ELin1ELi0ELin1ELin1EEEEEE5coeffEl, symObjAddr: 0x16890, symBinAddr: 0x10001A4F4, symSize: 0x24 }
  - { offsetInCU: 0x56872, offset: 0x56872, size: 0x8, addend: 0x0, symName: __ZN5Eigen9DenseBaseINS_5ArrayIiLin1ELi1ELi0ELin1ELi1EEEE11NullaryExprINS_8internal18scalar_constant_opIiEEEEKNS_14CwiseNullaryOpIT_S2_EElRKS9_, symObjAddr: 0x168B4, symBinAddr: 0x10001A518, symSize: 0x44 }
  - { offsetInCU: 0x568B0, offset: 0x568B0, size: 0x8, addend: 0x0, symName: __ZN5Eigen14CwiseNullaryOpINS_8internal18scalar_constant_opIiEENS_5ArrayIiLin1ELi1ELi0ELin1ELi1EEEEC1EllRKS3_, symObjAddr: 0x168F8, symBinAddr: 0x10001A55C, symSize: 0x44 }
  - { offsetInCU: 0x56904, offset: 0x56904, size: 0x8, addend: 0x0, symName: __ZN5Eigen14CwiseNullaryOpINS_8internal18scalar_constant_opIiEENS_5ArrayIiLin1ELi1ELi0ELin1ELi1EEEEC2EllRKS3_, symObjAddr: 0x1693C, symBinAddr: 0x10001A5A0, symSize: 0xE8 }
  - { offsetInCU: 0x56958, offset: 0x56958, size: 0x8, addend: 0x0, symName: __ZN5Eigen9ArrayBaseINS_14CwiseNullaryOpINS_8internal18scalar_constant_opIiEENS_5ArrayIiLin1ELi1ELi0ELin1ELi1EEEEEEC2Ev, symObjAddr: 0x16A24, symBinAddr: 0x10001A688, symSize: 0x2C }
  - { offsetInCU: 0x56982, offset: 0x56982, size: 0x8, addend: 0x0, symName: __ZN5Eigen9DenseBaseINS_14CwiseNullaryOpINS_8internal18scalar_constant_opIiEENS_5ArrayIiLin1ELi1ELi0ELin1ELi1EEEEEEC2Ev, symObjAddr: 0x16A50, symBinAddr: 0x10001A6B4, symSize: 0x14 }
  - { offsetInCU: 0x569AC, offset: 0x569AC, size: 0x8, addend: 0x0, symName: __ZN5Eigen5ArrayIiLin1ELi1ELi0ELin1ELi1EEC2INS_14CwiseNullaryOpINS_8internal18scalar_constant_opIiEES1_EEEERKNS_9EigenBaseIT_EENS4_9enable_ifIXsr8internal14is_convertibleINS9_6ScalarEiEE5valueENS1_11PrivateTypeEE4typeE, symObjAddr: 0x16A64, symBinAddr: 0x10001A6C8, symSize: 0x40 }
  - { offsetInCU: 0x569F9, offset: 0x569F9, size: 0x8, addend: 0x0, symName: __ZNK5Eigen9EigenBaseINS_14CwiseNullaryOpINS_8internal18scalar_constant_opIiEENS_5ArrayIiLin1ELi1ELi0ELin1ELi1EEEEEE7derivedEv, symObjAddr: 0x16AA4, symBinAddr: 0x10001A708, symSize: 0x14 }
  - { offsetInCU: 0x56A1F, offset: 0x56A1F, size: 0x8, addend: 0x0, symName: __ZN5Eigen15PlainObjectBaseINS_5ArrayIiLin1ELi1ELi0ELin1ELi1EEEEC2INS_14CwiseNullaryOpINS_8internal18scalar_constant_opIiEES2_EEEERKNS_9DenseBaseIT_EE, symObjAddr: 0x16AB8, symBinAddr: 0x10001A71C, symSize: 0x80 }
  - { offsetInCU: 0x56A61, offset: 0x56A61, size: 0x8, addend: 0x0, symName: __ZN5Eigen15PlainObjectBaseINS_5ArrayIiLin1ELi1ELi0ELin1ELi1EEEE10resizeLikeINS_14CwiseNullaryOpINS_8internal18scalar_constant_opIiEES2_EEEEvRKNS_9EigenBaseIT_EE, symObjAddr: 0x16B38, symBinAddr: 0x10001A79C, symSize: 0x170 }
  - { offsetInCU: 0x56AF5, offset: 0x56AF5, size: 0x8, addend: 0x0, symName: __ZN5Eigen15PlainObjectBaseINS_5ArrayIiLin1ELi1ELi0ELin1ELi1EEEE12_set_noaliasINS_14CwiseNullaryOpINS_8internal18scalar_constant_opIiEES2_EEEERS2_RKNS_9DenseBaseIT_EE, symObjAddr: 0x16CA8, symBinAddr: 0x10001A90C, symSize: 0x60 }
  - { offsetInCU: 0x56B33, offset: 0x56B33, size: 0x8, addend: 0x0, symName: __ZNK5Eigen14CwiseNullaryOpINS_8internal18scalar_constant_opIiEENS_5ArrayIiLin1ELi1ELi0ELin1ELi1EEEE4rowsEv, symObjAddr: 0x16D08, symBinAddr: 0x10001A96C, symSize: 0x24 }
  - { offsetInCU: 0x56B59, offset: 0x56B59, size: 0x8, addend: 0x0, symName: __ZNK5Eigen14CwiseNullaryOpINS_8internal18scalar_constant_opIiEENS_5ArrayIiLin1ELi1ELi0ELin1ELi1EEEE4colsEv, symObjAddr: 0x16D2C, symBinAddr: 0x10001A990, symSize: 0x20 }
  - { offsetInCU: 0x56B7F, offset: 0x56B7F, size: 0x8, addend: 0x0, symName: __ZN5Eigen8internal10AssignmentINS_5ArrayIiLin1ELi1ELi0ELin1ELi1EEENS_14CwiseNullaryOpINS0_18scalar_constant_opIiEES3_EENS0_9assign_opIiiEENS0_11Dense2DenseEvE3runERS3_RKS7_RKS9_, symObjAddr: 0x16D88, symBinAddr: 0x10001A9EC, symSize: 0x40 }
  - { offsetInCU: 0x56BC1, offset: 0x56BC1, size: 0x8, addend: 0x0, symName: __ZN5Eigen15PlainObjectBaseINS_5ArrayIiLin1ELi1ELi0ELin1ELi1EEEE4dataEv, symObjAddr: 0x16F44, symBinAddr: 0x10001ABA8, symSize: 0x24 }
  - { offsetInCU: 0x56BE7, offset: 0x56BE7, size: 0x8, addend: 0x0, symName: __ZNK5Eigen14CwiseNullaryOpINS_8internal18scalar_constant_opIiEENS_5ArrayIiLin1ELi1ELi0ELin1ELi1EEEE7functorEv, symObjAddr: 0x16F68, symBinAddr: 0x10001ABCC, symSize: 0x18 }
  - { offsetInCU: 0x56C0D, offset: 0x56C0D, size: 0x8, addend: 0x0, symName: __ZN5Eigen12DenseStorageIiLin1ELin1ELi1ELi0EE4dataEv, symObjAddr: 0x16F80, symBinAddr: 0x10001ABE4, symSize: 0x18 }
  - { offsetInCU: 0x56C33, offset: 0x56C33, size: 0x8, addend: 0x0, symName: __ZNSt3__16vectorINS0_IN5Eigen5ArrayIiLin1ELin1ELi0ELin1ELin1EEENS_9allocatorIS3_EEEENS4_IS6_EEEC2Em, symObjAddr: 0x16F98, symBinAddr: 0x10001ABFC, symSize: 0xD4 }
  - { offsetInCU: 0x56C83, offset: 0x56C83, size: 0x8, addend: 0x0, symName: __ZNSt3__117__compressed_pairIPNS_6vectorIN5Eigen5ArrayIiLin1ELin1ELi0ELin1ELin1EEENS_9allocatorIS4_EEEENS5_IS7_EEEC1B8ue170006IDnNS_18__default_init_tagEEEOT_OT0_, symObjAddr: 0x1706C, symBinAddr: 0x10001ACD0, symSize: 0x3C }
  - { offsetInCU: 0x56CDB, offset: 0x56CDB, size: 0x8, addend: 0x0, symName: __ZNSt3__16vectorINS0_IN5Eigen5ArrayIiLin1ELin1ELi0ELin1ELin1EEENS_9allocatorIS3_EEEENS4_IS6_EEE16__destroy_vectorC1B8ue170006ERS8_, symObjAddr: 0x170E8, symBinAddr: 0x10001AD4C, symSize: 0x34 }
  - { offsetInCU: 0x56D14, offset: 0x56D14, size: 0x8, addend: 0x0, symName: __ZNSt3__16vectorINS0_IN5Eigen5ArrayIiLin1ELin1ELi0ELin1ELin1EEENS_9allocatorIS3_EEEENS4_IS6_EEE11__vallocateB8ue170006Em, symObjAddr: 0x1711C, symBinAddr: 0x10001AD80, symSize: 0xB4 }
  - { offsetInCU: 0x56D58, offset: 0x56D58, size: 0x8, addend: 0x0, symName: __ZNSt3__16vectorINS0_IN5Eigen5ArrayIiLin1ELin1ELi0ELin1ELin1EEENS_9allocatorIS3_EEEENS4_IS6_EEE18__construct_at_endEm, symObjAddr: 0x171D0, symBinAddr: 0x10001AE34, symSize: 0xC8 }
  - { offsetInCU: 0x56DCA, offset: 0x56DCA, size: 0x8, addend: 0x0, symName: __ZNSt3__128__exception_guard_exceptionsINS_6vectorINS1_IN5Eigen5ArrayIiLin1ELin1ELi0ELin1ELin1EEENS_9allocatorIS4_EEEENS5_IS7_EEE16__destroy_vectorEE10__completeB8ue170006Ev, symObjAddr: 0x17298, symBinAddr: 0x10001AEFC, symSize: 0x1C }
  - { offsetInCU: 0x56DF0, offset: 0x56DF0, size: 0x8, addend: 0x0, symName: __ZNSt3__128__exception_guard_exceptionsINS_6vectorINS1_IN5Eigen5ArrayIiLin1ELin1ELi0ELin1ELin1EEENS_9allocatorIS4_EEEENS5_IS7_EEE16__destroy_vectorEED1B8ue170006Ev, symObjAddr: 0x172B4, symBinAddr: 0x10001AF18, symSize: 0x2C }
  - { offsetInCU: 0x56E1A, offset: 0x56E1A, size: 0x8, addend: 0x0, symName: __ZNSt3__117__compressed_pairIPNS_6vectorIN5Eigen5ArrayIiLin1ELin1ELi0ELin1ELin1EEENS_9allocatorIS4_EEEENS5_IS7_EEEC2B8ue170006IDnNS_18__default_init_tagEEEOT_OT0_, symObjAddr: 0x172E0, symBinAddr: 0x10001AF44, symSize: 0x40 }
  - { offsetInCU: 0x56E72, offset: 0x56E72, size: 0x8, addend: 0x0, symName: __ZNSt3__122__compressed_pair_elemIPNS_6vectorIN5Eigen5ArrayIiLin1ELin1ELi0ELin1ELin1EEENS_9allocatorIS4_EEEELi0ELb0EEC2B8ue170006IDnvEEOT_, symObjAddr: 0x17320, symBinAddr: 0x10001AF84, symSize: 0x1C }
  - { offsetInCU: 0x56EB5, offset: 0x56EB5, size: 0x8, addend: 0x0, symName: __ZNSt3__122__compressed_pair_elemINS_9allocatorINS_6vectorIN5Eigen5ArrayIiLin1ELin1ELi0ELin1ELin1EEENS1_IS5_EEEEEELi1ELb1EEC2B8ue170006ENS_18__default_init_tagE, symObjAddr: 0x1733C, symBinAddr: 0x10001AFA0, symSize: 0x2C }
  - { offsetInCU: 0x56EEA, offset: 0x56EEA, size: 0x8, addend: 0x0, symName: __ZNSt3__19allocatorINS_6vectorIN5Eigen5ArrayIiLin1ELin1ELi0ELin1ELin1EEENS0_IS4_EEEEEC2B8ue170006Ev, symObjAddr: 0x17368, symBinAddr: 0x10001AFCC, symSize: 0x2C }
  - { offsetInCU: 0x56F14, offset: 0x56F14, size: 0x8, addend: 0x0, symName: __ZNSt3__116__non_trivial_ifILb1ENS_9allocatorINS_6vectorIN5Eigen5ArrayIiLin1ELin1ELi0ELin1ELin1EEENS1_IS5_EEEEEEEC2B8ue170006Ev, symObjAddr: 0x17394, symBinAddr: 0x10001AFF8, symSize: 0x14 }
  - { offsetInCU: 0x56F3E, offset: 0x56F3E, size: 0x8, addend: 0x0, symName: __ZNSt3__128__exception_guard_exceptionsINS_6vectorINS1_IN5Eigen5ArrayIiLin1ELin1ELi0ELin1ELin1EEENS_9allocatorIS4_EEEENS5_IS7_EEE16__destroy_vectorEEC1B8ue170006ESA_, symObjAddr: 0x173A8, symBinAddr: 0x10001B00C, symSize: 0x34 }
  - { offsetInCU: 0x56F76, offset: 0x56F76, size: 0x8, addend: 0x0, symName: __ZNSt3__128__exception_guard_exceptionsINS_6vectorINS1_IN5Eigen5ArrayIiLin1ELin1ELi0ELin1ELin1EEENS_9allocatorIS4_EEEENS5_IS7_EEE16__destroy_vectorEEC2B8ue170006ESA_, symObjAddr: 0x173DC, symBinAddr: 0x10001B040, symSize: 0x24 }
  - { offsetInCU: 0x56FAE, offset: 0x56FAE, size: 0x8, addend: 0x0, symName: __ZNSt3__16vectorINS0_IN5Eigen5ArrayIiLin1ELin1ELi0ELin1ELin1EEENS_9allocatorIS3_EEEENS4_IS6_EEE16__destroy_vectorC2B8ue170006ERS8_, symObjAddr: 0x17400, symBinAddr: 0x10001B064, symSize: 0x20 }
  - { offsetInCU: 0x56FE7, offset: 0x56FE7, size: 0x8, addend: 0x0, symName: __ZNKSt3__16vectorINS0_IN5Eigen5ArrayIiLin1ELin1ELi0ELin1ELin1EEENS_9allocatorIS3_EEEENS4_IS6_EEE8max_sizeEv, symObjAddr: 0x17420, symBinAddr: 0x10001B084, symSize: 0x60 }
  - { offsetInCU: 0x5700F, offset: 0x5700F, size: 0x8, addend: 0x0, symName: __ZNKSt3__16vectorINS0_IN5Eigen5ArrayIiLin1ELin1ELi0ELin1ELin1EEENS_9allocatorIS3_EEEENS4_IS6_EEE20__throw_length_errorB8ue170006Ev, symObjAddr: 0x17480, symBinAddr: 0x10001B0E4, symSize: 0x1C }
  - { offsetInCU: 0x57035, offset: 0x57035, size: 0x8, addend: 0x0, symName: __ZNSt3__16vectorINS0_IN5Eigen5ArrayIiLin1ELin1ELi0ELin1ELin1EEENS_9allocatorIS3_EEEENS4_IS6_EEE7__allocB8ue170006Ev, symObjAddr: 0x174DC, symBinAddr: 0x10001B140, symSize: 0x28 }
  - { offsetInCU: 0x5705B, offset: 0x5705B, size: 0x8, addend: 0x0, symName: __ZNSt3__16vectorINS0_IN5Eigen5ArrayIiLin1ELin1ELi0ELin1ELin1EEENS_9allocatorIS3_EEEENS4_IS6_EEE9__end_capB8ue170006Ev, symObjAddr: 0x17504, symBinAddr: 0x10001B168, symSize: 0x28 }
  - { offsetInCU: 0x57081, offset: 0x57081, size: 0x8, addend: 0x0, symName: __ZNKSt3__16vectorINS0_IN5Eigen5ArrayIiLin1ELin1ELi0ELin1ELin1EEENS_9allocatorIS3_EEEENS4_IS6_EEE14__annotate_newB8ue170006Em, symObjAddr: 0x1752C, symBinAddr: 0x10001B190, symSize: 0xC8 }
  - { offsetInCU: 0x570C0, offset: 0x570C0, size: 0x8, addend: 0x0, symName: __ZNSt3__116allocator_traitsINS_9allocatorINS_6vectorIN5Eigen5ArrayIiLin1ELin1ELi0ELin1ELin1EEENS1_IS5_EEEEEEE8max_sizeB8ue170006IS8_vEEmRKS8_, symObjAddr: 0x175F4, symBinAddr: 0x10001B258, symSize: 0x24 }
  - { offsetInCU: 0x570EF, offset: 0x570EF, size: 0x8, addend: 0x0, symName: __ZNKSt3__16vectorINS0_IN5Eigen5ArrayIiLin1ELin1ELi0ELin1ELin1EEENS_9allocatorIS3_EEEENS4_IS6_EEE7__allocB8ue170006Ev, symObjAddr: 0x17618, symBinAddr: 0x10001B27C, symSize: 0x28 }
  - { offsetInCU: 0x57115, offset: 0x57115, size: 0x8, addend: 0x0, symName: __ZNKSt3__19allocatorINS_6vectorIN5Eigen5ArrayIiLin1ELin1ELi0ELin1ELin1EEENS0_IS4_EEEEE8max_sizeB8ue170006Ev, symObjAddr: 0x17640, symBinAddr: 0x10001B2A4, symSize: 0x18 }
  - { offsetInCU: 0x5713B, offset: 0x5713B, size: 0x8, addend: 0x0, symName: __ZNKSt3__117__compressed_pairIPNS_6vectorIN5Eigen5ArrayIiLin1ELin1ELi0ELin1ELin1EEENS_9allocatorIS4_EEEENS5_IS7_EEE6secondB8ue170006Ev, symObjAddr: 0x17658, symBinAddr: 0x10001B2BC, symSize: 0x24 }
  - { offsetInCU: 0x57161, offset: 0x57161, size: 0x8, addend: 0x0, symName: __ZNKSt3__122__compressed_pair_elemINS_9allocatorINS_6vectorIN5Eigen5ArrayIiLin1ELin1ELi0ELin1ELin1EEENS1_IS5_EEEEEELi1ELb1EE5__getB8ue170006Ev, symObjAddr: 0x1767C, symBinAddr: 0x10001B2E0, symSize: 0x14 }
  - { offsetInCU: 0x57187, offset: 0x57187, size: 0x8, addend: 0x0, symName: __ZNSt3__19allocatorINS_6vectorIN5Eigen5ArrayIiLin1ELin1ELi0ELin1ELin1EEENS0_IS4_EEEEE8allocateB8ue170006Em, symObjAddr: 0x17690, symBinAddr: 0x10001B2F4, symSize: 0x5C }
  - { offsetInCU: 0x571BB, offset: 0x571BB, size: 0x8, addend: 0x0, symName: __ZNSt3__117__compressed_pairIPNS_6vectorIN5Eigen5ArrayIiLin1ELin1ELi0ELin1ELin1EEENS_9allocatorIS4_EEEENS5_IS7_EEE6secondB8ue170006Ev, symObjAddr: 0x176EC, symBinAddr: 0x10001B350, symSize: 0x24 }
  - { offsetInCU: 0x571E1, offset: 0x571E1, size: 0x8, addend: 0x0, symName: __ZNSt3__122__compressed_pair_elemINS_9allocatorINS_6vectorIN5Eigen5ArrayIiLin1ELin1ELi0ELin1ELin1EEENS1_IS5_EEEEEELi1ELb1EE5__getB8ue170006Ev, symObjAddr: 0x17710, symBinAddr: 0x10001B374, symSize: 0x14 }
  - { offsetInCU: 0x57207, offset: 0x57207, size: 0x8, addend: 0x0, symName: __ZNSt3__117__compressed_pairIPNS_6vectorIN5Eigen5ArrayIiLin1ELin1ELi0ELin1ELin1EEENS_9allocatorIS4_EEEENS5_IS7_EEE5firstB8ue170006Ev, symObjAddr: 0x17724, symBinAddr: 0x10001B388, symSize: 0x24 }
  - { offsetInCU: 0x5722D, offset: 0x5722D, size: 0x8, addend: 0x0, symName: __ZNSt3__122__compressed_pair_elemIPNS_6vectorIN5Eigen5ArrayIiLin1ELin1ELi0ELin1ELin1EEENS_9allocatorIS4_EEEELi0ELb0EE5__getB8ue170006Ev, symObjAddr: 0x17748, symBinAddr: 0x10001B3AC, symSize: 0x14 }
  - { offsetInCU: 0x57253, offset: 0x57253, size: 0x8, addend: 0x0, symName: __ZNKSt3__16vectorINS0_IN5Eigen5ArrayIiLin1ELin1ELi0ELin1ELin1EEENS_9allocatorIS3_EEEENS4_IS6_EEE31__annotate_contiguous_containerB8ue170006EPKvSA_SA_SA_, symObjAddr: 0x1775C, symBinAddr: 0x10001B3C0, symSize: 0x20 }
  - { offsetInCU: 0x572A5, offset: 0x572A5, size: 0x8, addend: 0x0, symName: __ZNKSt3__16vectorINS0_IN5Eigen5ArrayIiLin1ELin1ELi0ELin1ELin1EEENS_9allocatorIS3_EEEENS4_IS6_EEE4dataB8ue170006Ev, symObjAddr: 0x1777C, symBinAddr: 0x10001B3E0, symSize: 0x28 }
  - { offsetInCU: 0x572CB, offset: 0x572CB, size: 0x8, addend: 0x0, symName: __ZNKSt3__16vectorINS0_IN5Eigen5ArrayIiLin1ELin1ELi0ELin1ELin1EEENS_9allocatorIS3_EEEENS4_IS6_EEE8capacityB8ue170006Ev, symObjAddr: 0x177A4, symBinAddr: 0x10001B408, symSize: 0x40 }
  - { offsetInCU: 0x572F1, offset: 0x572F1, size: 0x8, addend: 0x0, symName: __ZNKSt3__16vectorINS0_IN5Eigen5ArrayIiLin1ELin1ELi0ELin1ELin1EEENS_9allocatorIS3_EEEENS4_IS6_EEE9__end_capB8ue170006Ev, symObjAddr: 0x177F8, symBinAddr: 0x10001B45C, symSize: 0x28 }
  - { offsetInCU: 0x57317, offset: 0x57317, size: 0x8, addend: 0x0, symName: __ZNKSt3__117__compressed_pairIPNS_6vectorIN5Eigen5ArrayIiLin1ELin1ELi0ELin1ELin1EEENS_9allocatorIS4_EEEENS5_IS7_EEE5firstB8ue170006Ev, symObjAddr: 0x17820, symBinAddr: 0x10001B484, symSize: 0x24 }
  - { offsetInCU: 0x5733D, offset: 0x5733D, size: 0x8, addend: 0x0, symName: __ZNKSt3__122__compressed_pair_elemIPNS_6vectorIN5Eigen5ArrayIiLin1ELin1ELi0ELin1ELin1EEENS_9allocatorIS4_EEEELi0ELb0EE5__getB8ue170006Ev, symObjAddr: 0x17844, symBinAddr: 0x10001B4A8, symSize: 0x14 }
  - { offsetInCU: 0x5737C, offset: 0x5737C, size: 0x8, addend: 0x0, symName: __ZNSt3__16vectorINS0_IN5Eigen5ArrayIiLin1ELin1ELi0ELin1ELin1EEENS_9allocatorIS3_EEEENS4_IS6_EEE21_ConstructTransactionC1B8ue170006ERS8_m, symObjAddr: 0x17858, symBinAddr: 0x10001B4BC, symSize: 0x3C }
  - { offsetInCU: 0x573C4, offset: 0x573C4, size: 0x8, addend: 0x0, symName: __ZNSt3__116allocator_traitsINS_9allocatorINS_6vectorIN5Eigen5ArrayIiLin1ELin1ELi0ELin1ELin1EEENS1_IS5_EEEEEEE9constructB8ue170006IS7_JEvEEvRS8_PT_DpOT0_, symObjAddr: 0x17894, symBinAddr: 0x10001B4F8, symSize: 0x2C }
  - { offsetInCU: 0x57408, offset: 0x57408, size: 0x8, addend: 0x0, symName: __ZNSt3__16vectorINS0_IN5Eigen5ArrayIiLin1ELin1ELi0ELin1ELin1EEENS_9allocatorIS3_EEEENS4_IS6_EEE21_ConstructTransactionD1B8ue170006Ev, symObjAddr: 0x178C0, symBinAddr: 0x10001B524, symSize: 0x2C }
  - { offsetInCU: 0x57432, offset: 0x57432, size: 0x8, addend: 0x0, symName: __ZNSt3__16vectorINS0_IN5Eigen5ArrayIiLin1ELin1ELi0ELin1ELin1EEENS_9allocatorIS3_EEEENS4_IS6_EEE21_ConstructTransactionC2B8ue170006ERS8_m, symObjAddr: 0x178EC, symBinAddr: 0x10001B550, symSize: 0x4C }
  - { offsetInCU: 0x5747A, offset: 0x5747A, size: 0x8, addend: 0x0, symName: __ZNSt3__19allocatorINS_6vectorIN5Eigen5ArrayIiLin1ELin1ELi0ELin1ELin1EEENS0_IS4_EEEEE9constructB8ue170006IS6_JEEEvPT_DpOT0_, symObjAddr: 0x17938, symBinAddr: 0x10001B59C, symSize: 0x28 }
  - { offsetInCU: 0x574BD, offset: 0x574BD, size: 0x8, addend: 0x0, symName: __ZNSt3__16vectorIN5Eigen5ArrayIiLin1ELin1ELi0ELin1ELin1EEENS_9allocatorIS3_EEEC1B8ue170006Ev, symObjAddr: 0x17960, symBinAddr: 0x10001B5C4, symSize: 0x2C }
  - { offsetInCU: 0x574E7, offset: 0x574E7, size: 0x8, addend: 0x0, symName: __ZNSt3__16vectorIN5Eigen5ArrayIiLin1ELin1ELi0ELin1ELin1EEENS_9allocatorIS3_EEEC2B8ue170006Ev, symObjAddr: 0x1798C, symBinAddr: 0x10001B5F0, symSize: 0x4C }
  - { offsetInCU: 0x57511, offset: 0x57511, size: 0x8, addend: 0x0, symName: __ZNSt3__117__compressed_pairIPN5Eigen5ArrayIiLin1ELin1ELi0ELin1ELin1EEENS_9allocatorIS3_EEEC1B8ue170006IDnNS_18__default_init_tagEEEOT_OT0_, symObjAddr: 0x179D8, symBinAddr: 0x10001B63C, symSize: 0x3C }
  - { offsetInCU: 0x57569, offset: 0x57569, size: 0x8, addend: 0x0, symName: __ZNSt3__117__compressed_pairIPN5Eigen5ArrayIiLin1ELin1ELi0ELin1ELin1EEENS_9allocatorIS3_EEEC2B8ue170006IDnNS_18__default_init_tagEEEOT_OT0_, symObjAddr: 0x17A14, symBinAddr: 0x10001B678, symSize: 0x40 }
  - { offsetInCU: 0x575C1, offset: 0x575C1, size: 0x8, addend: 0x0, symName: __ZNSt3__122__compressed_pair_elemINS_9allocatorIN5Eigen5ArrayIiLin1ELin1ELi0ELin1ELin1EEEEELi1ELb1EEC2B8ue170006ENS_18__default_init_tagE, symObjAddr: 0x17A54, symBinAddr: 0x10001B6B8, symSize: 0x2C }
  - { offsetInCU: 0x575F6, offset: 0x575F6, size: 0x8, addend: 0x0, symName: __ZNSt3__19allocatorIN5Eigen5ArrayIiLin1ELin1ELi0ELin1ELin1EEEEC2B8ue170006Ev, symObjAddr: 0x17A80, symBinAddr: 0x10001B6E4, symSize: 0x2C }
  - { offsetInCU: 0x57620, offset: 0x57620, size: 0x8, addend: 0x0, symName: __ZNSt3__116__non_trivial_ifILb1ENS_9allocatorIN5Eigen5ArrayIiLin1ELin1ELi0ELin1ELin1EEEEEEC2B8ue170006Ev, symObjAddr: 0x17AAC, symBinAddr: 0x10001B710, symSize: 0x14 }
  - { offsetInCU: 0x5764A, offset: 0x5764A, size: 0x8, addend: 0x0, symName: __ZNSt3__16vectorINS0_IN5Eigen5ArrayIiLin1ELin1ELi0ELin1ELin1EEENS_9allocatorIS3_EEEENS4_IS6_EEE21_ConstructTransactionD2B8ue170006Ev, symObjAddr: 0x17AC0, symBinAddr: 0x10001B724, symSize: 0x20 }
  - { offsetInCU: 0x57674, offset: 0x57674, size: 0x8, addend: 0x0, symName: __ZNSt3__128__exception_guard_exceptionsINS_6vectorINS1_IN5Eigen5ArrayIiLin1ELin1ELi0ELin1ELin1EEENS_9allocatorIS4_EEEENS5_IS7_EEE16__destroy_vectorEED2B8ue170006Ev, symObjAddr: 0x17AE0, symBinAddr: 0x10001B744, symSize: 0x50 }
  - { offsetInCU: 0x5769E, offset: 0x5769E, size: 0x8, addend: 0x0, symName: __ZNSt3__16vectorINS0_IN5Eigen5ArrayIiLin1ELin1ELi0ELin1ELin1EEENS_9allocatorIS3_EEEENS4_IS6_EEE16__destroy_vectorclB8ue170006Ev, symObjAddr: 0x17B30, symBinAddr: 0x10001B794, symSize: 0x90 }
  - { offsetInCU: 0x576C4, offset: 0x576C4, size: 0x8, addend: 0x0, symName: __ZNSt3__16vectorINS0_IN5Eigen5ArrayIiLin1ELin1ELi0ELin1ELin1EEENS_9allocatorIS3_EEEENS4_IS6_EEE7__clearB8ue170006Ev, symObjAddr: 0x17BC0, symBinAddr: 0x10001B824, symSize: 0x28 }
  - { offsetInCU: 0x576EA, offset: 0x576EA, size: 0x8, addend: 0x0, symName: __ZNKSt3__16vectorINS0_IN5Eigen5ArrayIiLin1ELin1ELi0ELin1ELin1EEENS_9allocatorIS3_EEEENS4_IS6_EEE17__annotate_deleteB8ue170006Ev, symObjAddr: 0x17BE8, symBinAddr: 0x10001B84C, symSize: 0xD4 }
  - { offsetInCU: 0x57710, offset: 0x57710, size: 0x8, addend: 0x0, symName: __ZNSt3__116allocator_traitsINS_9allocatorINS_6vectorIN5Eigen5ArrayIiLin1ELin1ELi0ELin1ELin1EEENS1_IS5_EEEEEEE10deallocateB8ue170006ERS8_PS7_m, symObjAddr: 0x17CBC, symBinAddr: 0x10001B920, symSize: 0x34 }
  - { offsetInCU: 0x57752, offset: 0x57752, size: 0x8, addend: 0x0, symName: __ZNSt3__16vectorINS0_IN5Eigen5ArrayIiLin1ELin1ELi0ELin1ELin1EEENS_9allocatorIS3_EEEENS4_IS6_EEE22__base_destruct_at_endB8ue170006EPS6_, symObjAddr: 0x17CF0, symBinAddr: 0x10001B954, symSize: 0x8C }
  - { offsetInCU: 0x57796, offset: 0x57796, size: 0x8, addend: 0x0, symName: __ZNSt3__116allocator_traitsINS_9allocatorINS_6vectorIN5Eigen5ArrayIiLin1ELin1ELi0ELin1ELin1EEENS1_IS5_EEEEEEE7destroyB8ue170006IS7_vEEvRS8_PT_, symObjAddr: 0x17D7C, symBinAddr: 0x10001B9E0, symSize: 0x2C }
  - { offsetInCU: 0x577D4, offset: 0x577D4, size: 0x8, addend: 0x0, symName: __ZNSt3__19allocatorINS_6vectorIN5Eigen5ArrayIiLin1ELin1ELi0ELin1ELin1EEENS0_IS4_EEEEE7destroyB8ue170006EPS6_, symObjAddr: 0x17DA8, symBinAddr: 0x10001BA0C, symSize: 0x28 }
  - { offsetInCU: 0x57808, offset: 0x57808, size: 0x8, addend: 0x0, symName: __ZNSt3__16vectorIN5Eigen5ArrayIiLin1ELin1ELi0ELin1ELin1EEENS_9allocatorIS3_EEED1B8ue170006Ev, symObjAddr: 0x17DD0, symBinAddr: 0x10001BA34, symSize: 0x2C }
  - { offsetInCU: 0x57832, offset: 0x57832, size: 0x8, addend: 0x0, symName: __ZNSt3__16vectorIN5Eigen5ArrayIiLin1ELin1ELi0ELin1ELin1EEENS_9allocatorIS3_EEED2B8ue170006Ev, symObjAddr: 0x17DFC, symBinAddr: 0x10001BA60, symSize: 0x44 }
  - { offsetInCU: 0x5785C, offset: 0x5785C, size: 0x8, addend: 0x0, symName: __ZNSt3__16vectorIN5Eigen5ArrayIiLin1ELin1ELi0ELin1ELin1EEENS_9allocatorIS3_EEE16__destroy_vectorC1B8ue170006ERS6_, symObjAddr: 0x17E40, symBinAddr: 0x10001BAA4, symSize: 0x34 }
  - { offsetInCU: 0x57895, offset: 0x57895, size: 0x8, addend: 0x0, symName: __ZNSt3__16vectorIN5Eigen5ArrayIiLin1ELin1ELi0ELin1ELin1EEENS_9allocatorIS3_EEE16__destroy_vectorclB8ue170006Ev, symObjAddr: 0x17E74, symBinAddr: 0x10001BAD8, symSize: 0x90 }
  - { offsetInCU: 0x578BB, offset: 0x578BB, size: 0x8, addend: 0x0, symName: __ZNSt3__16vectorIN5Eigen5ArrayIiLin1ELin1ELi0ELin1ELin1EEENS_9allocatorIS3_EEE16__destroy_vectorC2B8ue170006ERS6_, symObjAddr: 0x17F04, symBinAddr: 0x10001BB68, symSize: 0x20 }
  - { offsetInCU: 0x578F4, offset: 0x578F4, size: 0x8, addend: 0x0, symName: __ZNSt3__16vectorIN5Eigen5ArrayIiLin1ELin1ELi0ELin1ELin1EEENS_9allocatorIS3_EEE7__clearB8ue170006Ev, symObjAddr: 0x17F24, symBinAddr: 0x10001BB88, symSize: 0x28 }
  - { offsetInCU: 0x5791A, offset: 0x5791A, size: 0x8, addend: 0x0, symName: __ZNSt3__16vectorIN5Eigen5ArrayIiLin1ELin1ELi0ELin1ELin1EEENS_9allocatorIS3_EEE22__base_destruct_at_endB8ue170006EPS3_, symObjAddr: 0x17F4C, symBinAddr: 0x10001BBB0, symSize: 0x8C }
  - { offsetInCU: 0x5795E, offset: 0x5795E, size: 0x8, addend: 0x0, symName: __ZNSt3__19allocatorINS_6vectorIN5Eigen5ArrayIiLin1ELin1ELi0ELin1ELin1EEENS0_IS4_EEEEE10deallocateB8ue170006EPS6_m, symObjAddr: 0x17FD8, symBinAddr: 0x10001BC3C, symSize: 0x44 }
  - { offsetInCU: 0x579A0, offset: 0x579A0, size: 0x8, addend: 0x0, symName: __ZNSt3__16vectorINS0_IN5Eigen5ArrayIiLin1ELin1ELi0ELin1ELin1EEENS_9allocatorIS3_EEEENS4_IS6_EEED2B8ue170006Ev, symObjAddr: 0x1801C, symBinAddr: 0x10001BC80, symSize: 0x40 }
  - { offsetInCU: 0x579CA, offset: 0x579CA, size: 0x8, addend: 0x0, symName: __ZNSt3__113basic_ostreamIcNS_11char_traitsIcEEEC2B8ue170006EPNS_15basic_streambufIcS2_EE, symObjAddr: 0x1805C, symBinAddr: 0x10001BCC0, symSize: 0x60 }
  - { offsetInCU: 0x57A0F, offset: 0x57A0F, size: 0x8, addend: 0x0, symName: __ZNK5Eigen9DenseBaseINS_5ArrayIiLin1ELin1ELi0ELin1ELin1EEEE4evalEv, symObjAddr: 0x18630, symBinAddr: 0x10001C294, symSize: 0x24 }
  - { offsetInCU: 0x57A35, offset: 0x57A35, size: 0x8, addend: 0x0, symName: __ZNK5Eigen15PlainObjectBaseINS_5ArrayIiLin1ELin1ELi0ELin1ELin1EEEE5coeffEll, symObjAddr: 0x18654, symBinAddr: 0x10001C2B8, symSize: 0x6C }
...
