---
triple:          'arm64-apple-darwin'
binary-path:     '/Users/haolong/Documents/GitHub/demos_v_matrix/tutorial/rounding'
relocations:
  - { offsetInCU: 0x44, offset: 0x44, size: 0x8, addend: 0x0, symName: __ZN5EigenL4lastE, symObjAddr: 0x803F9, symBinAddr: 0x10000C000, symSize: 0x0 }
  - { offsetInCU: 0x1385, offset: 0x1385, size: 0x8, addend: 0x0, symName: __ZN5Eigen8internal31conditional_aligned_delete_autoIfLb1EEEvPT_m, symObjAddr: 0xAF0, symBinAddr: 0x100001DA8, symSize: 0x28 }
  - { offsetInCU: 0x13D1, offset: 0x13D1, size: 0x8, addend: 0x0, symName: __ZN5Eigen8internal24conditional_aligned_freeILb1EEEvPv, symObjAddr: 0xB24, symBinAddr: 0x100001DDC, symSize: 0x24 }
  - { offsetInCU: 0x1405, offset: 0x1405, size: 0x8, addend: 0x0, symName: __ZN5Eigen8internal12aligned_freeEPv, symObjAddr: 0xB48, symBinAddr: 0x100001E00, symSize: 0x24 }
  - { offsetInCU: 0x1434, offset: 0x1434, size: 0x8, addend: 0x0, symName: __ZN5Eigen8internal31conditional_aligned_delete_autoIiLb1EEEvPT_m, symObjAddr: 0xC34, symBinAddr: 0x100001EEC, symSize: 0x28 }
  - { offsetInCU: 0x14DD, offset: 0x14DD, size: 0x8, addend: 0x0, symName: __ZN5Eigen8internal19throw_std_bad_allocEv, symObjAddr: 0x10B8, symBinAddr: 0x100002370, symSize: 0x34 }
  - { offsetInCU: 0x1519, offset: 0x1519, size: 0x8, addend: 0x0, symName: __ZN5Eigen8internal28conditional_aligned_new_autoIiLb1EEEPT_m, symObjAddr: 0x10EC, symBinAddr: 0x1000023A4, symSize: 0x84 }
  - { offsetInCU: 0x1587, offset: 0x1587, size: 0x8, addend: 0x0, symName: __ZN5Eigen8internal26conditional_aligned_mallocILb1EEEPvm, symObjAddr: 0x1170, symBinAddr: 0x100002428, symSize: 0x24 }
  - { offsetInCU: 0x15BD, offset: 0x15BD, size: 0x8, addend: 0x0, symName: __ZN5Eigen8internal14aligned_mallocEm, symObjAddr: 0x1194, symBinAddr: 0x10000244C, symSize: 0xDC }
  - { offsetInCU: 0x15FE, offset: 0x15FE, size: 0x8, addend: 0x0, symName: __ZN5Eigen8internal28check_that_malloc_is_allowedEv, symObjAddr: 0x1270, symBinAddr: 0x100002528, symSize: 0x4 }
  - { offsetInCU: 0x163A, offset: 0x163A, size: 0x8, addend: 0x0, symName: __ZN5Eigen8internal28conditional_aligned_new_autoIfLb1EEEPT_m, symObjAddr: 0x22F4, symBinAddr: 0x1000035AC, symSize: 0x84 }
  - { offsetInCU: 0x16A8, offset: 0x16A8, size: 0x8, addend: 0x0, symName: __ZN5Eigen8internal24call_assignment_no_aliasINS_5ArrayIfLin1ELin1ELi0ELin1ELin1EEENS_13CwiseBinaryOpINS0_17scalar_product_opIffEEKNS_12CwiseUnaryOpINS0_14scalar_cast_opIifEEKNS2_IiLin1ELin1ELi0ELin1ELin1EEEEEKNS_14CwiseNullaryOpINS0_18scalar_constant_opIfEEKS3_EEEENS0_9assign_opIffEEEEvRT_RKT0_RKT1_, symObjAddr: 0x2378, symBinAddr: 0x100003630, symSize: 0x3C }
  - { offsetInCU: 0x17D6, offset: 0x17D6, size: 0x8, addend: 0x0, symName: __ZN5Eigen8internal18check_for_aliasingINS_5ArrayIfLin1ELin1ELi0ELin1ELin1EEENS_13CwiseBinaryOpINS0_17scalar_product_opIffEEKNS_12CwiseUnaryOpINS0_14scalar_cast_opIifEEKNS2_IiLin1ELin1ELi0ELin1ELin1EEEEEKNS_14CwiseNullaryOpINS0_18scalar_constant_opIfEEKS3_EEEEEEvRKT_RKT0_, symObjAddr: 0x2434, symBinAddr: 0x1000036EC, symSize: 0x60 }
  - { offsetInCU: 0x1821, offset: 0x1821, size: 0x8, addend: 0x0, symName: __ZN5Eigen8internal26call_dense_assignment_loopINS_5ArrayIfLin1ELin1ELi0ELin1ELin1EEENS_13CwiseBinaryOpINS0_17scalar_product_opIffEEKNS_12CwiseUnaryOpINS0_14scalar_cast_opIifEEKNS2_IiLin1ELin1ELi0ELin1ELin1EEEEEKNS_14CwiseNullaryOpINS0_18scalar_constant_opIfEEKS3_EEEENS0_9assign_opIffEEEEvRT_RKT0_RKT1_, symObjAddr: 0x2494, symBinAddr: 0x10000374C, symSize: 0xE0 }
  - { offsetInCU: 0x2062, offset: 0x2062, size: 0x8, addend: 0x0, symName: __ZN5Eigen8internal17resize_if_allowedINS_5ArrayIfLin1ELin1ELi0ELin1ELin1EEENS_13CwiseBinaryOpINS0_17scalar_product_opIffEEKNS_12CwiseUnaryOpINS0_14scalar_cast_opIifEEKNS2_IiLin1ELin1ELi0ELin1ELin1EEEEEKNS_14CwiseNullaryOpINS0_18scalar_constant_opIfEEKS3_EEEEffEEvRT_RKT0_RKNS0_9assign_opIT1_T2_EE, symObjAddr: 0x2634, symBinAddr: 0x1000038EC, symSize: 0xF8 }
  - { offsetInCU: 0x238C, offset: 0x238C, size: 0x8, addend: 0x0, symName: __ZN5Eigen8internal4castIifEET0_RKT_, symObjAddr: 0x3720, symBinAddr: 0x1000049D8, symSize: 0x24 }
  - { offsetInCU: 0x2404, offset: 0x2404, size: 0x8, addend: 0x0, symName: __ZN5Eigen8internal12print_matrixINS_5ArrayIfLin1ELin1ELi0ELin1ELin1EEEEERNSt3__113basic_ostreamIcNS4_11char_traitsIcEEEES9_RKT_RKNS_8IOFormatE, symObjAddr: 0x4440, symBinAddr: 0x1000056F8, symSize: 0x580 }
  - { offsetInCU: 0x2627, offset: 0x2627, size: 0x8, addend: 0x0, symName: __ZN5EigenL6lastp1E, symObjAddr: 0x803FA, symBinAddr: 0x10000C001, symSize: 0x0 }
  - { offsetInCU: 0x2640, offset: 0x2640, size: 0x8, addend: 0x0, symName: __ZN5EigenL3allE, symObjAddr: 0x803FD, symBinAddr: 0x10000C004, symSize: 0x0 }
  - { offsetInCU: 0x2659, offset: 0x2659, size: 0x8, addend: 0x0, symName: __ZN5EigenL3fixILi1EEE, symObjAddr: 0x803FC, symBinAddr: 0x10000C003, symSize: 0x0 }
  - { offsetInCU: 0xC2C4, offset: 0xC2C4, size: 0x8, addend: 0x0, symName: __ZN5EigenlsINS_5ArrayIfLin1ELin1ELi0ELin1ELin1EEEEERNSt3__113basic_ostreamIcNS3_11char_traitsIcEEEES8_RKNS_9DenseBaseIT_EE, symObjAddr: 0x6BC, symBinAddr: 0x100001974, symSize: 0x208 }
  - { offsetInCU: 0xFAA1, offset: 0xFAA1, size: 0x8, addend: 0x0, symName: __ZNSt3__124__put_character_sequenceB8ue170006IcNS_11char_traitsIcEEEERNS_13basic_ostreamIT_T0_EES7_PKS4_m, symObjAddr: 0x3960, symBinAddr: 0x100004C18, symSize: 0x1EC }
  - { offsetInCU: 0x11407, offset: 0x11407, size: 0x8, addend: 0x0, symName: __ZNSt3__1lsB8ue170006INS_11char_traitsIcEEEERNS_13basic_ostreamIcT_EES6_PKc, symObjAddr: 0x8C4, symBinAddr: 0x100001B7C, symSize: 0x48 }
  - { offsetInCU: 0x1144D, offset: 0x1144D, size: 0x8, addend: 0x0, symName: __ZNSt3__14endlB8ue170006IcNS_11char_traitsIcEEEERNS_13basic_ostreamIT_T0_EES7_, symObjAddr: 0x938, symBinAddr: 0x100001BF0, symSize: 0x58 }
  - { offsetInCU: 0x1148D, offset: 0x1148D, size: 0x8, addend: 0x0, symName: __ZNSt3__116__pad_and_outputB8ue170006IcNS_11char_traitsIcEEEENS_19ostreambuf_iteratorIT_T0_EES6_PKS4_S8_S8_RNS_8ios_baseES4_, symObjAddr: 0x3B9C, symBinAddr: 0x100004E54, symSize: 0x240 }
  - { offsetInCU: 0x1155C, offset: 0x1155C, size: 0x8, addend: 0x0, symName: __ZNSt3__112__to_addressB8ue170006IKcEEPT_S3_, symObjAddr: 0x4104, symBinAddr: 0x1000053BC, symSize: 0x14 }
  - { offsetInCU: 0x115C4, offset: 0x115C4, size: 0x8, addend: 0x0, symName: __ZNSt3__19use_facetB8ue170006INS_5ctypeIcEEEERKT_RKNS_6localeE, symObjAddr: 0x4384, symBinAddr: 0x10000563C, symSize: 0x2C }
  - { offsetInCU: 0x11A91, offset: 0x11A91, size: 0x8, addend: 0x0, symName: __ZNSt3__118__constexpr_strlenB8ue170006EPKc, symObjAddr: 0x441C, symBinAddr: 0x1000056D4, symSize: 0x24 }
  - { offsetInCU: 0x11ABD, offset: 0x11ABD, size: 0x8, addend: 0x0, symName: __ZNSt3__1lsB8ue170006IcNS_11char_traitsIcEENS_9allocatorIcEEEERNS_13basic_ostreamIT_T0_EES9_RKNS_12basic_stringIS6_S7_T1_EE, symObjAddr: 0x4ACC, symBinAddr: 0x100005D84, symSize: 0x4C }
  - { offsetInCU: 0x12451, offset: 0x12451, size: 0x8, addend: 0x0, symName: __ZNSt3__13maxB8ue170006IlEERKT_S3_S3_, symObjAddr: 0x4CC8, symBinAddr: 0x100005F80, symSize: 0x2C }
  - { offsetInCU: 0x1249F, offset: 0x1249F, size: 0x8, addend: 0x0, symName: __ZNSt3__13maxB8ue170006IlNS_6__lessIvvEEEERKT_S5_S5_T0_, symObjAddr: 0x5238, symBinAddr: 0x1000064F0, symSize: 0x54 }
  - { offsetInCU: 0x15AF9, offset: 0x15AF9, size: 0x8, addend: 0x0, symName: __ZN5Eigen8symbolic10SymbolExprINS_8internal17symbolic_last_tagEEC1Ev, symObjAddr: 0x0, symBinAddr: 0x1000012B8, symSize: 0x2C }
  - { offsetInCU: 0x15B23, offset: 0x15B23, size: 0x8, addend: 0x0, symName: __ZNK5Eigen8symbolic8BaseExprINS0_10SymbolExprINS_8internal17symbolic_last_tagEEEEplILi1EEENS0_7AddExprIS5_NS0_9ValueExprINS3_8FixedIntIXT_EEEEEEESB_, symObjAddr: 0x2C, symBinAddr: 0x1000012E4, symSize: 0x48 }
  - { offsetInCU: 0x15B5E, offset: 0x15B5E, size: 0x8, addend: 0x0, symName: __ZNK5Eigen8internal8FixedIntILi1EEclEv, symObjAddr: 0x74, symBinAddr: 0x10000132C, symSize: 0x10 }
  - { offsetInCU: 0x15B84, offset: 0x15B84, size: 0x8, addend: 0x0, symName: __ZN5Eigen8internal5all_tC1Ev, symObjAddr: 0x84, symBinAddr: 0x10000133C, symSize: 0x2C }
  - { offsetInCU: 0x15BAE, offset: 0x15BAE, size: 0x8, addend: 0x0, symName: _main, symObjAddr: 0xB0, symBinAddr: 0x100001368, symSize: 0x284 }
  - { offsetInCU: 0x15BF6, offset: 0x15BF6, size: 0x8, addend: 0x0, symName: __ZN5Eigen5ArrayIiLin1ELin1ELi0ELin1ELin1EEC1IiiEERKT_RKT0_, symObjAddr: 0x334, symBinAddr: 0x1000015EC, symSize: 0x3C }
  - { offsetInCU: 0x15C4E, offset: 0x15C4E, size: 0x8, addend: 0x0, symName: __ZN5Eigen9DenseBaseINS_5ArrayIiLin1ELin1ELi0ELin1ELin1EEEElsERKi, symObjAddr: 0x370, symBinAddr: 0x100001628, symSize: 0x40 }
  - { offsetInCU: 0x15C85, offset: 0x15C85, size: 0x8, addend: 0x0, symName: __ZN5Eigen16CommaInitializerINS_5ArrayIiLin1ELin1ELi0ELin1ELin1EEEEcmERKi, symObjAddr: 0x3B0, symBinAddr: 0x100001668, symSize: 0x1B8 }
  - { offsetInCU: 0x15CB9, offset: 0x15CB9, size: 0x8, addend: 0x0, symName: __ZN5Eigen16CommaInitializerINS_5ArrayIiLin1ELin1ELi0ELin1ELin1EEEED1Ev, symObjAddr: 0x568, symBinAddr: 0x100001820, symSize: 0x2C }
  - { offsetInCU: 0x15CE3, offset: 0x15CE3, size: 0x8, addend: 0x0, symName: __ZNK5Eigen9DenseBaseINS_5ArrayIiLin1ELin1ELi0ELin1ELin1EEEE4castIfEENS3_7CastXprIT_E4TypeEv, symObjAddr: 0x594, symBinAddr: 0x10000184C, symSize: 0x4C }
  - { offsetInCU: 0x15D12, offset: 0x15D12, size: 0x8, addend: 0x0, symName: __ZNK5Eigen9ArrayBaseINS_12CwiseUnaryOpINS_8internal14scalar_cast_opIifEEKNS_5ArrayIiLin1ELin1ELi0ELin1ELin1EEEEEEmlIfEEKNS_13CwiseBinaryOpINS2_17scalar_product_opIfNS2_18promote_scalar_argIfT_Xsr5Eigen8internal14has_ReturnTypeINS_20ScalarBinaryOpTraitsIfSE_NSC_IfSE_EEEEEE5valueEE4typeEEEKS8_KNS2_19plain_constant_typeIS8_SJ_E4typeEEERKSE_, symObjAddr: 0x5E0, symBinAddr: 0x100001898, symSize: 0xA8 }
  - { offsetInCU: 0x15D54, offset: 0x15D54, size: 0x8, addend: 0x0, symName: __ZN5Eigen5ArrayIfLin1ELin1ELi0ELin1ELin1EEC1INS_13CwiseBinaryOpINS_8internal17scalar_product_opIffEEKNS_12CwiseUnaryOpINS4_14scalar_cast_opIifEEKNS0_IiLin1ELin1ELi0ELin1ELin1EEEEEKNS_14CwiseNullaryOpINS4_18scalar_constant_opIfEEKS1_EEEEEERKNS_9EigenBaseIT_EENS4_9enable_ifIXsr8internal14is_convertibleINSM_6ScalarEfEE5valueENS1_11PrivateTypeEE4typeE, symObjAddr: 0x688, symBinAddr: 0x100001940, symSize: 0x34 }
  - { offsetInCU: 0x15DA1, offset: 0x15DA1, size: 0x8, addend: 0x0, symName: __ZNSt3__113basic_ostreamIcNS_11char_traitsIcEEElsB8ue170006EPFRS3_S4_E, symObjAddr: 0x90C, symBinAddr: 0x100001BC4, symSize: 0x2C }
  - { offsetInCU: 0x15DD5, offset: 0x15DD5, size: 0x8, addend: 0x0, symName: __ZN5Eigen5ArrayIfLin1ELin1ELi0ELin1ELin1EED1Ev, symObjAddr: 0x990, symBinAddr: 0x100001C48, symSize: 0x2C }
  - { offsetInCU: 0x15E01, offset: 0x15E01, size: 0x8, addend: 0x0, symName: __ZN5Eigen5ArrayIiLin1ELin1ELi0ELin1ELin1EED1Ev, symObjAddr: 0x9BC, symBinAddr: 0x100001C74, symSize: 0x2C }
  - { offsetInCU: 0x15E2D, offset: 0x15E2D, size: 0x8, addend: 0x0, symName: __ZN5Eigen8internal8FixedIntILi1EEC1Ev, symObjAddr: 0x9E8, symBinAddr: 0x100001CA0, symSize: 0x2C }
  - { offsetInCU: 0x15E57, offset: 0x15E57, size: 0x8, addend: 0x0, symName: __ZN5Eigen8internal5all_tC2Ev, symObjAddr: 0xA14, symBinAddr: 0x100001CCC, symSize: 0x14 }
  - { offsetInCU: 0x15E81, offset: 0x15E81, size: 0x8, addend: 0x0, symName: __ZN5Eigen5ArrayIfLin1ELin1ELi0ELin1ELin1EED2Ev, symObjAddr: 0xA28, symBinAddr: 0x100001CE0, symSize: 0x2C }
  - { offsetInCU: 0x15EAD, offset: 0x15EAD, size: 0x8, addend: 0x0, symName: __ZN5Eigen15PlainObjectBaseINS_5ArrayIfLin1ELin1ELi0ELin1ELin1EEEED2Ev, symObjAddr: 0xA54, symBinAddr: 0x100001D0C, symSize: 0x2C }
  - { offsetInCU: 0x15ED9, offset: 0x15ED9, size: 0x8, addend: 0x0, symName: __ZN5Eigen12DenseStorageIfLin1ELin1ELin1ELi0EED1Ev, symObjAddr: 0xA80, symBinAddr: 0x100001D38, symSize: 0x2C }
  - { offsetInCU: 0x15F03, offset: 0x15F03, size: 0x8, addend: 0x0, symName: __ZN5Eigen12DenseStorageIfLin1ELin1ELin1ELi0EED2Ev, symObjAddr: 0xAAC, symBinAddr: 0x100001D64, symSize: 0x44 }
  - { offsetInCU: 0x15F2D, offset: 0x15F2D, size: 0x8, addend: 0x0, symName: __ZN5Eigen5ArrayIiLin1ELin1ELi0ELin1ELin1EED2Ev, symObjAddr: 0xB6C, symBinAddr: 0x100001E24, symSize: 0x2C }
  - { offsetInCU: 0x15F59, offset: 0x15F59, size: 0x8, addend: 0x0, symName: __ZN5Eigen15PlainObjectBaseINS_5ArrayIiLin1ELin1ELi0ELin1ELin1EEEED2Ev, symObjAddr: 0xB98, symBinAddr: 0x100001E50, symSize: 0x2C }
  - { offsetInCU: 0x15F85, offset: 0x15F85, size: 0x8, addend: 0x0, symName: __ZN5Eigen12DenseStorageIiLin1ELin1ELin1ELi0EED1Ev, symObjAddr: 0xBC4, symBinAddr: 0x100001E7C, symSize: 0x2C }
  - { offsetInCU: 0x15FAF, offset: 0x15FAF, size: 0x8, addend: 0x0, symName: __ZN5Eigen12DenseStorageIiLin1ELin1ELin1ELi0EED2Ev, symObjAddr: 0xBF0, symBinAddr: 0x100001EA8, symSize: 0x44 }
  - { offsetInCU: 0x15FD9, offset: 0x15FD9, size: 0x8, addend: 0x0, symName: __ZN5Eigen8symbolic10SymbolExprINS_8internal17symbolic_last_tagEEC2Ev, symObjAddr: 0xC5C, symBinAddr: 0x100001F14, symSize: 0x14 }
  - { offsetInCU: 0x16003, offset: 0x16003, size: 0x8, addend: 0x0, symName: __ZN5Eigen8internal8FixedIntILi1EEC2Ev, symObjAddr: 0xC70, symBinAddr: 0x100001F28, symSize: 0x14 }
  - { offsetInCU: 0x1602D, offset: 0x1602D, size: 0x8, addend: 0x0, symName: __ZNK5Eigen8symbolic8BaseExprINS0_10SymbolExprINS_8internal17symbolic_last_tagEEEE7derivedEv, symObjAddr: 0xC84, symBinAddr: 0x100001F3C, symSize: 0x14 }
  - { offsetInCU: 0x16053, offset: 0x16053, size: 0x8, addend: 0x0, symName: __ZN5Eigen8symbolic9ValueExprINS_8internal8FixedIntILi1EEEEC1Ev, symObjAddr: 0xC98, symBinAddr: 0x100001F50, symSize: 0x2C }
  - { offsetInCU: 0x1607D, offset: 0x1607D, size: 0x8, addend: 0x0, symName: __ZN5Eigen8symbolic7AddExprINS0_10SymbolExprINS_8internal17symbolic_last_tagEEENS0_9ValueExprINS3_8FixedIntILi1EEEEEEC1ERKS5_RKS9_, symObjAddr: 0xCC4, symBinAddr: 0x100001F7C, symSize: 0x3C }
  - { offsetInCU: 0x160C3, offset: 0x160C3, size: 0x8, addend: 0x0, symName: __ZN5Eigen8symbolic9ValueExprINS_8internal8FixedIntILi1EEEEC2Ev, symObjAddr: 0xD00, symBinAddr: 0x100001FB8, symSize: 0x14 }
  - { offsetInCU: 0x160ED, offset: 0x160ED, size: 0x8, addend: 0x0, symName: __ZN5Eigen8symbolic7AddExprINS0_10SymbolExprINS_8internal17symbolic_last_tagEEENS0_9ValueExprINS3_8FixedIntILi1EEEEEEC2ERKS5_RKS9_, symObjAddr: 0xD14, symBinAddr: 0x100001FCC, symSize: 0x1C }
  - { offsetInCU: 0x16133, offset: 0x16133, size: 0x8, addend: 0x0, symName: __ZN5Eigen5ArrayIiLin1ELin1ELi0ELin1ELin1EEC2IiiEERKT_RKT0_, symObjAddr: 0xD30, symBinAddr: 0x100001FE8, symSize: 0x80 }
  - { offsetInCU: 0x1618B, offset: 0x1618B, size: 0x8, addend: 0x0, symName: __ZN5Eigen15PlainObjectBaseINS_5ArrayIiLin1ELin1ELi0ELin1ELin1EEEEC2Ev, symObjAddr: 0xDB0, symBinAddr: 0x100002068, symSize: 0x34 }
  - { offsetInCU: 0x161B5, offset: 0x161B5, size: 0x8, addend: 0x0, symName: __ZN5Eigen15PlainObjectBaseINS_5ArrayIiLin1ELin1ELi0ELin1ELin1EEEE22_check_template_paramsEv, symObjAddr: 0xDE4, symBinAddr: 0x10000209C, symSize: 0x4 }
  - { offsetInCU: 0x161CE, offset: 0x161CE, size: 0x8, addend: 0x0, symName: __ZN5Eigen15PlainObjectBaseINS_5ArrayIiLin1ELin1ELi0ELin1ELin1EEEE6_init2IiiEEvllPNS_8internal9enable_ifILb1ET_E4typeE, symObjAddr: 0xDE8, symBinAddr: 0x1000020A0, symSize: 0x44 }
  - { offsetInCU: 0x1624D, offset: 0x1624D, size: 0x8, addend: 0x0, symName: __ZN5Eigen9ArrayBaseINS_5ArrayIiLin1ELin1ELi0ELin1ELin1EEEEC2Ev, symObjAddr: 0xE2C, symBinAddr: 0x1000020E4, symSize: 0x2C }
  - { offsetInCU: 0x16277, offset: 0x16277, size: 0x8, addend: 0x0, symName: __ZN5Eigen12DenseStorageIiLin1ELin1ELin1ELi0EEC1Ev, symObjAddr: 0xE58, symBinAddr: 0x100002110, symSize: 0x2C }
  - { offsetInCU: 0x162A1, offset: 0x162A1, size: 0x8, addend: 0x0, symName: __ZN5Eigen9DenseBaseINS_5ArrayIiLin1ELin1ELi0ELin1ELin1EEEEC2Ev, symObjAddr: 0xE84, symBinAddr: 0x10000213C, symSize: 0x14 }
  - { offsetInCU: 0x162CB, offset: 0x162CB, size: 0x8, addend: 0x0, symName: __ZN5Eigen12DenseStorageIiLin1ELin1ELin1ELi0EEC2Ev, symObjAddr: 0xE98, symBinAddr: 0x100002150, symSize: 0x20 }
  - { offsetInCU: 0x16336, offset: 0x16336, size: 0x8, addend: 0x0, symName: __ZN5Eigen15PlainObjectBaseINS_5ArrayIiLin1ELin1ELi0ELin1ELin1EEEE6resizeEll, symObjAddr: 0xEB8, symBinAddr: 0x100002170, symSize: 0x14C }
  - { offsetInCU: 0x163B2, offset: 0x163B2, size: 0x8, addend: 0x0, symName: __ZN5Eigen12DenseStorageIiLin1ELin1ELin1ELi0EE6resizeElll, symObjAddr: 0x1004, symBinAddr: 0x1000022BC, symSize: 0xB4 }
  - { offsetInCU: 0x16405, offset: 0x16405, size: 0x8, addend: 0x0, symName: __ZN5Eigen16CommaInitializerINS_5ArrayIiLin1ELin1ELi0ELin1ELin1EEEEC1ERS2_RKi, symObjAddr: 0x1274, symBinAddr: 0x10000252C, symSize: 0x3C }
  - { offsetInCU: 0x1644B, offset: 0x1644B, size: 0x8, addend: 0x0, symName: __ZN5Eigen16CommaInitializerINS_5ArrayIiLin1ELin1ELi0ELin1ELin1EEEEC2ERS2_RKi, symObjAddr: 0x12B0, symBinAddr: 0x100002568, symSize: 0xF8 }
  - { offsetInCU: 0x16491, offset: 0x16491, size: 0x8, addend: 0x0, symName: __ZNK5Eigen15PlainObjectBaseINS_5ArrayIiLin1ELin1ELi0ELin1ELin1EEEE4rowsEv, symObjAddr: 0x13A8, symBinAddr: 0x100002660, symSize: 0x24 }
  - { offsetInCU: 0x164B7, offset: 0x164B7, size: 0x8, addend: 0x0, symName: __ZNK5Eigen15PlainObjectBaseINS_5ArrayIiLin1ELin1ELi0ELin1ELin1EEEE4colsEv, symObjAddr: 0x13CC, symBinAddr: 0x100002684, symSize: 0x24 }
  - { offsetInCU: 0x164DD, offset: 0x164DD, size: 0x8, addend: 0x0, symName: __ZN5Eigen15PlainObjectBaseINS_5ArrayIiLin1ELin1ELi0ELin1ELin1EEEE8coeffRefEll, symObjAddr: 0x13F0, symBinAddr: 0x1000026A8, symSize: 0x6C }
  - { offsetInCU: 0x1651F, offset: 0x1651F, size: 0x8, addend: 0x0, symName: __ZNK5Eigen12DenseStorageIiLin1ELin1ELin1ELi0EE4rowsEv, symObjAddr: 0x145C, symBinAddr: 0x100002714, symSize: 0x18 }
  - { offsetInCU: 0x16545, offset: 0x16545, size: 0x8, addend: 0x0, symName: __ZNK5Eigen12DenseStorageIiLin1ELin1ELin1ELi0EE4colsEv, symObjAddr: 0x1474, symBinAddr: 0x10000272C, symSize: 0x18 }
  - { offsetInCU: 0x1656B, offset: 0x1656B, size: 0x8, addend: 0x0, symName: __ZN5Eigen12DenseStorageIiLin1ELin1ELin1ELi0EE4dataEv, symObjAddr: 0x148C, symBinAddr: 0x100002744, symSize: 0x18 }
  - { offsetInCU: 0x16591, offset: 0x16591, size: 0x8, addend: 0x0, symName: __ZN5Eigen16CommaInitializerINS_5ArrayIiLin1ELin1ELi0ELin1ELin1EEEED2Ev, symObjAddr: 0x14A4, symBinAddr: 0x10000275C, symSize: 0x34 }
  - { offsetInCU: 0x165BB, offset: 0x165BB, size: 0x8, addend: 0x0, symName: __ZN5Eigen16CommaInitializerINS_5ArrayIiLin1ELin1ELi0ELin1ELin1EEEE8finishedEv, symObjAddr: 0x14D8, symBinAddr: 0x100002790, symSize: 0xE8 }
  - { offsetInCU: 0x165E1, offset: 0x165E1, size: 0x8, addend: 0x0, symName: __ZNK5Eigen9EigenBaseINS_5ArrayIiLin1ELin1ELi0ELin1ELin1EEEE7derivedEv, symObjAddr: 0x15C0, symBinAddr: 0x100002878, symSize: 0x14 }
  - { offsetInCU: 0x16607, offset: 0x16607, size: 0x8, addend: 0x0, symName: __ZN5Eigen8internal14scalar_cast_opIifEC1Ev, symObjAddr: 0x15D4, symBinAddr: 0x10000288C, symSize: 0x2C }
  - { offsetInCU: 0x16631, offset: 0x16631, size: 0x8, addend: 0x0, symName: __ZN5Eigen12CwiseUnaryOpINS_8internal14scalar_cast_opIifEEKNS_5ArrayIiLin1ELin1ELi0ELin1ELin1EEEEC1ERS6_RKS3_, symObjAddr: 0x1600, symBinAddr: 0x1000028B8, symSize: 0x3C }
  - { offsetInCU: 0x16677, offset: 0x16677, size: 0x8, addend: 0x0, symName: __ZN5Eigen8internal14scalar_cast_opIifEC2Ev, symObjAddr: 0x163C, symBinAddr: 0x1000028F4, symSize: 0x14 }
  - { offsetInCU: 0x166A1, offset: 0x166A1, size: 0x8, addend: 0x0, symName: __ZN5Eigen12CwiseUnaryOpINS_8internal14scalar_cast_opIifEEKNS_5ArrayIiLin1ELin1ELi0ELin1ELin1EEEEC2ERS6_RKS3_, symObjAddr: 0x1650, symBinAddr: 0x100002908, symSize: 0x4C }
  - { offsetInCU: 0x166EC, offset: 0x166EC, size: 0x8, addend: 0x0, symName: __ZN5Eigen16CwiseUnaryOpImplINS_8internal14scalar_cast_opIifEEKNS_5ArrayIiLin1ELin1ELi0ELin1ELin1EEENS_5DenseEEC2Ev, symObjAddr: 0x169C, symBinAddr: 0x100002954, symSize: 0x2C }
  - { offsetInCU: 0x16718, offset: 0x16718, size: 0x8, addend: 0x0, symName: __ZN5Eigen8internal14scalar_cast_opIifEC1ERKS2_, symObjAddr: 0x16C8, symBinAddr: 0x100002980, symSize: 0x34 }
  - { offsetInCU: 0x1674D, offset: 0x1674D, size: 0x8, addend: 0x0, symName: __ZN5Eigen9ArrayBaseINS_12CwiseUnaryOpINS_8internal14scalar_cast_opIifEEKNS_5ArrayIiLin1ELin1ELi0ELin1ELin1EEEEEEC2Ev, symObjAddr: 0x16FC, symBinAddr: 0x1000029B4, symSize: 0x2C }
  - { offsetInCU: 0x16777, offset: 0x16777, size: 0x8, addend: 0x0, symName: __ZN5Eigen9DenseBaseINS_12CwiseUnaryOpINS_8internal14scalar_cast_opIifEEKNS_5ArrayIiLin1ELin1ELi0ELin1ELin1EEEEEEC2Ev, symObjAddr: 0x1728, symBinAddr: 0x1000029E0, symSize: 0x14 }
  - { offsetInCU: 0x167A1, offset: 0x167A1, size: 0x8, addend: 0x0, symName: __ZN5Eigen8internal14scalar_cast_opIifEC2ERKS2_, symObjAddr: 0x173C, symBinAddr: 0x1000029F4, symSize: 0x18 }
  - { offsetInCU: 0x167D6, offset: 0x167D6, size: 0x8, addend: 0x0, symName: __ZNK5Eigen9EigenBaseINS_12CwiseUnaryOpINS_8internal14scalar_cast_opIifEEKNS_5ArrayIiLin1ELin1ELi0ELin1ELin1EEEEEE7derivedEv, symObjAddr: 0x1754, symBinAddr: 0x100002A0C, symSize: 0x14 }
  - { offsetInCU: 0x167FC, offset: 0x167FC, size: 0x8, addend: 0x0, symName: __ZNK5Eigen12CwiseUnaryOpINS_8internal14scalar_cast_opIifEEKNS_5ArrayIiLin1ELin1ELi0ELin1ELin1EEEE4rowsEv, symObjAddr: 0x1768, symBinAddr: 0x100002A20, symSize: 0x28 }
  - { offsetInCU: 0x16822, offset: 0x16822, size: 0x8, addend: 0x0, symName: __ZNK5Eigen12CwiseUnaryOpINS_8internal14scalar_cast_opIifEEKNS_5ArrayIiLin1ELin1ELi0ELin1ELin1EEEE4colsEv, symObjAddr: 0x1790, symBinAddr: 0x100002A48, symSize: 0x28 }
  - { offsetInCU: 0x16848, offset: 0x16848, size: 0x8, addend: 0x0, symName: __ZN5Eigen8internal18scalar_constant_opIfEC1ERKf, symObjAddr: 0x17B8, symBinAddr: 0x100002A70, symSize: 0x34 }
  - { offsetInCU: 0x16880, offset: 0x16880, size: 0x8, addend: 0x0, symName: __ZN5Eigen14CwiseNullaryOpINS_8internal18scalar_constant_opIfEEKNS_5ArrayIfLin1ELin1ELi0ELin1ELin1EEEEC1EllRKS3_, symObjAddr: 0x17EC, symBinAddr: 0x100002AA4, symSize: 0x44 }
  - { offsetInCU: 0x168D4, offset: 0x168D4, size: 0x8, addend: 0x0, symName: __ZN5Eigen8internal17scalar_product_opIffEC1Ev, symObjAddr: 0x1830, symBinAddr: 0x100002AE8, symSize: 0x2C }
  - { offsetInCU: 0x168FE, offset: 0x168FE, size: 0x8, addend: 0x0, symName: __ZN5Eigen13CwiseBinaryOpINS_8internal17scalar_product_opIffEEKNS_12CwiseUnaryOpINS1_14scalar_cast_opIifEEKNS_5ArrayIiLin1ELin1ELi0ELin1ELin1EEEEEKNS_14CwiseNullaryOpINS1_18scalar_constant_opIfEEKNS7_IfLin1ELin1ELi0ELin1ELin1EEEEEEC1ERSB_RSI_RKS3_, symObjAddr: 0x185C, symBinAddr: 0x100002B14, symSize: 0x44 }
  - { offsetInCU: 0x16952, offset: 0x16952, size: 0x8, addend: 0x0, symName: __ZN5Eigen8internal18scalar_constant_opIfEC2ERKf, symObjAddr: 0x18A0, symBinAddr: 0x100002B58, symSize: 0x24 }
  - { offsetInCU: 0x1698A, offset: 0x1698A, size: 0x8, addend: 0x0, symName: __ZN5Eigen14CwiseNullaryOpINS_8internal18scalar_constant_opIfEEKNS_5ArrayIfLin1ELin1ELi0ELin1ELin1EEEEC2EllRKS3_, symObjAddr: 0x18C4, symBinAddr: 0x100002B7C, symSize: 0xDC }
  - { offsetInCU: 0x169DE, offset: 0x169DE, size: 0x8, addend: 0x0, symName: __ZN5Eigen9ArrayBaseINS_14CwiseNullaryOpINS_8internal18scalar_constant_opIfEEKNS_5ArrayIfLin1ELin1ELi0ELin1ELin1EEEEEEC2Ev, symObjAddr: 0x19A0, symBinAddr: 0x100002C58, symSize: 0x2C }
  - { offsetInCU: 0x16A08, offset: 0x16A08, size: 0x8, addend: 0x0, symName: __ZN5Eigen8internal19variable_if_dynamicIlLin1EEC1El, symObjAddr: 0x19CC, symBinAddr: 0x100002C84, symSize: 0x34 }
  - { offsetInCU: 0x16A40, offset: 0x16A40, size: 0x8, addend: 0x0, symName: __ZN5Eigen8internal18scalar_constant_opIfEC1ERKS2_, symObjAddr: 0x1A00, symBinAddr: 0x100002CB8, symSize: 0x34 }
  - { offsetInCU: 0x16A78, offset: 0x16A78, size: 0x8, addend: 0x0, symName: __ZN5Eigen9DenseBaseINS_14CwiseNullaryOpINS_8internal18scalar_constant_opIfEEKNS_5ArrayIfLin1ELin1ELi0ELin1ELin1EEEEEEC2Ev, symObjAddr: 0x1A34, symBinAddr: 0x100002CEC, symSize: 0x14 }
  - { offsetInCU: 0x16AA2, offset: 0x16AA2, size: 0x8, addend: 0x0, symName: __ZN5Eigen8internal19variable_if_dynamicIlLin1EEC2El, symObjAddr: 0x1A48, symBinAddr: 0x100002D00, symSize: 0x20 }
  - { offsetInCU: 0x16ADA, offset: 0x16ADA, size: 0x8, addend: 0x0, symName: __ZN5Eigen8internal18scalar_constant_opIfEC2ERKS2_, symObjAddr: 0x1A68, symBinAddr: 0x100002D20, symSize: 0x24 }
  - { offsetInCU: 0x16B12, offset: 0x16B12, size: 0x8, addend: 0x0, symName: __ZN5Eigen8internal17scalar_product_opIffEC2Ev, symObjAddr: 0x1A8C, symBinAddr: 0x100002D44, symSize: 0x14 }
  - { offsetInCU: 0x16B3C, offset: 0x16B3C, size: 0x8, addend: 0x0, symName: __ZN5Eigen13CwiseBinaryOpINS_8internal17scalar_product_opIffEEKNS_12CwiseUnaryOpINS1_14scalar_cast_opIifEEKNS_5ArrayIiLin1ELin1ELi0ELin1ELin1EEEEEKNS_14CwiseNullaryOpINS1_18scalar_constant_opIfEEKNS7_IfLin1ELin1ELi0ELin1ELin1EEEEEEC2ERSB_RSI_RKS3_, symObjAddr: 0x1AA0, symBinAddr: 0x100002D58, symSize: 0xFC }
  - { offsetInCU: 0x16B95, offset: 0x16B95, size: 0x8, addend: 0x0, symName: __ZN5Eigen17CwiseBinaryOpImplINS_8internal17scalar_product_opIffEEKNS_12CwiseUnaryOpINS1_14scalar_cast_opIifEEKNS_5ArrayIiLin1ELin1ELi0ELin1ELin1EEEEEKNS_14CwiseNullaryOpINS1_18scalar_constant_opIfEEKNS7_IfLin1ELin1ELi0ELin1ELin1EEEEENS_5DenseEEC2Ev, symObjAddr: 0x1B9C, symBinAddr: 0x100002E54, symSize: 0x2C }
  - { offsetInCU: 0x16BC1, offset: 0x16BC1, size: 0x8, addend: 0x0, symName: __ZN5Eigen12CwiseUnaryOpINS_8internal14scalar_cast_opIifEEKNS_5ArrayIiLin1ELin1ELi0ELin1ELin1EEEEC1ERKS7_, symObjAddr: 0x1BC8, symBinAddr: 0x100002E80, symSize: 0x34 }
  - { offsetInCU: 0x16BF6, offset: 0x16BF6, size: 0x8, addend: 0x0, symName: __ZN5Eigen14CwiseNullaryOpINS_8internal18scalar_constant_opIfEEKNS_5ArrayIfLin1ELin1ELi0ELin1ELin1EEEEC1ERKS7_, symObjAddr: 0x1BFC, symBinAddr: 0x100002EB4, symSize: 0x34 }
  - { offsetInCU: 0x16C2B, offset: 0x16C2B, size: 0x8, addend: 0x0, symName: __ZN5Eigen8internal17scalar_product_opIffEC1ERKS2_, symObjAddr: 0x1C30, symBinAddr: 0x100002EE8, symSize: 0x34 }
  - { offsetInCU: 0x16C60, offset: 0x16C60, size: 0x8, addend: 0x0, symName: __ZNK5Eigen14CwiseNullaryOpINS_8internal18scalar_constant_opIfEEKNS_5ArrayIfLin1ELin1ELi0ELin1ELin1EEEE4rowsEv, symObjAddr: 0x1C64, symBinAddr: 0x100002F1C, symSize: 0x24 }
  - { offsetInCU: 0x16C86, offset: 0x16C86, size: 0x8, addend: 0x0, symName: __ZNK5Eigen14CwiseNullaryOpINS_8internal18scalar_constant_opIfEEKNS_5ArrayIfLin1ELin1ELi0ELin1ELin1EEEE4colsEv, symObjAddr: 0x1C88, symBinAddr: 0x100002F40, symSize: 0x28 }
  - { offsetInCU: 0x16CAC, offset: 0x16CAC, size: 0x8, addend: 0x0, symName: __ZN5Eigen9ArrayBaseINS_13CwiseBinaryOpINS_8internal17scalar_product_opIffEEKNS_12CwiseUnaryOpINS2_14scalar_cast_opIifEEKNS_5ArrayIiLin1ELin1ELi0ELin1ELin1EEEEEKNS_14CwiseNullaryOpINS2_18scalar_constant_opIfEEKNS8_IfLin1ELin1ELi0ELin1ELin1EEEEEEEEC2Ev, symObjAddr: 0x1CB0, symBinAddr: 0x100002F68, symSize: 0x2C }
  - { offsetInCU: 0x16CD6, offset: 0x16CD6, size: 0x8, addend: 0x0, symName: __ZN5Eigen9DenseBaseINS_13CwiseBinaryOpINS_8internal17scalar_product_opIffEEKNS_12CwiseUnaryOpINS2_14scalar_cast_opIifEEKNS_5ArrayIiLin1ELin1ELi0ELin1ELin1EEEEEKNS_14CwiseNullaryOpINS2_18scalar_constant_opIfEEKNS8_IfLin1ELin1ELi0ELin1ELin1EEEEEEEEC2Ev, symObjAddr: 0x1CDC, symBinAddr: 0x100002F94, symSize: 0x14 }
  - { offsetInCU: 0x16D00, offset: 0x16D00, size: 0x8, addend: 0x0, symName: __ZN5Eigen12CwiseUnaryOpINS_8internal14scalar_cast_opIifEEKNS_5ArrayIiLin1ELin1ELi0ELin1ELin1EEEEC2ERKS7_, symObjAddr: 0x1CF0, symBinAddr: 0x100002FA8, symSize: 0x48 }
  - { offsetInCU: 0x16D35, offset: 0x16D35, size: 0x8, addend: 0x0, symName: __ZN5Eigen14CwiseNullaryOpINS_8internal18scalar_constant_opIfEEKNS_5ArrayIfLin1ELin1ELi0ELin1ELin1EEEEC2ERKS7_, symObjAddr: 0x1D38, symBinAddr: 0x100002FF0, symSize: 0x48 }
  - { offsetInCU: 0x16D6A, offset: 0x16D6A, size: 0x8, addend: 0x0, symName: __ZN5Eigen8internal17scalar_product_opIffEC2ERKS2_, symObjAddr: 0x1D80, symBinAddr: 0x100003038, symSize: 0x18 }
  - { offsetInCU: 0x16D9F, offset: 0x16D9F, size: 0x8, addend: 0x0, symName: __ZNK5Eigen8internal19variable_if_dynamicIlLin1EE5valueEv, symObjAddr: 0x1D98, symBinAddr: 0x100003050, symSize: 0x18 }
  - { offsetInCU: 0x16DC5, offset: 0x16DC5, size: 0x8, addend: 0x0, symName: __ZN5Eigen5ArrayIfLin1ELin1ELi0ELin1ELin1EEC2INS_13CwiseBinaryOpINS_8internal17scalar_product_opIffEEKNS_12CwiseUnaryOpINS4_14scalar_cast_opIifEEKNS0_IiLin1ELin1ELi0ELin1ELin1EEEEEKNS_14CwiseNullaryOpINS4_18scalar_constant_opIfEEKS1_EEEEEERKNS_9EigenBaseIT_EENS4_9enable_ifIXsr8internal14is_convertibleINSM_6ScalarEfEE5valueENS1_11PrivateTypeEE4typeE, symObjAddr: 0x1DB0, symBinAddr: 0x100003068, symSize: 0x40 }
  - { offsetInCU: 0x16E12, offset: 0x16E12, size: 0x8, addend: 0x0, symName: __ZNK5Eigen9EigenBaseINS_13CwiseBinaryOpINS_8internal17scalar_product_opIffEEKNS_12CwiseUnaryOpINS2_14scalar_cast_opIifEEKNS_5ArrayIiLin1ELin1ELi0ELin1ELin1EEEEEKNS_14CwiseNullaryOpINS2_18scalar_constant_opIfEEKNS8_IfLin1ELin1ELi0ELin1ELin1EEEEEEEE7derivedEv, symObjAddr: 0x1DF0, symBinAddr: 0x1000030A8, symSize: 0x14 }
  - { offsetInCU: 0x16E38, offset: 0x16E38, size: 0x8, addend: 0x0, symName: __ZN5Eigen15PlainObjectBaseINS_5ArrayIfLin1ELin1ELi0ELin1ELin1EEEEC2INS_13CwiseBinaryOpINS_8internal17scalar_product_opIffEEKNS_12CwiseUnaryOpINS6_14scalar_cast_opIifEEKNS1_IiLin1ELin1ELi0ELin1ELin1EEEEEKNS_14CwiseNullaryOpINS6_18scalar_constant_opIfEEKS2_EEEEEERKNS_9DenseBaseIT_EE, symObjAddr: 0x1E04, symBinAddr: 0x1000030BC, symSize: 0x84 }
  - { offsetInCU: 0x16E7A, offset: 0x16E7A, size: 0x8, addend: 0x0, symName: __ZN5Eigen9ArrayBaseINS_5ArrayIfLin1ELin1ELi0ELin1ELin1EEEEC2Ev, symObjAddr: 0x1E88, symBinAddr: 0x100003140, symSize: 0x2C }
  - { offsetInCU: 0x16EA4, offset: 0x16EA4, size: 0x8, addend: 0x0, symName: __ZN5Eigen12DenseStorageIfLin1ELin1ELin1ELi0EEC1Ev, symObjAddr: 0x1EB4, symBinAddr: 0x10000316C, symSize: 0x2C }
  - { offsetInCU: 0x16ECE, offset: 0x16ECE, size: 0x8, addend: 0x0, symName: __ZN5Eigen15PlainObjectBaseINS_5ArrayIfLin1ELin1ELi0ELin1ELin1EEEE22_check_template_paramsEv, symObjAddr: 0x1EE0, symBinAddr: 0x100003198, symSize: 0x4 }
  - { offsetInCU: 0x16EE2, offset: 0x16EE2, size: 0x8, addend: 0x0, symName: __ZN5Eigen15PlainObjectBaseINS_5ArrayIfLin1ELin1ELi0ELin1ELin1EEEE10resizeLikeINS_13CwiseBinaryOpINS_8internal17scalar_product_opIffEEKNS_12CwiseUnaryOpINS6_14scalar_cast_opIifEEKNS1_IiLin1ELin1ELi0ELin1ELin1EEEEEKNS_14CwiseNullaryOpINS6_18scalar_constant_opIfEEKS2_EEEEEEvRKNS_9EigenBaseIT_EE, symObjAddr: 0x1EE4, symBinAddr: 0x10000319C, symSize: 0x11C }
  - { offsetInCU: 0x16F76, offset: 0x16F76, size: 0x8, addend: 0x0, symName: __ZN5Eigen15PlainObjectBaseINS_5ArrayIfLin1ELin1ELi0ELin1ELin1EEEE12_set_noaliasINS_13CwiseBinaryOpINS_8internal17scalar_product_opIffEEKNS_12CwiseUnaryOpINS6_14scalar_cast_opIifEEKNS1_IiLin1ELin1ELi0ELin1ELin1EEEEEKNS_14CwiseNullaryOpINS6_18scalar_constant_opIfEEKS2_EEEEEERS2_RKNS_9DenseBaseIT_EE, symObjAddr: 0x2000, symBinAddr: 0x1000032B8, symSize: 0x60 }
  - { offsetInCU: 0x16FB4, offset: 0x16FB4, size: 0x8, addend: 0x0, symName: __ZN5Eigen9DenseBaseINS_5ArrayIfLin1ELin1ELi0ELin1ELin1EEEEC2Ev, symObjAddr: 0x2060, symBinAddr: 0x100003318, symSize: 0x14 }
  - { offsetInCU: 0x16FDE, offset: 0x16FDE, size: 0x8, addend: 0x0, symName: __ZN5Eigen12DenseStorageIfLin1ELin1ELin1ELi0EEC2Ev, symObjAddr: 0x2074, symBinAddr: 0x10000332C, symSize: 0x20 }
  - { offsetInCU: 0x17008, offset: 0x17008, size: 0x8, addend: 0x0, symName: __ZNK5Eigen13CwiseBinaryOpINS_8internal17scalar_product_opIffEEKNS_12CwiseUnaryOpINS1_14scalar_cast_opIifEEKNS_5ArrayIiLin1ELin1ELi0ELin1ELin1EEEEEKNS_14CwiseNullaryOpINS1_18scalar_constant_opIfEEKNS7_IfLin1ELin1ELi0ELin1ELin1EEEEEE4rowsEv, symObjAddr: 0x2094, symBinAddr: 0x10000334C, symSize: 0x38 }
  - { offsetInCU: 0x1702E, offset: 0x1702E, size: 0x8, addend: 0x0, symName: __ZNK5Eigen13CwiseBinaryOpINS_8internal17scalar_product_opIffEEKNS_12CwiseUnaryOpINS1_14scalar_cast_opIifEEKNS_5ArrayIiLin1ELin1ELi0ELin1ELin1EEEEEKNS_14CwiseNullaryOpINS1_18scalar_constant_opIfEEKNS7_IfLin1ELin1ELi0ELin1ELin1EEEEEE4colsEv, symObjAddr: 0x20CC, symBinAddr: 0x100003384, symSize: 0x28 }
  - { offsetInCU: 0x17054, offset: 0x17054, size: 0x8, addend: 0x0, symName: __ZN5Eigen15PlainObjectBaseINS_5ArrayIfLin1ELin1ELi0ELin1ELin1EEEE6resizeEll, symObjAddr: 0x20F4, symBinAddr: 0x1000033AC, symSize: 0x14C }
  - { offsetInCU: 0x170D0, offset: 0x170D0, size: 0x8, addend: 0x0, symName: __ZN5Eigen12DenseStorageIfLin1ELin1ELin1ELi0EE6resizeElll, symObjAddr: 0x2240, symBinAddr: 0x1000034F8, symSize: 0xB4 }
  - { offsetInCU: 0x17123, offset: 0x17123, size: 0x8, addend: 0x0, symName: __ZN5Eigen9EigenBaseINS_5ArrayIfLin1ELin1ELi0ELin1ELin1EEEE7derivedEv, symObjAddr: 0x23B4, symBinAddr: 0x10000366C, symSize: 0x14 }
  - { offsetInCU: 0x17162, offset: 0x17162, size: 0x8, addend: 0x0, symName: __ZN5Eigen8internal9assign_opIffEC1Ev, symObjAddr: 0x23C8, symBinAddr: 0x100003680, symSize: 0x2C }
  - { offsetInCU: 0x1718C, offset: 0x1718C, size: 0x8, addend: 0x0, symName: __ZN5Eigen8internal10AssignmentINS_5ArrayIfLin1ELin1ELi0ELin1ELin1EEENS_13CwiseBinaryOpINS0_17scalar_product_opIffEEKNS_12CwiseUnaryOpINS0_14scalar_cast_opIifEEKNS2_IiLin1ELin1ELi0ELin1ELin1EEEEEKNS_14CwiseNullaryOpINS0_18scalar_constant_opIfEEKS3_EEEENS0_9assign_opIffEENS0_11Dense2DenseEvE3runERS3_RKSK_RKSM_, symObjAddr: 0x23F4, symBinAddr: 0x1000036AC, symSize: 0x40 }
  - { offsetInCU: 0x171CE, offset: 0x171CE, size: 0x8, addend: 0x0, symName: __ZNK5Eigen15PlainObjectBaseINS_5ArrayIfLin1ELin1ELi0ELin1ELin1EEEE4rowsEv, symObjAddr: 0x2574, symBinAddr: 0x10000382C, symSize: 0x24 }
  - { offsetInCU: 0x171F4, offset: 0x171F4, size: 0x8, addend: 0x0, symName: __ZNK5Eigen15PlainObjectBaseINS_5ArrayIfLin1ELin1ELi0ELin1ELin1EEEE4colsEv, symObjAddr: 0x2598, symBinAddr: 0x100003850, symSize: 0x24 }
  - { offsetInCU: 0x1721A, offset: 0x1721A, size: 0x8, addend: 0x0, symName: __ZN5Eigen8internal27checkTransposeAliasing_implINS_5ArrayIfLin1ELin1ELi0ELin1ELin1EEENS_13CwiseBinaryOpINS0_17scalar_product_opIffEEKNS_12CwiseUnaryOpINS0_14scalar_cast_opIifEEKNS2_IiLin1ELin1ELi0ELin1ELin1EEEEEKNS_14CwiseNullaryOpINS0_18scalar_constant_opIfEEKS3_EEEELb0EE3runERSH_RKSK_, symObjAddr: 0x25BC, symBinAddr: 0x100003874, symSize: 0x14 }
  - { offsetInCU: 0x17245, offset: 0x17245, size: 0x8, addend: 0x0, symName: __ZNK5Eigen12DenseStorageIfLin1ELin1ELin1ELi0EE4rowsEv, symObjAddr: 0x25D0, symBinAddr: 0x100003888, symSize: 0x18 }
  - { offsetInCU: 0x1726B, offset: 0x1726B, size: 0x8, addend: 0x0, symName: __ZNK5Eigen12DenseStorageIfLin1ELin1ELin1ELi0EE4colsEv, symObjAddr: 0x25E8, symBinAddr: 0x1000038A0, symSize: 0x18 }
  - { offsetInCU: 0x17390, offset: 0x17390, size: 0x8, addend: 0x0, symName: __ZN5Eigen8internal9evaluatorINS_13CwiseBinaryOpINS0_17scalar_product_opIffEEKNS_12CwiseUnaryOpINS0_14scalar_cast_opIifEEKNS_5ArrayIiLin1ELin1ELi0ELin1ELin1EEEEEKNS_14CwiseNullaryOpINS0_18scalar_constant_opIfEEKNS8_IfLin1ELin1ELi0ELin1ELin1EEEEEEEEC1ERKSK_, symObjAddr: 0x2600, symBinAddr: 0x1000038B8, symSize: 0x34 }
  - { offsetInCU: 0x173D8, offset: 0x173D8, size: 0x8, addend: 0x0, symName: __ZN5Eigen8internal9evaluatorINS_5ArrayIfLin1ELin1ELi0ELin1ELin1EEEEC1ERKS3_, symObjAddr: 0x272C, symBinAddr: 0x1000039E4, symSize: 0x34 }
  - { offsetInCU: 0x17411, offset: 0x17411, size: 0x8, addend: 0x0, symName: __ZNK5Eigen9EigenBaseINS_5ArrayIfLin1ELin1ELi0ELin1ELin1EEEE18const_cast_derivedEv, symObjAddr: 0x2760, symBinAddr: 0x100003A18, symSize: 0x14 }
  - { offsetInCU: 0x17464, offset: 0x17464, size: 0x8, addend: 0x0, symName: __ZN5Eigen8internal31generic_dense_assignment_kernelINS0_9evaluatorINS_5ArrayIfLin1ELin1ELi0ELin1ELin1EEEEENS2_INS_13CwiseBinaryOpINS0_17scalar_product_opIffEEKNS_12CwiseUnaryOpINS0_14scalar_cast_opIifEEKNS3_IiLin1ELin1ELi0ELin1ELin1EEEEEKNS_14CwiseNullaryOpINS0_18scalar_constant_opIfEEKS4_EEEEEENS0_9assign_opIffEELi0EEC1ERS5_RKSN_RKSP_RS4_, symObjAddr: 0x2774, symBinAddr: 0x100003A2C, symSize: 0x4C }
  - { offsetInCU: 0x174CF, offset: 0x174CF, size: 0x8, addend: 0x0, symName: __ZN5Eigen8internal21dense_assignment_loopINS0_31generic_dense_assignment_kernelINS0_9evaluatorINS_5ArrayIfLin1ELin1ELi0ELin1ELin1EEEEENS3_INS_13CwiseBinaryOpINS0_17scalar_product_opIffEEKNS_12CwiseUnaryOpINS0_14scalar_cast_opIifEEKNS4_IiLin1ELin1ELi0ELin1ELin1EEEEEKNS_14CwiseNullaryOpINS0_18scalar_constant_opIfEEKS5_EEEEEENS0_9assign_opIffEELi0EEELi1ELi0EE3runERSR_, symObjAddr: 0x27C0, symBinAddr: 0x100003A78, symSize: 0x68 }
  - { offsetInCU: 0x1751F, offset: 0x1751F, size: 0x8, addend: 0x0, symName: __ZN5Eigen8internal9evaluatorINS_5ArrayIfLin1ELin1ELi0ELin1ELin1EEEED1Ev, symObjAddr: 0x2828, symBinAddr: 0x100003AE0, symSize: 0x2C }
  - { offsetInCU: 0x1754C, offset: 0x1754C, size: 0x8, addend: 0x0, symName: __ZN5Eigen8internal9evaluatorINS_13CwiseBinaryOpINS0_17scalar_product_opIffEEKNS_12CwiseUnaryOpINS0_14scalar_cast_opIifEEKNS_5ArrayIiLin1ELin1ELi0ELin1ELin1EEEEEKNS_14CwiseNullaryOpINS0_18scalar_constant_opIfEEKNS8_IfLin1ELin1ELi0ELin1ELin1EEEEEEEED1Ev, symObjAddr: 0x2854, symBinAddr: 0x100003B0C, symSize: 0x2C }
  - { offsetInCU: 0x17579, offset: 0x17579, size: 0x8, addend: 0x0, symName: __ZN5Eigen8internal9evaluatorINS_13CwiseBinaryOpINS0_17scalar_product_opIffEEKNS_12CwiseUnaryOpINS0_14scalar_cast_opIifEEKNS_5ArrayIiLin1ELin1ELi0ELin1ELin1EEEEEKNS_14CwiseNullaryOpINS0_18scalar_constant_opIfEEKNS8_IfLin1ELin1ELi0ELin1ELin1EEEEEEEEC2ERKSK_, symObjAddr: 0x2880, symBinAddr: 0x100003B38, symSize: 0x34 }
  - { offsetInCU: 0x175B2, offset: 0x175B2, size: 0x8, addend: 0x0, symName: __ZN5Eigen8internal16binary_evaluatorINS_13CwiseBinaryOpINS0_17scalar_product_opIffEEKNS_12CwiseUnaryOpINS0_14scalar_cast_opIifEEKNS_5ArrayIiLin1ELin1ELi0ELin1ELin1EEEEEKNS_14CwiseNullaryOpINS0_18scalar_constant_opIfEEKNS8_IfLin1ELin1ELi0ELin1ELin1EEEEEEENS0_10IndexBasedESL_ffEC2ERKSK_, symObjAddr: 0x28B4, symBinAddr: 0x100003B6C, symSize: 0x64 }
  - { offsetInCU: 0x175EB, offset: 0x175EB, size: 0x8, addend: 0x0, symName: __ZN5Eigen8internal14evaluator_baseINS_13CwiseBinaryOpINS0_17scalar_product_opIffEEKNS_12CwiseUnaryOpINS0_14scalar_cast_opIifEEKNS_5ArrayIiLin1ELin1ELi0ELin1ELin1EEEEEKNS_14CwiseNullaryOpINS0_18scalar_constant_opIfEEKNS8_IfLin1ELin1ELi0ELin1ELin1EEEEEEEEC2Ev, symObjAddr: 0x2918, symBinAddr: 0x100003BD0, symSize: 0x14 }
  - { offsetInCU: 0x17615, offset: 0x17615, size: 0x8, addend: 0x0, symName: __ZN5Eigen8internal16binary_evaluatorINS_13CwiseBinaryOpINS0_17scalar_product_opIffEEKNS_12CwiseUnaryOpINS0_14scalar_cast_opIifEEKNS_5ArrayIiLin1ELin1ELi0ELin1ELin1EEEEEKNS_14CwiseNullaryOpINS0_18scalar_constant_opIfEEKNS8_IfLin1ELin1ELi0ELin1ELin1EEEEEEENS0_10IndexBasedESL_ffE4DataC1ERKSK_, symObjAddr: 0x292C, symBinAddr: 0x100003BE4, symSize: 0x34 }
  - { offsetInCU: 0x1764E, offset: 0x1764E, size: 0x8, addend: 0x0, symName: __ZN5Eigen8internal14evaluator_baseINS_13CwiseBinaryOpINS0_17scalar_product_opIffEEKNS_12CwiseUnaryOpINS0_14scalar_cast_opIifEEKNS_5ArrayIiLin1ELin1ELi0ELin1ELin1EEEEEKNS_14CwiseNullaryOpINS0_18scalar_constant_opIfEEKNS8_IfLin1ELin1ELi0ELin1ELin1EEEEEEEED2Ev, symObjAddr: 0x2960, symBinAddr: 0x100003C18, symSize: 0x14 }
  - { offsetInCU: 0x17678, offset: 0x17678, size: 0x8, addend: 0x0, symName: __ZN5Eigen8internal16binary_evaluatorINS_13CwiseBinaryOpINS0_17scalar_product_opIffEEKNS_12CwiseUnaryOpINS0_14scalar_cast_opIifEEKNS_5ArrayIiLin1ELin1ELi0ELin1ELin1EEEEEKNS_14CwiseNullaryOpINS0_18scalar_constant_opIfEEKNS8_IfLin1ELin1ELi0ELin1ELin1EEEEEEENS0_10IndexBasedESL_ffE4DataC2ERKSK_, symObjAddr: 0x2974, symBinAddr: 0x100003C2C, symSize: 0xA8 }
  - { offsetInCU: 0x176B1, offset: 0x176B1, size: 0x8, addend: 0x0, symName: __ZNK5Eigen13CwiseBinaryOpINS_8internal17scalar_product_opIffEEKNS_12CwiseUnaryOpINS1_14scalar_cast_opIifEEKNS_5ArrayIiLin1ELin1ELi0ELin1ELin1EEEEEKNS_14CwiseNullaryOpINS1_18scalar_constant_opIfEEKNS7_IfLin1ELin1ELi0ELin1ELin1EEEEEE7functorEv, symObjAddr: 0x2A1C, symBinAddr: 0x100003CD4, symSize: 0x18 }
  - { offsetInCU: 0x176D7, offset: 0x176D7, size: 0x8, addend: 0x0, symName: __ZNK5Eigen13CwiseBinaryOpINS_8internal17scalar_product_opIffEEKNS_12CwiseUnaryOpINS1_14scalar_cast_opIifEEKNS_5ArrayIiLin1ELin1ELi0ELin1ELin1EEEEEKNS_14CwiseNullaryOpINS1_18scalar_constant_opIfEEKNS7_IfLin1ELin1ELi0ELin1ELin1EEEEEE3lhsEv, symObjAddr: 0x2A34, symBinAddr: 0x100003CEC, symSize: 0x18 }
  - { offsetInCU: 0x176FD, offset: 0x176FD, size: 0x8, addend: 0x0, symName: __ZN5Eigen8internal9evaluatorIKNS_12CwiseUnaryOpINS0_14scalar_cast_opIifEEKNS_5ArrayIiLin1ELin1ELi0ELin1ELin1EEEEEEC1ERS9_, symObjAddr: 0x2A4C, symBinAddr: 0x100003D04, symSize: 0x34 }
  - { offsetInCU: 0x17735, offset: 0x17735, size: 0x8, addend: 0x0, symName: __ZNK5Eigen13CwiseBinaryOpINS_8internal17scalar_product_opIffEEKNS_12CwiseUnaryOpINS1_14scalar_cast_opIifEEKNS_5ArrayIiLin1ELin1ELi0ELin1ELin1EEEEEKNS_14CwiseNullaryOpINS1_18scalar_constant_opIfEEKNS7_IfLin1ELin1ELi0ELin1ELin1EEEEEE3rhsEv, symObjAddr: 0x2A80, symBinAddr: 0x100003D38, symSize: 0x18 }
  - { offsetInCU: 0x1775B, offset: 0x1775B, size: 0x8, addend: 0x0, symName: __ZN5Eigen8internal9evaluatorIKNS_14CwiseNullaryOpINS0_18scalar_constant_opIfEEKNS_5ArrayIfLin1ELin1ELi0ELin1ELin1EEEEEEC1ERS9_, symObjAddr: 0x2A98, symBinAddr: 0x100003D50, symSize: 0x34 }
  - { offsetInCU: 0x17793, offset: 0x17793, size: 0x8, addend: 0x0, symName: __ZN5Eigen8internal9evaluatorIKNS_12CwiseUnaryOpINS0_14scalar_cast_opIifEEKNS_5ArrayIiLin1ELin1ELi0ELin1ELin1EEEEEED1Ev, symObjAddr: 0x2ACC, symBinAddr: 0x100003D84, symSize: 0x2C }
  - { offsetInCU: 0x177BF, offset: 0x177BF, size: 0x8, addend: 0x0, symName: __ZN5Eigen8internal9evaluatorIKNS_12CwiseUnaryOpINS0_14scalar_cast_opIifEEKNS_5ArrayIiLin1ELin1ELi0ELin1ELin1EEEEEEC2ERS9_, symObjAddr: 0x2AF8, symBinAddr: 0x100003DB0, symSize: 0x34 }
  - { offsetInCU: 0x177F7, offset: 0x177F7, size: 0x8, addend: 0x0, symName: __ZN5Eigen8internal9evaluatorINS_12CwiseUnaryOpINS0_14scalar_cast_opIifEEKNS_5ArrayIiLin1ELin1ELi0ELin1ELin1EEEEEEC2ERKS8_, symObjAddr: 0x2B2C, symBinAddr: 0x100003DE4, symSize: 0x34 }
  - { offsetInCU: 0x1782F, offset: 0x1782F, size: 0x8, addend: 0x0, symName: __ZN5Eigen8internal15unary_evaluatorINS_12CwiseUnaryOpINS0_14scalar_cast_opIifEEKNS_5ArrayIiLin1ELin1ELi0ELin1ELin1EEEEENS0_10IndexBasedEfEC2ERKS8_, symObjAddr: 0x2B60, symBinAddr: 0x100003E18, symSize: 0x64 }
  - { offsetInCU: 0x17868, offset: 0x17868, size: 0x8, addend: 0x0, symName: __ZN5Eigen8internal14evaluator_baseINS_12CwiseUnaryOpINS0_14scalar_cast_opIifEEKNS_5ArrayIiLin1ELin1ELi0ELin1ELin1EEEEEEC2Ev, symObjAddr: 0x2BC4, symBinAddr: 0x100003E7C, symSize: 0x14 }
  - { offsetInCU: 0x17892, offset: 0x17892, size: 0x8, addend: 0x0, symName: __ZN5Eigen8internal15unary_evaluatorINS_12CwiseUnaryOpINS0_14scalar_cast_opIifEEKNS_5ArrayIiLin1ELin1ELi0ELin1ELin1EEEEENS0_10IndexBasedEfE4DataC1ERKS8_, symObjAddr: 0x2BD8, symBinAddr: 0x100003E90, symSize: 0x34 }
  - { offsetInCU: 0x178CB, offset: 0x178CB, size: 0x8, addend: 0x0, symName: __ZN5Eigen8internal14evaluator_baseINS_12CwiseUnaryOpINS0_14scalar_cast_opIifEEKNS_5ArrayIiLin1ELin1ELi0ELin1ELin1EEEEEED2Ev, symObjAddr: 0x2C0C, symBinAddr: 0x100003EC4, symSize: 0x14 }
  - { offsetInCU: 0x178F5, offset: 0x178F5, size: 0x8, addend: 0x0, symName: __ZN5Eigen8internal15unary_evaluatorINS_12CwiseUnaryOpINS0_14scalar_cast_opIifEEKNS_5ArrayIiLin1ELin1ELi0ELin1ELin1EEEEENS0_10IndexBasedEfE4DataC2ERKS8_, symObjAddr: 0x2C20, symBinAddr: 0x100003ED8, symSize: 0x58 }
  - { offsetInCU: 0x1792E, offset: 0x1792E, size: 0x8, addend: 0x0, symName: __ZNK5Eigen12CwiseUnaryOpINS_8internal14scalar_cast_opIifEEKNS_5ArrayIiLin1ELin1ELi0ELin1ELin1EEEE7functorEv, symObjAddr: 0x2C78, symBinAddr: 0x100003F30, symSize: 0x18 }
  - { offsetInCU: 0x17954, offset: 0x17954, size: 0x8, addend: 0x0, symName: __ZNK5Eigen12CwiseUnaryOpINS_8internal14scalar_cast_opIifEEKNS_5ArrayIiLin1ELin1ELi0ELin1ELin1EEEE16nestedExpressionEv, symObjAddr: 0x2C90, symBinAddr: 0x100003F48, symSize: 0x18 }
  - { offsetInCU: 0x1797A, offset: 0x1797A, size: 0x8, addend: 0x0, symName: __ZN5Eigen8internal9evaluatorIKNS_5ArrayIiLin1ELin1ELi0ELin1ELin1EEEEC1ERS4_, symObjAddr: 0x2CA8, symBinAddr: 0x100003F60, symSize: 0x34 }
  - { offsetInCU: 0x179B2, offset: 0x179B2, size: 0x8, addend: 0x0, symName: __ZN5Eigen8internal9evaluatorIKNS_5ArrayIiLin1ELin1ELi0ELin1ELin1EEEEC2ERS4_, symObjAddr: 0x2CDC, symBinAddr: 0x100003F94, symSize: 0x34 }
  - { offsetInCU: 0x179EA, offset: 0x179EA, size: 0x8, addend: 0x0, symName: __ZN5Eigen8internal9evaluatorINS_5ArrayIiLin1ELin1ELi0ELin1ELin1EEEEC2ERKS3_, symObjAddr: 0x2D10, symBinAddr: 0x100003FC8, symSize: 0x34 }
  - { offsetInCU: 0x17A23, offset: 0x17A23, size: 0x8, addend: 0x0, symName: __ZN5Eigen8internal9evaluatorINS_15PlainObjectBaseINS_5ArrayIiLin1ELin1ELi0ELin1ELin1EEEEEEC2ERKS5_, symObjAddr: 0x2D44, symBinAddr: 0x100003FFC, symSize: 0x80 }
  - { offsetInCU: 0x17A5B, offset: 0x17A5B, size: 0x8, addend: 0x0, symName: __ZN5Eigen8internal14evaluator_baseINS_5ArrayIiLin1ELin1ELi0ELin1ELin1EEEEC2Ev, symObjAddr: 0x2DC4, symBinAddr: 0x10000407C, symSize: 0x14 }
  - { offsetInCU: 0x17A85, offset: 0x17A85, size: 0x8, addend: 0x0, symName: __ZNK5Eigen15PlainObjectBaseINS_5ArrayIiLin1ELin1ELi0ELin1ELin1EEEE4dataEv, symObjAddr: 0x2DD8, symBinAddr: 0x100004090, symSize: 0x24 }
  - { offsetInCU: 0x17AAB, offset: 0x17AAB, size: 0x8, addend: 0x0, symName: __ZNK5Eigen15DenseCoeffsBaseINS_5ArrayIiLin1ELin1ELi0ELin1ELin1EEELi3EE11outerStrideEv, symObjAddr: 0x2DFC, symBinAddr: 0x1000040B4, symSize: 0x28 }
  - { offsetInCU: 0x17AD1, offset: 0x17AD1, size: 0x8, addend: 0x0, symName: __ZN5Eigen8internal30plainobjectbase_evaluator_dataIiLin1EEC1EPKil, symObjAddr: 0x2E24, symBinAddr: 0x1000040DC, symSize: 0x3C }
  - { offsetInCU: 0x17B17, offset: 0x17B17, size: 0x8, addend: 0x0, symName: __ZN5Eigen8internal14evaluator_baseINS_5ArrayIiLin1ELin1ELi0ELin1ELin1EEEED2Ev, symObjAddr: 0x2E60, symBinAddr: 0x100004118, symSize: 0x14 }
  - { offsetInCU: 0x17B41, offset: 0x17B41, size: 0x8, addend: 0x0, symName: __ZNK5Eigen12DenseStorageIiLin1ELin1ELin1ELi0EE4dataEv, symObjAddr: 0x2E74, symBinAddr: 0x10000412C, symSize: 0x18 }
  - { offsetInCU: 0x17B67, offset: 0x17B67, size: 0x8, addend: 0x0, symName: __ZNK5Eigen5ArrayIiLin1ELin1ELi0ELin1ELin1EE11outerStrideEv, symObjAddr: 0x2E8C, symBinAddr: 0x100004144, symSize: 0x34 }
  - { offsetInCU: 0x17B8D, offset: 0x17B8D, size: 0x8, addend: 0x0, symName: __ZNK5Eigen9DenseBaseINS_5ArrayIiLin1ELin1ELi0ELin1ELin1EEEE9innerSizeEv, symObjAddr: 0x2EC0, symBinAddr: 0x100004178, symSize: 0x24 }
  - { offsetInCU: 0x17BB3, offset: 0x17BB3, size: 0x8, addend: 0x0, symName: __ZNK5Eigen9EigenBaseINS_5ArrayIiLin1ELin1ELi0ELin1ELin1EEEE4rowsEv, symObjAddr: 0x2EE4, symBinAddr: 0x10000419C, symSize: 0x28 }
  - { offsetInCU: 0x17BD9, offset: 0x17BD9, size: 0x8, addend: 0x0, symName: __ZN5Eigen8internal30plainobjectbase_evaluator_dataIiLin1EEC2EPKil, symObjAddr: 0x2F0C, symBinAddr: 0x1000041C4, symSize: 0x2C }
  - { offsetInCU: 0x17C1F, offset: 0x17C1F, size: 0x8, addend: 0x0, symName: __ZN5Eigen8internal9evaluatorIKNS_14CwiseNullaryOpINS0_18scalar_constant_opIfEEKNS_5ArrayIfLin1ELin1ELi0ELin1ELin1EEEEEEC2ERS9_, symObjAddr: 0x2F38, symBinAddr: 0x1000041F0, symSize: 0x34 }
  - { offsetInCU: 0x17C57, offset: 0x17C57, size: 0x8, addend: 0x0, symName: __ZN5Eigen8internal9evaluatorINS_14CwiseNullaryOpINS0_18scalar_constant_opIfEEKNS_5ArrayIfLin1ELin1ELi0ELin1ELin1EEEEEEC2ERKS8_, symObjAddr: 0x2F6C, symBinAddr: 0x100004224, symSize: 0x74 }
  - { offsetInCU: 0x17C90, offset: 0x17C90, size: 0x8, addend: 0x0, symName: __ZN5Eigen8internal14evaluator_baseINS_14CwiseNullaryOpINS0_18scalar_constant_opIfEEKNS_5ArrayIfLin1ELin1ELi0ELin1ELin1EEEEEEC2Ev, symObjAddr: 0x2FE0, symBinAddr: 0x100004298, symSize: 0x14 }
  - { offsetInCU: 0x17CBA, offset: 0x17CBA, size: 0x8, addend: 0x0, symName: __ZNK5Eigen14CwiseNullaryOpINS_8internal18scalar_constant_opIfEEKNS_5ArrayIfLin1ELin1ELi0ELin1ELin1EEEE7functorEv, symObjAddr: 0x2FF4, symBinAddr: 0x1000042AC, symSize: 0x18 }
  - { offsetInCU: 0x17CE0, offset: 0x17CE0, size: 0x8, addend: 0x0, symName: __ZN5Eigen8internal14evaluator_baseINS_14CwiseNullaryOpINS0_18scalar_constant_opIfEEKNS_5ArrayIfLin1ELin1ELi0ELin1ELin1EEEEEED2Ev, symObjAddr: 0x300C, symBinAddr: 0x1000042C4, symSize: 0x14 }
  - { offsetInCU: 0x17D0A, offset: 0x17D0A, size: 0x8, addend: 0x0, symName: __ZN5Eigen8internal9evaluatorIKNS_12CwiseUnaryOpINS0_14scalar_cast_opIifEEKNS_5ArrayIiLin1ELin1ELi0ELin1ELin1EEEEEED2Ev, symObjAddr: 0x3020, symBinAddr: 0x1000042D8, symSize: 0x2C }
  - { offsetInCU: 0x17D36, offset: 0x17D36, size: 0x8, addend: 0x0, symName: __ZN5Eigen8internal9evaluatorINS_12CwiseUnaryOpINS0_14scalar_cast_opIifEEKNS_5ArrayIiLin1ELin1ELi0ELin1ELin1EEEEEED2Ev, symObjAddr: 0x304C, symBinAddr: 0x100004304, symSize: 0x2C }
  - { offsetInCU: 0x17D62, offset: 0x17D62, size: 0x8, addend: 0x0, symName: __ZN5Eigen8internal15unary_evaluatorINS_12CwiseUnaryOpINS0_14scalar_cast_opIifEEKNS_5ArrayIiLin1ELin1ELi0ELin1ELin1EEEEENS0_10IndexBasedEfED2Ev, symObjAddr: 0x3078, symBinAddr: 0x100004330, symSize: 0x34 }
  - { offsetInCU: 0x17D8E, offset: 0x17D8E, size: 0x8, addend: 0x0, symName: __ZN5Eigen8internal15unary_evaluatorINS_12CwiseUnaryOpINS0_14scalar_cast_opIifEEKNS_5ArrayIiLin1ELin1ELi0ELin1ELin1EEEEENS0_10IndexBasedEfE4DataD1Ev, symObjAddr: 0x30AC, symBinAddr: 0x100004364, symSize: 0x2C }
  - { offsetInCU: 0x17DBB, offset: 0x17DBB, size: 0x8, addend: 0x0, symName: __ZN5Eigen8internal15unary_evaluatorINS_12CwiseUnaryOpINS0_14scalar_cast_opIifEEKNS_5ArrayIiLin1ELin1ELi0ELin1ELin1EEEEENS0_10IndexBasedEfE4DataD2Ev, symObjAddr: 0x30D8, symBinAddr: 0x100004390, symSize: 0x30 }
  - { offsetInCU: 0x17DE8, offset: 0x17DE8, size: 0x8, addend: 0x0, symName: __ZN5Eigen8internal9evaluatorIKNS_5ArrayIiLin1ELin1ELi0ELin1ELin1EEEED1Ev, symObjAddr: 0x3108, symBinAddr: 0x1000043C0, symSize: 0x2C }
  - { offsetInCU: 0x17E14, offset: 0x17E14, size: 0x8, addend: 0x0, symName: __ZN5Eigen8internal9evaluatorIKNS_5ArrayIiLin1ELin1ELi0ELin1ELin1EEEED2Ev, symObjAddr: 0x3134, symBinAddr: 0x1000043EC, symSize: 0x2C }
  - { offsetInCU: 0x17E40, offset: 0x17E40, size: 0x8, addend: 0x0, symName: __ZN5Eigen8internal9evaluatorINS_5ArrayIiLin1ELin1ELi0ELin1ELin1EEEED2Ev, symObjAddr: 0x3160, symBinAddr: 0x100004418, symSize: 0x2C }
  - { offsetInCU: 0x17E6D, offset: 0x17E6D, size: 0x8, addend: 0x0, symName: __ZN5Eigen8internal9evaluatorINS_15PlainObjectBaseINS_5ArrayIiLin1ELin1ELi0ELin1ELin1EEEEEED2Ev, symObjAddr: 0x318C, symBinAddr: 0x100004444, symSize: 0x2C }
  - { offsetInCU: 0x17E99, offset: 0x17E99, size: 0x8, addend: 0x0, symName: __ZN5Eigen8internal9evaluatorINS_5ArrayIfLin1ELin1ELi0ELin1ELin1EEEEC2ERKS3_, symObjAddr: 0x31B8, symBinAddr: 0x100004470, symSize: 0x34 }
  - { offsetInCU: 0x17ED2, offset: 0x17ED2, size: 0x8, addend: 0x0, symName: __ZN5Eigen8internal9evaluatorINS_15PlainObjectBaseINS_5ArrayIfLin1ELin1ELi0ELin1ELin1EEEEEEC2ERKS5_, symObjAddr: 0x31EC, symBinAddr: 0x1000044A4, symSize: 0x80 }
  - { offsetInCU: 0x17F0A, offset: 0x17F0A, size: 0x8, addend: 0x0, symName: __ZN5Eigen8internal14evaluator_baseINS_5ArrayIfLin1ELin1ELi0ELin1ELin1EEEEC2Ev, symObjAddr: 0x326C, symBinAddr: 0x100004524, symSize: 0x14 }
  - { offsetInCU: 0x17F34, offset: 0x17F34, size: 0x8, addend: 0x0, symName: __ZNK5Eigen15PlainObjectBaseINS_5ArrayIfLin1ELin1ELi0ELin1ELin1EEEE4dataEv, symObjAddr: 0x3280, symBinAddr: 0x100004538, symSize: 0x24 }
  - { offsetInCU: 0x17F5A, offset: 0x17F5A, size: 0x8, addend: 0x0, symName: __ZNK5Eigen15DenseCoeffsBaseINS_5ArrayIfLin1ELin1ELi0ELin1ELin1EEELi3EE11outerStrideEv, symObjAddr: 0x32A4, symBinAddr: 0x10000455C, symSize: 0x38 }
  - { offsetInCU: 0x17F80, offset: 0x17F80, size: 0x8, addend: 0x0, symName: __ZN5Eigen8internal30plainobjectbase_evaluator_dataIfLin1EEC1EPKfl, symObjAddr: 0x32DC, symBinAddr: 0x100004594, symSize: 0x3C }
  - { offsetInCU: 0x17FC6, offset: 0x17FC6, size: 0x8, addend: 0x0, symName: __ZN5Eigen8internal14evaluator_baseINS_5ArrayIfLin1ELin1ELi0ELin1ELin1EEEED2Ev, symObjAddr: 0x3318, symBinAddr: 0x1000045D0, symSize: 0x14 }
  - { offsetInCU: 0x17FF0, offset: 0x17FF0, size: 0x8, addend: 0x0, symName: __ZNK5Eigen12DenseStorageIfLin1ELin1ELin1ELi0EE4dataEv, symObjAddr: 0x332C, symBinAddr: 0x1000045E4, symSize: 0x18 }
  - { offsetInCU: 0x18016, offset: 0x18016, size: 0x8, addend: 0x0, symName: __ZNK5Eigen9EigenBaseINS_5ArrayIfLin1ELin1ELi0ELin1ELin1EEEE7derivedEv, symObjAddr: 0x3344, symBinAddr: 0x1000045FC, symSize: 0x14 }
  - { offsetInCU: 0x1803C, offset: 0x1803C, size: 0x8, addend: 0x0, symName: __ZNK5Eigen5ArrayIfLin1ELin1ELi0ELin1ELin1EE11outerStrideEv, symObjAddr: 0x3358, symBinAddr: 0x100004610, symSize: 0x34 }
  - { offsetInCU: 0x18062, offset: 0x18062, size: 0x8, addend: 0x0, symName: __ZNK5Eigen9DenseBaseINS_5ArrayIfLin1ELin1ELi0ELin1ELin1EEEE9innerSizeEv, symObjAddr: 0x338C, symBinAddr: 0x100004644, symSize: 0x24 }
  - { offsetInCU: 0x18088, offset: 0x18088, size: 0x8, addend: 0x0, symName: __ZNK5Eigen9EigenBaseINS_5ArrayIfLin1ELin1ELi0ELin1ELin1EEEE4rowsEv, symObjAddr: 0x33B0, symBinAddr: 0x100004668, symSize: 0x28 }
  - { offsetInCU: 0x180AE, offset: 0x180AE, size: 0x8, addend: 0x0, symName: __ZN5Eigen8internal30plainobjectbase_evaluator_dataIfLin1EEC2EPKfl, symObjAddr: 0x33D8, symBinAddr: 0x100004690, symSize: 0x2C }
  - { offsetInCU: 0x180F4, offset: 0x180F4, size: 0x8, addend: 0x0, symName: __ZN5Eigen8internal31generic_dense_assignment_kernelINS0_9evaluatorINS_5ArrayIfLin1ELin1ELi0ELin1ELin1EEEEENS2_INS_13CwiseBinaryOpINS0_17scalar_product_opIffEEKNS_12CwiseUnaryOpINS0_14scalar_cast_opIifEEKNS3_IiLin1ELin1ELi0ELin1ELin1EEEEEKNS_14CwiseNullaryOpINS0_18scalar_constant_opIfEEKS4_EEEEEENS0_9assign_opIffEELi0EEC2ERS5_RKSN_RKSP_RS4_, symObjAddr: 0x3404, symBinAddr: 0x1000046BC, symSize: 0x44 }
  - { offsetInCU: 0x1815A, offset: 0x1815A, size: 0x8, addend: 0x0, symName: __ZNK5Eigen8internal31generic_dense_assignment_kernelINS0_9evaluatorINS_5ArrayIfLin1ELin1ELi0ELin1ELin1EEEEENS2_INS_13CwiseBinaryOpINS0_17scalar_product_opIffEEKNS_12CwiseUnaryOpINS0_14scalar_cast_opIifEEKNS3_IiLin1ELin1ELi0ELin1ELin1EEEEEKNS_14CwiseNullaryOpINS0_18scalar_constant_opIfEEKS4_EEEEEENS0_9assign_opIffEELi0EE4sizeEv, symObjAddr: 0x3448, symBinAddr: 0x100004700, symSize: 0x28 }
  - { offsetInCU: 0x18180, offset: 0x18180, size: 0x8, addend: 0x0, symName: __ZN5Eigen8internal31generic_dense_assignment_kernelINS0_9evaluatorINS_5ArrayIfLin1ELin1ELi0ELin1ELin1EEEEENS2_INS_13CwiseBinaryOpINS0_17scalar_product_opIffEEKNS_12CwiseUnaryOpINS0_14scalar_cast_opIifEEKNS3_IiLin1ELin1ELi0ELin1ELin1EEEEEKNS_14CwiseNullaryOpINS0_18scalar_constant_opIfEEKS4_EEEEEENS0_9assign_opIffEELi0EE11assignCoeffEl, symObjAddr: 0x3470, symBinAddr: 0x100004728, symSize: 0x64 }
  - { offsetInCU: 0x181B5, offset: 0x181B5, size: 0x8, addend: 0x0, symName: __ZNK5Eigen9EigenBaseINS_5ArrayIfLin1ELin1ELi0ELin1ELin1EEEE4sizeEv, symObjAddr: 0x34D4, symBinAddr: 0x10000478C, symSize: 0x44 }
  - { offsetInCU: 0x181DB, offset: 0x181DB, size: 0x8, addend: 0x0, symName: __ZNK5Eigen9EigenBaseINS_5ArrayIfLin1ELin1ELi0ELin1ELin1EEEE4colsEv, symObjAddr: 0x3518, symBinAddr: 0x1000047D0, symSize: 0x28 }
  - { offsetInCU: 0x18201, offset: 0x18201, size: 0x8, addend: 0x0, symName: __ZNK5Eigen8internal9assign_opIffE11assignCoeffERfRKf, symObjAddr: 0x3540, symBinAddr: 0x1000047F8, symSize: 0x28 }
  - { offsetInCU: 0x18243, offset: 0x18243, size: 0x8, addend: 0x0, symName: __ZN5Eigen8internal9evaluatorINS_15PlainObjectBaseINS_5ArrayIfLin1ELin1ELi0ELin1ELin1EEEEEE8coeffRefEl, symObjAddr: 0x3568, symBinAddr: 0x100004820, symSize: 0x24 }
  - { offsetInCU: 0x18277, offset: 0x18277, size: 0x8, addend: 0x0, symName: __ZNK5Eigen8internal16binary_evaluatorINS_13CwiseBinaryOpINS0_17scalar_product_opIffEEKNS_12CwiseUnaryOpINS0_14scalar_cast_opIifEEKNS_5ArrayIiLin1ELin1ELi0ELin1ELin1EEEEEKNS_14CwiseNullaryOpINS0_18scalar_constant_opIfEEKNS8_IfLin1ELin1ELi0ELin1ELin1EEEEEEENS0_10IndexBasedESL_ffE5coeffEl, symObjAddr: 0x358C, symBinAddr: 0x100004844, symSize: 0x70 }
  - { offsetInCU: 0x182AC, offset: 0x182AC, size: 0x8, addend: 0x0, symName: __ZNK5Eigen8internal16binary_evaluatorINS_13CwiseBinaryOpINS0_17scalar_product_opIffEEKNS_12CwiseUnaryOpINS0_14scalar_cast_opIifEEKNS_5ArrayIiLin1ELin1ELi0ELin1ELin1EEEEEKNS_14CwiseNullaryOpINS0_18scalar_constant_opIfEEKNS8_IfLin1ELin1ELi0ELin1ELin1EEEEEEENS0_10IndexBasedESL_ffE4Data4funcEv, symObjAddr: 0x35FC, symBinAddr: 0x1000048B4, symSize: 0x14 }
  - { offsetInCU: 0x182D2, offset: 0x182D2, size: 0x8, addend: 0x0, symName: __ZNK5Eigen8internal17scalar_product_opIffEclERKfS4_, symObjAddr: 0x3610, symBinAddr: 0x1000048C8, symSize: 0x2C }
  - { offsetInCU: 0x18314, offset: 0x18314, size: 0x8, addend: 0x0, symName: __ZNK5Eigen8internal15unary_evaluatorINS_12CwiseUnaryOpINS0_14scalar_cast_opIifEEKNS_5ArrayIiLin1ELin1ELi0ELin1ELin1EEEEENS0_10IndexBasedEfE5coeffEl, symObjAddr: 0x363C, symBinAddr: 0x1000048F4, symSize: 0x4C }
  - { offsetInCU: 0x18353, offset: 0x18353, size: 0x8, addend: 0x0, symName: __ZNK5Eigen8internal9evaluatorINS_14CwiseNullaryOpINS0_18scalar_constant_opIfEEKNS_5ArrayIfLin1ELin1ELi0ELin1ELin1EEEEEE5coeffIlEEfT_, symObjAddr: 0x3688, symBinAddr: 0x100004940, symSize: 0x38 }
  - { offsetInCU: 0x18391, offset: 0x18391, size: 0x8, addend: 0x0, symName: __ZNK5Eigen8internal15unary_evaluatorINS_12CwiseUnaryOpINS0_14scalar_cast_opIifEEKNS_5ArrayIiLin1ELin1ELi0ELin1ELin1EEEEENS0_10IndexBasedEfE4Data4funcEv, symObjAddr: 0x36C0, symBinAddr: 0x100004978, symSize: 0x14 }
  - { offsetInCU: 0x183B7, offset: 0x183B7, size: 0x8, addend: 0x0, symName: __ZNK5Eigen8internal14scalar_cast_opIifEclERKi, symObjAddr: 0x36D4, symBinAddr: 0x10000498C, symSize: 0x28 }
  - { offsetInCU: 0x183EB, offset: 0x183EB, size: 0x8, addend: 0x0, symName: __ZNK5Eigen8internal9evaluatorINS_15PlainObjectBaseINS_5ArrayIiLin1ELin1ELi0ELin1ELin1EEEEEE5coeffEl, symObjAddr: 0x36FC, symBinAddr: 0x1000049B4, symSize: 0x24 }
  - { offsetInCU: 0x1841F, offset: 0x1841F, size: 0x8, addend: 0x0, symName: __ZN5Eigen8internal9cast_implIifvE3runERKi, symObjAddr: 0x3744, symBinAddr: 0x1000049FC, symSize: 0x1C }
  - { offsetInCU: 0x18448, offset: 0x18448, size: 0x8, addend: 0x0, symName: __ZNK5Eigen8internal15nullary_wrapperIfNS0_18scalar_constant_opIfEELb1ELb0ELb0EEclIlEEfRKS3_T_S8_, symObjAddr: 0x3760, symBinAddr: 0x100004A18, symSize: 0x30 }
  - { offsetInCU: 0x1849C, offset: 0x1849C, size: 0x8, addend: 0x0, symName: __ZNK5Eigen8internal18scalar_constant_opIfEclEv, symObjAddr: 0x3790, symBinAddr: 0x100004A48, symSize: 0x18 }
  - { offsetInCU: 0x184C2, offset: 0x184C2, size: 0x8, addend: 0x0, symName: __ZN5Eigen8internal9evaluatorINS_5ArrayIfLin1ELin1ELi0ELin1ELin1EEEED2Ev, symObjAddr: 0x37A8, symBinAddr: 0x100004A60, symSize: 0x2C }
  - { offsetInCU: 0x184EF, offset: 0x184EF, size: 0x8, addend: 0x0, symName: __ZN5Eigen8internal9evaluatorINS_15PlainObjectBaseINS_5ArrayIfLin1ELin1ELi0ELin1ELin1EEEEEED2Ev, symObjAddr: 0x37D4, symBinAddr: 0x100004A8C, symSize: 0x2C }
  - { offsetInCU: 0x1851B, offset: 0x1851B, size: 0x8, addend: 0x0, symName: __ZN5Eigen8internal9evaluatorINS_13CwiseBinaryOpINS0_17scalar_product_opIffEEKNS_12CwiseUnaryOpINS0_14scalar_cast_opIifEEKNS_5ArrayIiLin1ELin1ELi0ELin1ELin1EEEEEKNS_14CwiseNullaryOpINS0_18scalar_constant_opIfEEKNS8_IfLin1ELin1ELi0ELin1ELin1EEEEEEEED2Ev, symObjAddr: 0x3800, symBinAddr: 0x100004AB8, symSize: 0x2C }
  - { offsetInCU: 0x18548, offset: 0x18548, size: 0x8, addend: 0x0, symName: __ZN5Eigen8internal16binary_evaluatorINS_13CwiseBinaryOpINS0_17scalar_product_opIffEEKNS_12CwiseUnaryOpINS0_14scalar_cast_opIifEEKNS_5ArrayIiLin1ELin1ELi0ELin1ELin1EEEEEKNS_14CwiseNullaryOpINS0_18scalar_constant_opIfEEKNS8_IfLin1ELin1ELi0ELin1ELin1EEEEEEENS0_10IndexBasedESL_ffED2Ev, symObjAddr: 0x382C, symBinAddr: 0x100004AE4, symSize: 0x34 }
  - { offsetInCU: 0x18574, offset: 0x18574, size: 0x8, addend: 0x0, symName: __ZN5Eigen8internal16binary_evaluatorINS_13CwiseBinaryOpINS0_17scalar_product_opIffEEKNS_12CwiseUnaryOpINS0_14scalar_cast_opIifEEKNS_5ArrayIiLin1ELin1ELi0ELin1ELin1EEEEEKNS_14CwiseNullaryOpINS0_18scalar_constant_opIfEEKNS8_IfLin1ELin1ELi0ELin1ELin1EEEEEEENS0_10IndexBasedESL_ffE4DataD1Ev, symObjAddr: 0x3860, symBinAddr: 0x100004B18, symSize: 0x2C }
  - { offsetInCU: 0x185A1, offset: 0x185A1, size: 0x8, addend: 0x0, symName: __ZN5Eigen8internal16binary_evaluatorINS_13CwiseBinaryOpINS0_17scalar_product_opIffEEKNS_12CwiseUnaryOpINS0_14scalar_cast_opIifEEKNS_5ArrayIiLin1ELin1ELi0ELin1ELin1EEEEEKNS_14CwiseNullaryOpINS0_18scalar_constant_opIfEEKNS8_IfLin1ELin1ELi0ELin1ELin1EEEEEEENS0_10IndexBasedESL_ffE4DataD2Ev, symObjAddr: 0x388C, symBinAddr: 0x100004B44, symSize: 0x3C }
  - { offsetInCU: 0x185CE, offset: 0x185CE, size: 0x8, addend: 0x0, symName: __ZN5Eigen8internal9evaluatorIKNS_14CwiseNullaryOpINS0_18scalar_constant_opIfEEKNS_5ArrayIfLin1ELin1ELi0ELin1ELin1EEEEEED1Ev, symObjAddr: 0x38C8, symBinAddr: 0x100004B80, symSize: 0x2C }
  - { offsetInCU: 0x185FA, offset: 0x185FA, size: 0x8, addend: 0x0, symName: __ZN5Eigen8internal9evaluatorIKNS_14CwiseNullaryOpINS0_18scalar_constant_opIfEEKNS_5ArrayIfLin1ELin1ELi0ELin1ELin1EEEEEED2Ev, symObjAddr: 0x38F4, symBinAddr: 0x100004BAC, symSize: 0x2C }
  - { offsetInCU: 0x18626, offset: 0x18626, size: 0x8, addend: 0x0, symName: __ZN5Eigen8internal9evaluatorINS_14CwiseNullaryOpINS0_18scalar_constant_opIfEEKNS_5ArrayIfLin1ELin1ELi0ELin1ELin1EEEEEED2Ev, symObjAddr: 0x3920, symBinAddr: 0x100004BD8, symSize: 0x2C }
  - { offsetInCU: 0x18652, offset: 0x18652, size: 0x8, addend: 0x0, symName: __ZN5Eigen8internal9assign_opIffEC2Ev, symObjAddr: 0x394C, symBinAddr: 0x100004C04, symSize: 0x14 }
  - { offsetInCU: 0x1867C, offset: 0x1867C, size: 0x8, addend: 0x0, symName: __ZNSt3__111char_traitsIcE6lengthB8ue170006EPKc, symObjAddr: 0x3B4C, symBinAddr: 0x100004E04, symSize: 0x34 }
  - { offsetInCU: 0x186BD, offset: 0x186BD, size: 0x8, addend: 0x0, symName: __ZNKSt3__113basic_ostreamIcNS_11char_traitsIcEEE6sentrycvbB8ue170006Ev, symObjAddr: 0x3B80, symBinAddr: 0x100004E38, symSize: 0x1C }
  - { offsetInCU: 0x186E3, offset: 0x186E3, size: 0x8, addend: 0x0, symName: __ZNSt3__119ostreambuf_iteratorIcNS_11char_traitsIcEEEC1B8ue170006ERNS_13basic_ostreamIcS2_EE, symObjAddr: 0x3DDC, symBinAddr: 0x100005094, symSize: 0x34 }
  - { offsetInCU: 0x1871B, offset: 0x1871B, size: 0x8, addend: 0x0, symName: __ZNKSt3__18ios_base5flagsB8ue170006Ev, symObjAddr: 0x3E10, symBinAddr: 0x1000050C8, symSize: 0x18 }
  - { offsetInCU: 0x18743, offset: 0x18743, size: 0x8, addend: 0x0, symName: __ZNKSt3__19basic_iosIcNS_11char_traitsIcEEE4fillB8ue170006Ev, symObjAddr: 0x3E28, symBinAddr: 0x1000050E0, symSize: 0x64 }
  - { offsetInCU: 0x1876B, offset: 0x1876B, size: 0x8, addend: 0x0, symName: __ZNKSt3__119ostreambuf_iteratorIcNS_11char_traitsIcEEE6failedB8ue170006Ev, symObjAddr: 0x3E8C, symBinAddr: 0x100005144, symSize: 0x24 }
  - { offsetInCU: 0x18791, offset: 0x18791, size: 0x8, addend: 0x0, symName: __ZNSt3__19basic_iosIcNS_11char_traitsIcEEE8setstateB8ue170006Ej, symObjAddr: 0x3EB0, symBinAddr: 0x100005168, symSize: 0x2C }
  - { offsetInCU: 0x187C6, offset: 0x187C6, size: 0x8, addend: 0x0, symName: __ZNKSt3__18ios_base5widthB8ue170006Ev, symObjAddr: 0x3EDC, symBinAddr: 0x100005194, symSize: 0x18 }
  - { offsetInCU: 0x187EE, offset: 0x187EE, size: 0x8, addend: 0x0, symName: __ZNSt3__115basic_streambufIcNS_11char_traitsIcEEE5sputnB8ue170006EPKcl, symObjAddr: 0x3EF4, symBinAddr: 0x1000051AC, symSize: 0x3C }
  - { offsetInCU: 0x18830, offset: 0x18830, size: 0x8, addend: 0x0, symName: __ZNSt3__112basic_stringIcNS_11char_traitsIcEENS_9allocatorIcEEEC1B8ue170006Emc, symObjAddr: 0x3F30, symBinAddr: 0x1000051E8, symSize: 0x3C }
  - { offsetInCU: 0x18878, offset: 0x18878, size: 0x8, addend: 0x0, symName: __ZNKSt3__112basic_stringIcNS_11char_traitsIcEENS_9allocatorIcEEE4dataB8ue170006Ev, symObjAddr: 0x3F6C, symBinAddr: 0x100005224, symSize: 0x28 }
  - { offsetInCU: 0x1889E, offset: 0x1889E, size: 0x8, addend: 0x0, symName: __ZNSt3__18ios_base5widthB8ue170006El, symObjAddr: 0x3F94, symBinAddr: 0x10000524C, symSize: 0x2C }
  - { offsetInCU: 0x188E4, offset: 0x188E4, size: 0x8, addend: 0x0, symName: __ZNSt3__112basic_stringIcNS_11char_traitsIcEENS_9allocatorIcEEEC2B8ue170006Emc, symObjAddr: 0x3FC0, symBinAddr: 0x100005278, symSize: 0x4C }
  - { offsetInCU: 0x18931, offset: 0x18931, size: 0x8, addend: 0x0, symName: __ZNSt3__117__compressed_pairINS_12basic_stringIcNS_11char_traitsIcEENS_9allocatorIcEEE5__repES5_EC1B8ue170006INS_18__default_init_tagESA_EEOT_OT0_, symObjAddr: 0x400C, symBinAddr: 0x1000052C4, symSize: 0x3C }
  - { offsetInCU: 0x18989, offset: 0x18989, size: 0x8, addend: 0x0, symName: __ZNSt3__117__compressed_pairINS_12basic_stringIcNS_11char_traitsIcEENS_9allocatorIcEEE5__repES5_EC2B8ue170006INS_18__default_init_tagESA_EEOT_OT0_, symObjAddr: 0x4048, symBinAddr: 0x100005300, symSize: 0x3C }
  - { offsetInCU: 0x189E1, offset: 0x189E1, size: 0x8, addend: 0x0, symName: __ZNSt3__122__compressed_pair_elemINS_12basic_stringIcNS_11char_traitsIcEENS_9allocatorIcEEE5__repELi0ELb0EEC2B8ue170006ENS_18__default_init_tagE, symObjAddr: 0x4084, symBinAddr: 0x10000533C, symSize: 0x14 }
  - { offsetInCU: 0x18A16, offset: 0x18A16, size: 0x8, addend: 0x0, symName: __ZNSt3__122__compressed_pair_elemINS_9allocatorIcEELi1ELb1EEC2B8ue170006ENS_18__default_init_tagE, symObjAddr: 0x4098, symBinAddr: 0x100005350, symSize: 0x2C }
  - { offsetInCU: 0x18A4B, offset: 0x18A4B, size: 0x8, addend: 0x0, symName: __ZNSt3__19allocatorIcEC2B8ue170006Ev, symObjAddr: 0x40C4, symBinAddr: 0x10000537C, symSize: 0x2C }
  - { offsetInCU: 0x18A75, offset: 0x18A75, size: 0x8, addend: 0x0, symName: __ZNSt3__116__non_trivial_ifILb1ENS_9allocatorIcEEEC2B8ue170006Ev, symObjAddr: 0x40F0, symBinAddr: 0x1000053A8, symSize: 0x14 }
  - { offsetInCU: 0x18A9F, offset: 0x18A9F, size: 0x8, addend: 0x0, symName: __ZNKSt3__112basic_stringIcNS_11char_traitsIcEENS_9allocatorIcEEE13__get_pointerB8ue170006Ev, symObjAddr: 0x4118, symBinAddr: 0x1000053D0, symSize: 0x54 }
  - { offsetInCU: 0x18AC5, offset: 0x18AC5, size: 0x8, addend: 0x0, symName: __ZNKSt3__112basic_stringIcNS_11char_traitsIcEENS_9allocatorIcEEE9__is_longB8ue170006Ev, symObjAddr: 0x416C, symBinAddr: 0x100005424, symSize: 0x38 }
  - { offsetInCU: 0x18AEB, offset: 0x18AEB, size: 0x8, addend: 0x0, symName: __ZNKSt3__112basic_stringIcNS_11char_traitsIcEENS_9allocatorIcEEE18__get_long_pointerB8ue170006Ev, symObjAddr: 0x41A4, symBinAddr: 0x10000545C, symSize: 0x28 }
  - { offsetInCU: 0x18B11, offset: 0x18B11, size: 0x8, addend: 0x0, symName: __ZNKSt3__112basic_stringIcNS_11char_traitsIcEENS_9allocatorIcEEE19__get_short_pointerB8ue170006Ev, symObjAddr: 0x41CC, symBinAddr: 0x100005484, symSize: 0x28 }
  - { offsetInCU: 0x18B37, offset: 0x18B37, size: 0x8, addend: 0x0, symName: __ZNKSt3__117__compressed_pairINS_12basic_stringIcNS_11char_traitsIcEENS_9allocatorIcEEE5__repES5_E5firstB8ue170006Ev, symObjAddr: 0x41F4, symBinAddr: 0x1000054AC, symSize: 0x24 }
  - { offsetInCU: 0x18B5D, offset: 0x18B5D, size: 0x8, addend: 0x0, symName: __ZNKSt3__122__compressed_pair_elemINS_12basic_stringIcNS_11char_traitsIcEENS_9allocatorIcEEE5__repELi0ELb0EE5__getB8ue170006Ev, symObjAddr: 0x4218, symBinAddr: 0x1000054D0, symSize: 0x14 }
  - { offsetInCU: 0x18B83, offset: 0x18B83, size: 0x8, addend: 0x0, symName: __ZNSt3__114pointer_traitsIPKcE10pointer_toB8ue170006ERS1_, symObjAddr: 0x422C, symBinAddr: 0x1000054E4, symSize: 0x14 }
  - { offsetInCU: 0x18BA6, offset: 0x18BA6, size: 0x8, addend: 0x0, symName: __ZNSt3__119ostreambuf_iteratorIcNS_11char_traitsIcEEEC2B8ue170006ERNS_13basic_ostreamIcS2_EE, symObjAddr: 0x4240, symBinAddr: 0x1000054F8, symSize: 0x54 }
  - { offsetInCU: 0x18BDE, offset: 0x18BDE, size: 0x8, addend: 0x0, symName: __ZNKSt3__19basic_iosIcNS_11char_traitsIcEEE5rdbufB8ue170006Ev, symObjAddr: 0x4294, symBinAddr: 0x10000554C, symSize: 0x24 }
  - { offsetInCU: 0x18C06, offset: 0x18C06, size: 0x8, addend: 0x0, symName: __ZNKSt3__18ios_base5rdbufB8ue170006Ev, symObjAddr: 0x42B8, symBinAddr: 0x100005570, symSize: 0x18 }
  - { offsetInCU: 0x18C2C, offset: 0x18C2C, size: 0x8, addend: 0x0, symName: __ZNSt3__111char_traitsIcE11eq_int_typeB8ue170006Eii, symObjAddr: 0x42D0, symBinAddr: 0x100005588, symSize: 0x28 }
  - { offsetInCU: 0x18C5F, offset: 0x18C5F, size: 0x8, addend: 0x0, symName: __ZNSt3__111char_traitsIcE3eofB8ue170006Ev, symObjAddr: 0x42F8, symBinAddr: 0x1000055B0, symSize: 0x8 }
  - { offsetInCU: 0x18C73, offset: 0x18C73, size: 0x8, addend: 0x0, symName: __ZNKSt3__19basic_iosIcNS_11char_traitsIcEEE5widenB8ue170006Ec, symObjAddr: 0x4300, symBinAddr: 0x1000055B8, symSize: 0x84 }
  - { offsetInCU: 0x18CE1, offset: 0x18CE1, size: 0x8, addend: 0x0, symName: __ZNKSt3__15ctypeIcE5widenB8ue170006Ec, symObjAddr: 0x43B0, symBinAddr: 0x100005668, symSize: 0x38 }
  - { offsetInCU: 0x18D16, offset: 0x18D16, size: 0x8, addend: 0x0, symName: __ZNSt3__18ios_base8setstateB8ue170006Ej, symObjAddr: 0x43E8, symBinAddr: 0x1000056A0, symSize: 0x34 }
  - { offsetInCU: 0x18D4D, offset: 0x18D4D, size: 0x8, addend: 0x0, symName: __ZNK5Eigen9DenseBaseINS_5ArrayIfLin1ELin1ELi0ELin1ELin1EEEE4evalEv, symObjAddr: 0x49C0, symBinAddr: 0x100005C78, symSize: 0x24 }
  - { offsetInCU: 0x18D78, offset: 0x18D78, size: 0x8, addend: 0x0, symName: __ZNSt3__112basic_stringIcNS_11char_traitsIcEENS_9allocatorIcEEEC1B8ue170006ILi0EEEPKc, symObjAddr: 0x49E4, symBinAddr: 0x100005C9C, symSize: 0x34 }
  - { offsetInCU: 0x18DB7, offset: 0x18DB7, size: 0x8, addend: 0x0, symName: __ZN5Eigen8IOFormatC1EiiRKNSt3__112basic_stringIcNS1_11char_traitsIcEENS1_9allocatorIcEEEES9_S9_S9_S9_S9_c, symObjAddr: 0x4A18, symBinAddr: 0x100005CD0, symSize: 0x88 }
  - { offsetInCU: 0x18E5F, offset: 0x18E5F, size: 0x8, addend: 0x0, symName: __ZN5Eigen8IOFormatD1Ev, symObjAddr: 0x4AA0, symBinAddr: 0x100005D58, symSize: 0x2C }
  - { offsetInCU: 0x18E8B, offset: 0x18E8B, size: 0x8, addend: 0x0, symName: __ZN5Eigen8internal25significant_decimals_implIfE3runEv, symObjAddr: 0x4B18, symBinAddr: 0x100005DD0, symSize: 0x14 }
  - { offsetInCU: 0x18E9F, offset: 0x18E9F, size: 0x8, addend: 0x0, symName: __ZNSt3__18ios_base9precisionB8ue170006El, symObjAddr: 0x4B2C, symBinAddr: 0x100005DE4, symSize: 0x2C }
  - { offsetInCU: 0x18FAF, offset: 0x18FAF, size: 0x8, addend: 0x0, symName: __ZNSt3__118basic_stringstreamIcNS_11char_traitsIcEENS_9allocatorIcEEEC1B8ue170006Ev, symObjAddr: 0x4B58, symBinAddr: 0x100005E10, symSize: 0x104 }
  - { offsetInCU: 0x18FD9, offset: 0x18FD9, size: 0x8, addend: 0x0, symName: __ZNK5Eigen15PlainObjectBaseINS_5ArrayIfLin1ELin1ELi0ELin1ELin1EEEE5coeffEll, symObjAddr: 0x4C5C, symBinAddr: 0x100005F14, symSize: 0x6C }
  - { offsetInCU: 0x1901B, offset: 0x1901B, size: 0x8, addend: 0x0, symName: __ZNKSt3__118basic_stringstreamIcNS_11char_traitsIcEENS_9allocatorIcEEE3strB8ue170006Ev, symObjAddr: 0x4CF4, symBinAddr: 0x100005FAC, symSize: 0x30 }
  - { offsetInCU: 0x19041, offset: 0x19041, size: 0x8, addend: 0x0, symName: __ZNKSt3__112basic_stringIcNS_11char_traitsIcEENS_9allocatorIcEEE6lengthB8ue170006Ev, symObjAddr: 0x4D24, symBinAddr: 0x100005FDC, symSize: 0x24 }
  - { offsetInCU: 0x1906C, offset: 0x1906C, size: 0x8, addend: 0x0, symName: __ZNSt3__118basic_stringstreamIcNS_11char_traitsIcEENS_9allocatorIcEEED1Ev, symObjAddr: 0x4D48, symBinAddr: 0x100006000, symSize: 0x40 }
  - { offsetInCU: 0x19099, offset: 0x19099, size: 0x8, addend: 0x0, symName: __ZNSt3__19basic_iosIcNS_11char_traitsIcEEE4fillB8ue170006Ec, symObjAddr: 0x4D88, symBinAddr: 0x100006040, symSize: 0x74 }
  - { offsetInCU: 0x190DF, offset: 0x190DF, size: 0x8, addend: 0x0, symName: __ZNKSt3__112basic_stringIcNS_11char_traitsIcEENS_9allocatorIcEEE4sizeB8ue170006Ev, symObjAddr: 0x4DFC, symBinAddr: 0x1000060B4, symSize: 0x54 }
  - { offsetInCU: 0x19105, offset: 0x19105, size: 0x8, addend: 0x0, symName: __ZNKSt3__112basic_stringIcNS_11char_traitsIcEENS_9allocatorIcEEE15__get_long_sizeB8ue170006Ev, symObjAddr: 0x4E50, symBinAddr: 0x100006108, symSize: 0x28 }
  - { offsetInCU: 0x1912B, offset: 0x1912B, size: 0x8, addend: 0x0, symName: __ZNKSt3__112basic_stringIcNS_11char_traitsIcEENS_9allocatorIcEEE16__get_short_sizeB8ue170006Ev, symObjAddr: 0x4E78, symBinAddr: 0x100006130, symSize: 0x34 }
  - { offsetInCU: 0x19151, offset: 0x19151, size: 0x8, addend: 0x0, symName: __ZN5Eigen16GenericNumTraitsIfE8digits10Ev, symObjAddr: 0x4EAC, symBinAddr: 0x100006164, symSize: 0x14 }
  - { offsetInCU: 0x19165, offset: 0x19165, size: 0x8, addend: 0x0, symName: __ZN5Eigen8internal21default_digits10_implIfLb1ELb0EE3runEv, symObjAddr: 0x4EC0, symBinAddr: 0x100006178, symSize: 0x8 }
  - { offsetInCU: 0x19179, offset: 0x19179, size: 0x8, addend: 0x0, symName: __ZNSt3__19basic_iosIcNS_11char_traitsIcEEEC2B8ue170006Ev, symObjAddr: 0x4EC8, symBinAddr: 0x100006180, symSize: 0x44 }
  - { offsetInCU: 0x191A3, offset: 0x191A3, size: 0x8, addend: 0x0, symName: __ZNSt3__114basic_iostreamIcNS_11char_traitsIcEEEC2B8ue170006EPNS_15basic_streambufIcS2_EE, symObjAddr: 0x4F0C, symBinAddr: 0x1000061C4, symSize: 0xAC }
  - { offsetInCU: 0x191E9, offset: 0x191E9, size: 0x8, addend: 0x0, symName: __ZNSt3__115basic_stringbufIcNS_11char_traitsIcEENS_9allocatorIcEEEC1B8ue170006Ej, symObjAddr: 0x4FB8, symBinAddr: 0x100006270, symSize: 0x34 }
  - { offsetInCU: 0x19222, offset: 0x19222, size: 0x8, addend: 0x0, symName: __ZNSt3__18ios_baseC2B8ue170006Ev, symObjAddr: 0x4FEC, symBinAddr: 0x1000062A4, symSize: 0x24 }
  - { offsetInCU: 0x1924C, offset: 0x1924C, size: 0x8, addend: 0x0, symName: __ZNSt3__113basic_istreamIcNS_11char_traitsIcEEEC2B8ue170006EPNS_15basic_streambufIcS2_EE, symObjAddr: 0x5010, symBinAddr: 0x1000062C8, symSize: 0x64 }
  - { offsetInCU: 0x19291, offset: 0x19291, size: 0x8, addend: 0x0, symName: __ZNSt3__113basic_ostreamIcNS_11char_traitsIcEEEC2B8ue170006Ev, symObjAddr: 0x5074, symBinAddr: 0x10000632C, symSize: 0x34 }
  - { offsetInCU: 0x192C8, offset: 0x192C8, size: 0x8, addend: 0x0, symName: __ZNSt3__19basic_iosIcNS_11char_traitsIcEEE4initB8ue170006EPNS_15basic_streambufIcS2_EE, symObjAddr: 0x50A8, symBinAddr: 0x100006360, symSize: 0x44 }
  - { offsetInCU: 0x192FF, offset: 0x192FF, size: 0x8, addend: 0x0, symName: __ZNSt3__115basic_stringbufIcNS_11char_traitsIcEENS_9allocatorIcEEEC2B8ue170006Ej, symObjAddr: 0x50EC, symBinAddr: 0x1000063A4, symSize: 0x60 }
  - { offsetInCU: 0x19338, offset: 0x19338, size: 0x8, addend: 0x0, symName: __ZNSt3__112basic_stringIcNS_11char_traitsIcEENS_9allocatorIcEEEC1B8ue170006Ev, symObjAddr: 0x514C, symBinAddr: 0x100006404, symSize: 0x2C }
  - { offsetInCU: 0x19362, offset: 0x19362, size: 0x8, addend: 0x0, symName: __ZNSt3__112basic_stringIcNS_11char_traitsIcEENS_9allocatorIcEEEC2B8ue170006Ev, symObjAddr: 0x5178, symBinAddr: 0x100006430, symSize: 0x48 }
  - { offsetInCU: 0x1938C, offset: 0x1938C, size: 0x8, addend: 0x0, symName: __ZNSt3__112basic_stringIcNS_11char_traitsIcEENS_9allocatorIcEEE14__default_initB8ue170006Ev, symObjAddr: 0x51C0, symBinAddr: 0x100006478, symSize: 0x40 }
  - { offsetInCU: 0x193B2, offset: 0x193B2, size: 0x8, addend: 0x0, symName: __ZNSt3__117__compressed_pairINS_12basic_stringIcNS_11char_traitsIcEENS_9allocatorIcEEE5__repES5_E5firstB8ue170006Ev, symObjAddr: 0x5200, symBinAddr: 0x1000064B8, symSize: 0x24 }
  - { offsetInCU: 0x193D8, offset: 0x193D8, size: 0x8, addend: 0x0, symName: __ZNSt3__122__compressed_pair_elemINS_12basic_stringIcNS_11char_traitsIcEENS_9allocatorIcEEE5__repELi0ELb0EE5__getB8ue170006Ev, symObjAddr: 0x5224, symBinAddr: 0x1000064DC, symSize: 0x14 }
  - { offsetInCU: 0x19412, offset: 0x19412, size: 0x8, addend: 0x0, symName: __ZNKSt3__16__lessIvvEclB8ue170006IllEEbRKT_RKT0_, symObjAddr: 0x528C, symBinAddr: 0x100006544, symSize: 0x34 }
  - { offsetInCU: 0x19466, offset: 0x19466, size: 0x8, addend: 0x0, symName: __ZNSt3__118basic_stringstreamIcNS_11char_traitsIcEENS_9allocatorIcEEED2Ev, symObjAddr: 0x52C0, symBinAddr: 0x100006578, symSize: 0x6C }
  - { offsetInCU: 0x194A0, offset: 0x194A0, size: 0x8, addend: 0x0, symName: __ZThn16_NSt3__118basic_stringstreamIcNS_11char_traitsIcEENS_9allocatorIcEEED1Ev, symObjAddr: 0x532C, symBinAddr: 0x1000065E4, symSize: 0x1C }
  - { offsetInCU: 0x194B7, offset: 0x194B7, size: 0x8, addend: 0x0, symName: __ZTv0_n24_NSt3__118basic_stringstreamIcNS_11char_traitsIcEENS_9allocatorIcEEED1Ev, symObjAddr: 0x5348, symBinAddr: 0x100006600, symSize: 0x28 }
  - { offsetInCU: 0x194D3, offset: 0x194D3, size: 0x8, addend: 0x0, symName: __ZNSt3__115basic_stringbufIcNS_11char_traitsIcEENS_9allocatorIcEEED1Ev, symObjAddr: 0x5370, symBinAddr: 0x100006628, symSize: 0x2C }
  - { offsetInCU: 0x19500, offset: 0x19500, size: 0x8, addend: 0x0, symName: __ZNSt3__115basic_stringbufIcNS_11char_traitsIcEENS_9allocatorIcEEED2Ev, symObjAddr: 0x539C, symBinAddr: 0x100006654, symSize: 0x48 }
  - { offsetInCU: 0x1952D, offset: 0x1952D, size: 0x8, addend: 0x0, symName: __ZNSt3__112basic_stringIcNS_11char_traitsIcEENS_9allocatorIcEEEC2B8ue170006ILi0EEEPKc, symObjAddr: 0x53E4, symBinAddr: 0x10000669C, symSize: 0x58 }
  - { offsetInCU: 0x1956C, offset: 0x1956C, size: 0x8, addend: 0x0, symName: __ZN5Eigen8IOFormatC2EiiRKNSt3__112basic_stringIcNS1_11char_traitsIcEENS1_9allocatorIcEEEES9_S9_S9_S9_S9_c, symObjAddr: 0x543C, symBinAddr: 0x1000066F4, symSize: 0x284 }
  - { offsetInCU: 0x1962B, offset: 0x1962B, size: 0x8, addend: 0x0, symName: __ZNSt3__112basic_stringIcNS_11char_traitsIcEENS_9allocatorIcEEEixB8ue170006Em, symObjAddr: 0x56C0, symBinAddr: 0x100006978, symSize: 0x30 }
  - { offsetInCU: 0x19660, offset: 0x19660, size: 0x8, addend: 0x0, symName: __ZNSt3__112basic_stringIcNS_11char_traitsIcEENS_9allocatorIcEEEpLB8ue170006Ec, symObjAddr: 0x56F0, symBinAddr: 0x1000069A8, symSize: 0x34 }
  - { offsetInCU: 0x19695, offset: 0x19695, size: 0x8, addend: 0x0, symName: __ZNSt3__112basic_stringIcNS_11char_traitsIcEENS_9allocatorIcEEE13__get_pointerB8ue170006Ev, symObjAddr: 0x5724, symBinAddr: 0x1000069DC, symSize: 0x54 }
  - { offsetInCU: 0x196BB, offset: 0x196BB, size: 0x8, addend: 0x0, symName: __ZNSt3__112basic_stringIcNS_11char_traitsIcEENS_9allocatorIcEEE18__get_long_pointerB8ue170006Ev, symObjAddr: 0x5778, symBinAddr: 0x100006A30, symSize: 0x28 }
  - { offsetInCU: 0x196E1, offset: 0x196E1, size: 0x8, addend: 0x0, symName: __ZNSt3__112basic_stringIcNS_11char_traitsIcEENS_9allocatorIcEEE19__get_short_pointerB8ue170006Ev, symObjAddr: 0x57A0, symBinAddr: 0x100006A58, symSize: 0x28 }
  - { offsetInCU: 0x19707, offset: 0x19707, size: 0x8, addend: 0x0, symName: __ZNSt3__114pointer_traitsIPcE10pointer_toB8ue170006ERc, symObjAddr: 0x57C8, symBinAddr: 0x100006A80, symSize: 0x14 }
  - { offsetInCU: 0x1972A, offset: 0x1972A, size: 0x8, addend: 0x0, symName: __ZN5Eigen8IOFormatD2Ev, symObjAddr: 0x57DC, symBinAddr: 0x100006A94, symSize: 0x74 }
...
